MODULE Linux x86_64 8F9B3E74FD66A86D8D1FEB3F9CD6B9EF0 submarine_internal
INFO CODE_ID 743E9B8F66FD6DA88D1FEB3F9CD6B9EFFCB4A7A5
FUNC 1c20 4a 0 google_breakpad::PageAllocator::FreeAll()
FUNC 1c6a 20 0 google_breakpad::ProcCpuInfoReader::GetValueAndLen(unsigned long*)
FUNC 1c8a 20 0 google_breakpad::TypedMDRVA<MDRawDirectory>::CopyIndex(unsigned int, MDRawDirectory*)
FUNC 1caa 1d 0 google_breakpad::TypedMDRVA<MDRawDirectory>::CopyIndex(unsigned int, MDRawDirectory*)
FUNC 1cc8 20 0 google_breakpad::TypedMDRVA<unsigned int>::CopyIndexAfterObject(unsigned int, void const*, unsigned long)
FUNC 1ce8 20 0 MinidumpWriter::MinidumpWriter
FUNC 1d08 2c 0 MinidumpWriter::~MinidumpWriter
FUNC 1d34 1ec 0 MinidumpWriter::WriteFile
FUNC 1f20 67 0 MinidumpWriter::WriteProcFile
FUNC 2086 48 0 dumpCallback
FUNC 20ce 1b1 0 _0()
FUNC 227f 1b1 0 _1()
FUNC 2430 1b1 0 _2()
FUNC 25e1 1b1 0 _3()
FUNC 2792 1b1 0 _4()
FUNC 2943 1b1 0 _5()
FUNC 2af4 1b1 0 _6()
FUNC 2ca5 1b1 0 _7()
FUNC 2e56 1b1 0 _8()
FUNC 3007 1b1 0 _9()
FUNC 31b8 1b1 0 _A()
FUNC 3369 1b1 0 _B()
FUNC 351a 1b1 0 _C()
FUNC 36cb 1b1 0 _D()
FUNC 387c 1b1 0 _E()
FUNC 3a2d 1b1 0 _F()
FUNC 3bde 1b1 0 _G()
FUNC 3d8f 1b1 0 _H()
FUNC 3f40 1b1 0 _I()
FUNC 40f1 1b1 0 _J()
FUNC 42a2 1b1 0 _K()
FUNC 4453 1b1 0 _L()
FUNC 4604 1b1 0 _M()
FUNC 47b5 1b1 0 _N()
FUNC 4966 1b1 0 _O()
FUNC 4b17 1b1 0 _P()
FUNC 4cc8 1b1 0 _Q()
FUNC 4e79 1b1 0 _R()
FUNC 502a 1b1 0 _S()
FUNC 51db 1b1 0 _T()
FUNC 538c 1b1 0 _U()
FUNC 553d 1b1 0 _V()
FUNC 56ee 1b1 0 _W()
FUNC 589f 1b1 0 _X()
FUNC 5a50 1b1 0 _Y()
FUNC 5c01 1b1 0 _Z()
FUNC 5db2 1b1 0 _EQ()
FUNC 5f63 2fe 0 main
FUNC 6262 3a 0 google_breakpad::MicrodumpExtraInfo::MicrodumpExtraInfo()
FUNC 629c a0 0 google_breakpad::MinidumpDescriptor::MinidumpDescriptor(std::__cxx11::basic_string<char, std::char_traits<char>, std::allocator<char> > const&)
FUNC 633c 12 0 google_breakpad::MinidumpDescriptor::path() const
FUNC 634e 2f 0 google_breakpad::MinidumpDescriptor::~MinidumpDescriptor()
FUNC 6380 14b 0 google_breakpad::ExceptionHandler::InstallHandlersLocked()
FUNC 64d0 7c 0 google_breakpad::ExceptionHandler::RestoreHandlersLocked()
FUNC 6550 341 0 google_breakpad::ExceptionHandler::~ExceptionHandler()
FUNC 68a0 d1 0 google_breakpad::ExceptionHandler::SendContinueSignalToChild()
FUNC 6980 4bc 0 google_breakpad::ExceptionHandler::GenerateDump(google_breakpad::ExceptionHandler::CrashContext*)
FUNC 6e40 1da 0 google_breakpad::ExceptionHandler::HandleSignal(int, siginfo_t*, void*)
FUNC 7020 1c1 0 google_breakpad::ExceptionHandler::SignalHandler(int, siginfo_t*, void*)
FUNC 71f0 7f 0 google_breakpad::ExceptionHandler::SimulateSignalDelivery(int)
FUNC 7270 e5 0 google_breakpad::ExceptionHandler::WaitForContinueSignal()
FUNC 7360 8b 0 google_breakpad::ExceptionHandler::DoDump(int, void const*, unsigned long)
FUNC 73f0 28 0 google_breakpad::ExceptionHandler::ThreadEntry(void*)
FUNC 7420 195 0 google_breakpad::ExceptionHandler::WriteMinidump()
FUNC 75c0 e3 0 google_breakpad::ExceptionHandler::AddMappingInfo(std::__cxx11::basic_string<char, std::char_traits<char>, std::allocator<char> > const&, unsigned char const*, unsigned long, unsigned long, unsigned long)
FUNC 76b0 91 0 google_breakpad::ExceptionHandler::RegisterAppMemory(void*, unsigned long)
FUNC 7750 52 0 google_breakpad::ExceptionHandler::UnregisterAppMemory(void*)
FUNC 77b0 23d 0 google_breakpad::ExceptionHandler::WriteMinidumpForChild(int, int, std::__cxx11::basic_string<char, std::char_traits<char>, std::allocator<char> > const&, bool (*)(google_breakpad::MinidumpDescriptor const&, void*, bool), void*)
FUNC 79f0 396 0 google_breakpad::ExceptionHandler::ExceptionHandler(google_breakpad::MinidumpDescriptor const&, bool (*)(void*), bool (*)(google_breakpad::MinidumpDescriptor const&, void*, bool), void*, bool, int)
FUNC 7d90 27d 0 google_breakpad::ExceptionHandler::WriteMinidump(std::__cxx11::basic_string<char, std::char_traits<char>, std::allocator<char> > const&, bool (*)(google_breakpad::MinidumpDescriptor const&, void*, bool), void*)
FUNC 8010 ea 0 void std::vector<google_breakpad::ExceptionHandler*, std::allocator<google_breakpad::ExceptionHandler*> >::_M_emplace_back_aux<google_breakpad::ExceptionHandler*>(google_breakpad::ExceptionHandler*&&)
FUNC 8100 c2 0 void std::__cxx11::basic_string<char, std::char_traits<char>, std::allocator<char> >::_M_construct<char*>(char*, char*, std::forward_iterator_tag)
FUNC 81d0 a4 0 google_breakpad::MinidumpDescriptor::MinidumpDescriptor(google_breakpad::MinidumpDescriptor const&)
FUNC 8280 317 0 google_breakpad::MinidumpDescriptor::UpdatePath()
FUNC 85a0 a2 0 google_breakpad::MinidumpDescriptor::operator=(google_breakpad::MinidumpDescriptor const&)
FUNC 8650 33 0 logger::write(char const*, unsigned long)
FUNC 8690 1ab5 0 google_breakpad::WriteMicrodump(int, void const*, unsigned long, std::__cxx11::list<google_breakpad::MappingEntry, std::allocator<google_breakpad::MappingEntry> > const&, google_breakpad::MicrodumpExtraInfo const&)
FUNC a150 3ea 0 void std::vector<unsigned char, google_breakpad::PageStdAllocator<unsigned char> >::_M_range_insert<unsigned char const*>(__gnu_cxx::__normal_iterator<unsigned char*, std::vector<unsigned char, google_breakpad::PageStdAllocator<unsigned char> > >, unsigned char const*, unsigned char const*, std::forward_iterator_tag)
FUNC a540 6 0 google_breakpad::LinuxDumper::LateInit()
FUNC a550 835 0 google_breakpad::LinuxDumper::LinuxDumper(int, char const*)
FUNC ad90 67 0 google_breakpad::LinuxDumper::~LinuxDumper()
FUNC ae00 12 0 google_breakpad::LinuxDumper::~LinuxDumper()
FUNC ae20 4a 0 google_breakpad::LinuxDumper::GetMappingAbsolutePath(google_breakpad::MappingInfo const&, char*) const
FUNC ae70 19f 0 ElfFileSoName
FUNC b010 1a7 0 google_breakpad::LinuxDumper::HandleDeletedFileInMapping(char*) const
FUNC b1c0 e6 0 google_breakpad::LinuxDumper::GetMappingEffectiveNameAndPath(google_breakpad::MappingInfo const&, char*, unsigned long, char*, unsigned long)
FUNC b2b0 119 0 google_breakpad::LinuxDumper::ReadAuxv()
FUNC b3d0 32 0 google_breakpad::LinuxDumper::Init()
FUNC b410 4b 0 google_breakpad::LinuxDumper::FindMapping(void const*) const
FUNC b460 7d 0 google_breakpad::LinuxDumper::GetStackInfo(void const**, unsigned long*, unsigned long)
FUNC b4e0 53 0 google_breakpad::LinuxDumper::HandleDeletedFileInMapping(char*) const
FUNC b540 34b 0 google_breakpad::LinuxDumper::ElfFileIdentifierForMapping(google_breakpad::MappingInfo const&, bool, unsigned int, google_breakpad::wasteful_vector<unsigned char>&)
FUNC b890 930 0 google_breakpad::LinuxDumper::EnumerateMappings()
FUNC c1c0 143 0 google_breakpad::PageAllocator::Alloc(unsigned long)
FUNC c310 288 0 std::vector<google_breakpad::MappingInfo*, google_breakpad::PageStdAllocator<google_breakpad::MappingInfo*> >::_M_default_append(unsigned long)
FUNC c5a0 3 0 google_breakpad::LinuxPtraceDumper::IsPostMortem() const
FUNC c5b0 187 0 google_breakpad::LinuxPtraceDumper::CopyFromProcess(void*, int, void const*, unsigned long)
FUNC c740 bb 0 google_breakpad::LinuxPtraceDumper::BuildProcPath(char*, int, char const*) const
FUNC c800 bc 0 google_breakpad::LinuxPtraceDumper::ThreadsResume()
FUNC c8c0 5fd 0 google_breakpad::LinuxPtraceDumper::EnumerateThreads()
FUNC cec0 51d 0 google_breakpad::LinuxPtraceDumper::GetThreadInfoByIndex(unsigned long, google_breakpad::ThreadInfo*)
FUNC d3e0 27 0 google_breakpad::LinuxPtraceDumper::LinuxPtraceDumper(int)
FUNC d410 251 0 google_breakpad::LinuxPtraceDumper::ThreadsSuspend()
FUNC d670 13 0 google_breakpad::LinuxPtraceDumper::~LinuxPtraceDumper()
FUNC d690 20 0 google_breakpad::LinuxPtraceDumper::~LinuxPtraceDumper()
FUNC d6b0 288 0 std::vector<int, google_breakpad::PageStdAllocator<int> >::_M_default_append(unsigned long)
FUNC d940 e0e 0 MinidumpWriter::WriteThreadListStream
FUNC e750 21d9 0 MinidumpWriter::Dump
FUNC 10930 343 0 google_breakpad::WriteMinidump(char const*, std::__cxx11::list<google_breakpad::MappingEntry, std::allocator<google_breakpad::MappingEntry> > const&, std::__cxx11::list<google_breakpad::AppMemory, std::allocator<google_breakpad::AppMemory> > const&, google_breakpad::LinuxDumper*)
FUNC 10c80 496 0 google_breakpad::WriteMinidump(char const*, int, int)
FUNC 11120 422 0 WriteMinidumpImpl
FUNC 11550 109 0 google_breakpad::WriteMinidump(char const*, int, void const*, unsigned long)
FUNC 11660 109 0 google_breakpad::WriteMinidump(int, int, void const*, unsigned long)
FUNC 11770 26 0 google_breakpad::WriteMinidump(char const*, int, void const*, unsigned long, std::__cxx11::list<google_breakpad::MappingEntry, std::allocator<google_breakpad::MappingEntry> > const&, std::__cxx11::list<google_breakpad::AppMemory, std::allocator<google_breakpad::AppMemory> > const&)
FUNC 117a0 25 0 google_breakpad::WriteMinidump(int, int, void const*, unsigned long, std::__cxx11::list<google_breakpad::MappingEntry, std::allocator<google_breakpad::MappingEntry> > const&, std::__cxx11::list<google_breakpad::AppMemory, std::allocator<google_breakpad::AppMemory> > const&)
FUNC 117d0 24 0 google_breakpad::WriteMinidump(char const*, long, int, void const*, unsigned long, std::__cxx11::list<google_breakpad::MappingEntry, std::allocator<google_breakpad::MappingEntry> > const&, std::__cxx11::list<google_breakpad::AppMemory, std::allocator<google_breakpad::AppMemory> > const&)
FUNC 11800 23 0 google_breakpad::WriteMinidump(int, long, int, void const*, unsigned long, std::__cxx11::list<google_breakpad::MappingEntry, std::allocator<google_breakpad::MappingEntry> > const&, std::__cxx11::list<google_breakpad::AppMemory, std::allocator<google_breakpad::AppMemory> > const&)
FUNC 11830 259 0 google_breakpad::ProcCpuInfoReader::GetNextField(char const**)
FUNC 11a90 257 0 std::vector<char, google_breakpad::PageStdAllocator<char> >::resize(unsigned long)
FUNC 11cf0 250 0 void std::vector<MDMemoryDescriptor, google_breakpad::PageStdAllocator<MDMemoryDescriptor> >::_M_emplace_back_aux<MDMemoryDescriptor const&>(MDMemoryDescriptor const&)
FUNC 11f40 23 0 google_breakpad::TypedMDRVA<MDString>::CopyIndexAfterObject(unsigned int, void const*, unsigned long)
FUNC 11f70 1a 0 google_breakpad::MinidumpFileWriter::MinidumpFileWriter()
FUNC 11f90 78 0 google_breakpad::MinidumpFileWriter::Open(char const*)
FUNC 12010 2c 0 google_breakpad::MinidumpFileWriter::SetFile(int)
FUNC 12040 5d 0 google_breakpad::MinidumpFileWriter::Close()
FUNC 120a0 15 0 google_breakpad::MinidumpFileWriter::~MinidumpFileWriter()
FUNC 120c0 b6 0 google_breakpad::MinidumpFileWriter::Allocate(unsigned long)
FUNC 12180 ff 0 google_breakpad::MinidumpFileWriter::Copy(unsigned int, void const*, long)
FUNC 12280 f0 0 google_breakpad::MinidumpFileWriter::CopyStringToMDString(wchar_t const*, unsigned int, google_breakpad::TypedMDRVA<MDString>*)
FUNC 12370 ef 0 google_breakpad::MinidumpFileWriter::CopyStringToMDString(char const*, unsigned int, google_breakpad::TypedMDRVA<MDString>*)
FUNC 12460 41 0 google_breakpad::UntypedMDRVA::Allocate(unsigned long)
FUNC 124b0 89 0 google_breakpad::UntypedMDRVA::Copy(unsigned int, void const*, unsigned long)
FUNC 12540 df 0 google_breakpad::MinidumpFileWriter::WriteMemory(void const*, unsigned long, MDMemoryDescriptor*)
FUNC 12620 5 0 google_breakpad::MinidumpFileWriter::WriteString(wchar_t const*, unsigned int, MDLocationDescriptor*)
FUNC 12630 5 0 google_breakpad::MinidumpFileWriter::WriteString(char const*, unsigned int, MDLocationDescriptor*)
FUNC 12640 23a 0 bool google_breakpad::MinidumpFileWriter::WriteStringCore<wchar_t>(wchar_t const*, unsigned int, MDLocationDescriptor*)
FUNC 12880 23a 0 bool google_breakpad::MinidumpFileWriter::WriteStringCore<char>(char const*, unsigned int, MDLocationDescriptor*)
FUNC 12ac0 c2 0 void std::__cxx11::basic_string<char, std::char_traits<char>, std::allocator<char> >::_M_construct<char const*>(char const*, char const*, std::forward_iterator_tag)
FUNC 12b90 b1 0 google_breakpad::UTF8ToUTF16Char(char const*, int, unsigned short*)
FUNC 12c50 7b 0 google_breakpad::UTF32ToUTF16Char(wchar_t, unsigned short*)
FUNC 12cd0 173 0 google_breakpad::UTF16ToUTF8[abi:cxx11](std::vector<unsigned short, std::allocator<unsigned short> > const&, bool)
FUNC 12e50 f0 0 google_breakpad::UTF32ToUTF16(wchar_t const*, std::vector<unsigned short, std::allocator<unsigned short> >*)
FUNC 12f40 e8 0 google_breakpad::UTF8ToUTF16(char const*, std::vector<unsigned short, std::allocator<unsigned short> >*)
FUNC 13030 2bd 0 std::vector<unsigned short, std::allocator<unsigned short> >::_M_fill_insert(__gnu_cxx::__normal_iterator<unsigned short*, std::vector<unsigned short, std::allocator<unsigned short> > >, unsigned long, unsigned short const&)
FUNC 132f0 14d 0 std::vector<unsigned short, std::allocator<unsigned short> >::_M_default_append(unsigned long)
FUNC 13440 1f 0 google_breakpad::IsValidElf(void const*)
FUNC 13460 5 0 google_breakpad::ElfClass(void const*)
FUNC 13470 452 0 google_breakpad::FindElfSection(void const*, char const*, unsigned int, void const**, unsigned long*, int*)
FUNC 138d0 287 0 google_breakpad::FindElfSegment(void const*, unsigned int, void const**, unsigned long*, int*)
FUNC 13b60 135 0 google_breakpad::bytes_to_hex_string
FUNC 13ca0 e2 0 google_breakpad::FileID::FileID(char const*)
FUNC 13d90 c7 0 google_breakpad::FileID::ConvertIdentifierToUUIDString[abi:cxx11](google_breakpad::wasteful_vector<unsigned char> const&)
FUNC 13e60 49 0 google_breakpad::FileID::ConvertIdentifierToString[abi:cxx11](google_breakpad::wasteful_vector<unsigned char> const&)
FUNC 13eb0 462 0 google_breakpad::FileID::ElfFileIdentifierFromMappedFile(void const*, google_breakpad::wasteful_vector<unsigned char>&)
FUNC 14320 7c 0 google_breakpad::FileID::ElfFileIdentifier(google_breakpad::wasteful_vector<unsigned char>&)
FUNC 143a0 73 0 CreateGUID(MDGUID*)
FUNC 14420 75 0 GUIDToString(MDGUID const*, char*, int)
FUNC 144a0 16 0 GUIDGenerator::InitOnceImpl()
FUNC 144c0 1e 0 my_strlen
FUNC 144e0 46 0 my_strcmp
FUNC 14530 56 0 my_strncmp
FUNC 14590 4c 0 my_strtoui
FUNC 145e0 39 0 my_uint_len
FUNC 14620 3c 0 my_uitos
FUNC 14660 34 0 my_strchr
FUNC 146a0 26 0 my_strrchr
FUNC 146d0 34 0 my_memchr
FUNC 14710 7c 0 my_read_hex_ptr
FUNC 14790 3a 0 my_read_decimal_ptr
FUNC 147d0 1f 0 my_memset
FUNC 147f0 38 0 my_strlcpy
FUNC 14830 3b 0 my_strlcat
FUNC 14870 6c 0 my_isspace
FUNC 148e0 10 0 google_breakpad::MemoryMappedFile::MemoryMappedFile()
FUNC 148f0 4b 0 google_breakpad::MemoryMappedFile::Unmap()
FUNC 14940 5 0 google_breakpad::MemoryMappedFile::~MemoryMappedFile()
FUNC 14950 1af 0 google_breakpad::MemoryMappedFile::Map(char const*, unsigned long)
FUNC 14b00 14 0 google_breakpad::MemoryMappedFile::MemoryMappedFile(char const*, unsigned long)
FUNC 14b20 40 0 google_breakpad::SafeReadLink(char const*, char*, unsigned long)
FUNC 14b60 2 0 CrashGenerationClientImpl::~CrashGenerationClientImpl
FUNC 14b70 213 0 CrashGenerationClientImpl::RequestDump
FUNC 14d90 5 0 CrashGenerationClientImpl::~CrashGenerationClientImpl
FUNC 14da0 23 0 google_breakpad::CrashGenerationClient::TryCreate(int)
FUNC 14dd0 8 0 google_breakpad::ThreadInfo::GetInstructionPointer() const
FUNC 14de0 2fc 0 google_breakpad::ThreadInfo::FillCPUContext(MDRawContextAMD64*) const
FUNC 150e0 44 0 google_breakpad::ThreadInfo::GetGeneralPurposeRegisters(void**, unsigned long*)
FUNC 15130 47 0 google_breakpad::ThreadInfo::GetFloatingPointRegisters(void**, unsigned long*)
FUNC 15180 8 0 google_breakpad::UContextReader::GetStackPointer(ucontext const*)
FUNC 15190 8 0 google_breakpad::UContextReader::GetInstructionPointer(ucontext const*)
FUNC 151a0 25c 0 google_breakpad::UContextReader::FillCPUContext(MDRawContextAMD64*, ucontext const*, _libc_fpstate const*)
FUNC 15400 c7 0 isLegalUTF8
FUNC 154d0 fd 0 ConvertUTF32toUTF16
FUNC 155d0 118 0 ConvertUTF16toUTF32
FUNC 156f0 1ff 0 ConvertUTF16toUTF8
FUNC 158f0 2b 0 isLegalUTF8Sequence
FUNC 15920 26f 0 ConvertUTF8toUTF16
FUNC 15b90 19a 0 ConvertUTF32toUTF8
FUNC 15d30 287 0 ConvertUTF8toUTF32
PUBLIC 1810 0 _init
PUBLIC 1c20 0 google_breakpad::PageAllocator::FreeAll() [clone .isra.7]
PUBLIC 1c6a 0 google_breakpad::ProcCpuInfoReader::GetValueAndLen(unsigned long*) [clone .isra.20] [clone .part.21]
PUBLIC 1c8a 0 google_breakpad::TypedMDRVA<MDRawDirectory>::CopyIndex(unsigned int, MDRawDirectory*) [clone .isra.32] [clone .part.33]
PUBLIC 1caa 0 google_breakpad::TypedMDRVA<MDRawDirectory>::CopyIndex(unsigned int, MDRawDirectory*) [clone .isra.32]
PUBLIC 1cc8 0 google_breakpad::TypedMDRVA<unsigned int>::CopyIndexAfterObject(unsigned int, void const*, unsigned long) [clone .isra.34] [clone .part.35]
PUBLIC 1ce8 0 (anonymous namespace)::MinidumpWriter::MinidumpWriter(char const*, int, google_breakpad::ExceptionHandler::CrashContext const*, std::__cxx11::list<google_breakpad::MappingEntry, std::allocator<google_breakpad::MappingEntry> > const&, std::__cxx11::list<google_breakpad::AppMemory, std::allocator<google_breakpad::AppMemory> > const&, google_breakpad::LinuxDumper*) [clone .part.93]
PUBLIC 1d08 0 (anonymous namespace)::MinidumpWriter::~MinidumpWriter() [clone .constprop.119]
PUBLIC 1d34 0 (anonymous namespace)::MinidumpWriter::WriteFile(MDLocationDescriptor*, char const*) [clone .constprop.116]
PUBLIC 1f20 0 (anonymous namespace)::MinidumpWriter::WriteProcFile(MDLocationDescriptor*, int, char const*) [clone .constprop.115]
PUBLIC 1f90 0 _start
PUBLIC 1fc0 0 deregister_tm_clones
PUBLIC 2000 0 register_tm_clones
PUBLIC 2040 0 __do_global_dtors_aux
PUBLIC 2060 0 frame_dummy
PUBLIC 2086 0 dumpCallback(google_breakpad::MinidumpDescriptor const&, void*, bool)
PUBLIC 20ce 0 _0()
PUBLIC 227f 0 _1()
PUBLIC 2430 0 _2()
PUBLIC 25e1 0 _3()
PUBLIC 2792 0 _4()
PUBLIC 2943 0 _5()
PUBLIC 2af4 0 _6()
PUBLIC 2ca5 0 _7()
PUBLIC 2e56 0 _8()
PUBLIC 3007 0 _9()
PUBLIC 31b8 0 _A()
PUBLIC 3369 0 _B()
PUBLIC 351a 0 _C()
PUBLIC 36cb 0 _D()
PUBLIC 387c 0 _E()
PUBLIC 3a2d 0 _F()
PUBLIC 3bde 0 _G()
PUBLIC 3d8f 0 _H()
PUBLIC 3f40 0 _I()
PUBLIC 40f1 0 _J()
PUBLIC 42a2 0 _K()
PUBLIC 4453 0 _L()
PUBLIC 4604 0 _M()
PUBLIC 47b5 0 _N()
PUBLIC 4966 0 _O()
PUBLIC 4b17 0 _P()
PUBLIC 4cc8 0 _Q()
PUBLIC 4e79 0 _R()
PUBLIC 502a 0 _S()
PUBLIC 51db 0 _T()
PUBLIC 538c 0 _U()
PUBLIC 553d 0 _V()
PUBLIC 56ee 0 _W()
PUBLIC 589f 0 _X()
PUBLIC 5a50 0 _Y()
PUBLIC 5c01 0 _Z()
PUBLIC 5db2 0 _EQ()
PUBLIC 5f63 0 main
PUBLIC 6262 0 google_breakpad::MicrodumpExtraInfo::MicrodumpExtraInfo()
PUBLIC 629c 0 google_breakpad::MinidumpDescriptor::MinidumpDescriptor(std::__cxx11::basic_string<char, std::char_traits<char>, std::allocator<char> > const&)
PUBLIC 633c 0 google_breakpad::MinidumpDescriptor::path() const
PUBLIC 634e 0 google_breakpad::MinidumpDescriptor::~MinidumpDescriptor()
PUBLIC 6380 0 google_breakpad::ExceptionHandler::InstallHandlersLocked()
PUBLIC 64d0 0 google_breakpad::ExceptionHandler::RestoreHandlersLocked()
PUBLIC 6550 0 google_breakpad::ExceptionHandler::~ExceptionHandler()
PUBLIC 68a0 0 google_breakpad::ExceptionHandler::SendContinueSignalToChild()
PUBLIC 6980 0 google_breakpad::ExceptionHandler::GenerateDump(google_breakpad::ExceptionHandler::CrashContext*)
PUBLIC 6e40 0 google_breakpad::ExceptionHandler::HandleSignal(int, siginfo_t*, void*)
PUBLIC 7020 0 google_breakpad::ExceptionHandler::SignalHandler(int, siginfo_t*, void*)
PUBLIC 71f0 0 google_breakpad::ExceptionHandler::SimulateSignalDelivery(int)
PUBLIC 7270 0 google_breakpad::ExceptionHandler::WaitForContinueSignal()
PUBLIC 7360 0 google_breakpad::ExceptionHandler::DoDump(int, void const*, unsigned long)
PUBLIC 73f0 0 google_breakpad::ExceptionHandler::ThreadEntry(void*)
PUBLIC 7420 0 google_breakpad::ExceptionHandler::WriteMinidump()
PUBLIC 75c0 0 google_breakpad::ExceptionHandler::AddMappingInfo(std::__cxx11::basic_string<char, std::char_traits<char>, std::allocator<char> > const&, unsigned char const*, unsigned long, unsigned long, unsigned long)
PUBLIC 76b0 0 google_breakpad::ExceptionHandler::RegisterAppMemory(void*, unsigned long)
PUBLIC 7750 0 google_breakpad::ExceptionHandler::UnregisterAppMemory(void*)
PUBLIC 77b0 0 google_breakpad::ExceptionHandler::WriteMinidumpForChild(int, int, std::__cxx11::basic_string<char, std::char_traits<char>, std::allocator<char> > const&, bool (*)(google_breakpad::MinidumpDescriptor const&, void*, bool), void*)
PUBLIC 79f0 0 google_breakpad::ExceptionHandler::ExceptionHandler(google_breakpad::MinidumpDescriptor const&, bool (*)(void*), bool (*)(google_breakpad::MinidumpDescriptor const&, void*, bool), void*, bool, int)
PUBLIC 7d90 0 google_breakpad::ExceptionHandler::WriteMinidump(std::__cxx11::basic_string<char, std::char_traits<char>, std::allocator<char> > const&, bool (*)(google_breakpad::MinidumpDescriptor const&, void*, bool), void*)
PUBLIC 8010 0 void std::vector<google_breakpad::ExceptionHandler*, std::allocator<google_breakpad::ExceptionHandler*> >::_M_emplace_back_aux<google_breakpad::ExceptionHandler*>(google_breakpad::ExceptionHandler*&&)
PUBLIC 8100 0 void std::__cxx11::basic_string<char, std::char_traits<char>, std::allocator<char> >::_M_construct<char*>(char*, char*, std::forward_iterator_tag) [clone .isra.16]
PUBLIC 81d0 0 google_breakpad::MinidumpDescriptor::MinidumpDescriptor(google_breakpad::MinidumpDescriptor const&)
PUBLIC 8280 0 google_breakpad::MinidumpDescriptor::UpdatePath()
PUBLIC 85a0 0 google_breakpad::MinidumpDescriptor::operator=(google_breakpad::MinidumpDescriptor const&)
PUBLIC 8650 0 logger::write(char const*, unsigned long)
PUBLIC 8690 0 google_breakpad::WriteMicrodump(int, void const*, unsigned long, std::__cxx11::list<google_breakpad::MappingEntry, std::allocator<google_breakpad::MappingEntry> > const&, google_breakpad::MicrodumpExtraInfo const&)
PUBLIC a150 0 void std::vector<unsigned char, google_breakpad::PageStdAllocator<unsigned char> >::_M_range_insert<unsigned char const*>(__gnu_cxx::__normal_iterator<unsigned char*, std::vector<unsigned char, google_breakpad::PageStdAllocator<unsigned char> > >, unsigned char const*, unsigned char const*, std::forward_iterator_tag)
PUBLIC a540 0 google_breakpad::LinuxDumper::LateInit()
PUBLIC a550 0 google_breakpad::LinuxDumper::LinuxDumper(int, char const*)
PUBLIC ad90 0 google_breakpad::LinuxDumper::~LinuxDumper()
PUBLIC ae00 0 google_breakpad::LinuxDumper::~LinuxDumper()
PUBLIC ae20 0 google_breakpad::LinuxDumper::GetMappingAbsolutePath(google_breakpad::MappingInfo const&, char*) const
PUBLIC ae70 0 google_breakpad::(anonymous namespace)::ElfFileSoName(google_breakpad::LinuxDumper const&, google_breakpad::MappingInfo const&, char*, unsigned long) [clone .constprop.56]
PUBLIC b010 0 google_breakpad::LinuxDumper::HandleDeletedFileInMapping(char*) const [clone .part.10] [clone .constprop.57]
PUBLIC b1c0 0 google_breakpad::LinuxDumper::GetMappingEffectiveNameAndPath(google_breakpad::MappingInfo const&, char*, unsigned long, char*, unsigned long)
PUBLIC b2b0 0 google_breakpad::LinuxDumper::ReadAuxv()
PUBLIC b3d0 0 google_breakpad::LinuxDumper::Init()
PUBLIC b410 0 google_breakpad::LinuxDumper::FindMapping(void const*) const
PUBLIC b460 0 google_breakpad::LinuxDumper::GetStackInfo(void const**, unsigned long*, unsigned long)
PUBLIC b4e0 0 google_breakpad::LinuxDumper::HandleDeletedFileInMapping(char*) const
PUBLIC b540 0 google_breakpad::LinuxDumper::ElfFileIdentifierForMapping(google_breakpad::MappingInfo const&, bool, unsigned int, google_breakpad::wasteful_vector<unsigned char>&)
PUBLIC b890 0 google_breakpad::LinuxDumper::EnumerateMappings()
PUBLIC c1c0 0 google_breakpad::PageAllocator::Alloc(unsigned long)
PUBLIC c310 0 std::vector<google_breakpad::MappingInfo*, google_breakpad::PageStdAllocator<google_breakpad::MappingInfo*> >::_M_default_append(unsigned long)
PUBLIC c5a0 0 google_breakpad::LinuxPtraceDumper::IsPostMortem() const
PUBLIC c5b0 0 google_breakpad::LinuxPtraceDumper::CopyFromProcess(void*, int, void const*, unsigned long)
PUBLIC c740 0 google_breakpad::LinuxPtraceDumper::BuildProcPath(char*, int, char const*) const
PUBLIC c800 0 google_breakpad::LinuxPtraceDumper::ThreadsResume()
PUBLIC c8c0 0 google_breakpad::LinuxPtraceDumper::EnumerateThreads()
PUBLIC cec0 0 google_breakpad::LinuxPtraceDumper::GetThreadInfoByIndex(unsigned long, google_breakpad::ThreadInfo*)
PUBLIC d3e0 0 google_breakpad::LinuxPtraceDumper::LinuxPtraceDumper(int)
PUBLIC d410 0 google_breakpad::LinuxPtraceDumper::ThreadsSuspend()
PUBLIC d670 0 google_breakpad::LinuxPtraceDumper::~LinuxPtraceDumper()
PUBLIC d690 0 google_breakpad::LinuxPtraceDumper::~LinuxPtraceDumper()
PUBLIC d6b0 0 std::vector<int, google_breakpad::PageStdAllocator<int> >::_M_default_append(unsigned long)
PUBLIC d940 0 (anonymous namespace)::MinidumpWriter::WriteThreadListStream(MDRawDirectory*) [clone .constprop.105]
PUBLIC e750 0 (anonymous namespace)::MinidumpWriter::Dump() [clone .constprop.104]
PUBLIC 10930 0 google_breakpad::WriteMinidump(char const*, std::__cxx11::list<google_breakpad::MappingEntry, std::allocator<google_breakpad::MappingEntry> > const&, std::__cxx11::list<google_breakpad::AppMemory, std::allocator<google_breakpad::AppMemory> > const&, google_breakpad::LinuxDumper*)
PUBLIC 10c80 0 google_breakpad::WriteMinidump(char const*, int, int)
PUBLIC 11120 0 (anonymous namespace)::WriteMinidumpImpl(char const*, int, long, int, void const*, unsigned long, std::__cxx11::list<google_breakpad::MappingEntry, std::allocator<google_breakpad::MappingEntry> > const&, std::__cxx11::list<google_breakpad::AppMemory, std::allocator<google_breakpad::AppMemory> > const&)
PUBLIC 11550 0 google_breakpad::WriteMinidump(char const*, int, void const*, unsigned long)
PUBLIC 11660 0 google_breakpad::WriteMinidump(int, int, void const*, unsigned long)
PUBLIC 11770 0 google_breakpad::WriteMinidump(char const*, int, void const*, unsigned long, std::__cxx11::list<google_breakpad::MappingEntry, std::allocator<google_breakpad::MappingEntry> > const&, std::__cxx11::list<google_breakpad::AppMemory, std::allocator<google_breakpad::AppMemory> > const&)
PUBLIC 117a0 0 google_breakpad::WriteMinidump(int, int, void const*, unsigned long, std::__cxx11::list<google_breakpad::MappingEntry, std::allocator<google_breakpad::MappingEntry> > const&, std::__cxx11::list<google_breakpad::AppMemory, std::allocator<google_breakpad::AppMemory> > const&)
PUBLIC 117d0 0 google_breakpad::WriteMinidump(char const*, long, int, void const*, unsigned long, std::__cxx11::list<google_breakpad::MappingEntry, std::allocator<google_breakpad::MappingEntry> > const&, std::__cxx11::list<google_breakpad::AppMemory, std::allocator<google_breakpad::AppMemory> > const&)
PUBLIC 11800 0 google_breakpad::WriteMinidump(int, long, int, void const*, unsigned long, std::__cxx11::list<google_breakpad::MappingEntry, std::allocator<google_breakpad::MappingEntry> > const&, std::__cxx11::list<google_breakpad::AppMemory, std::allocator<google_breakpad::AppMemory> > const&)
PUBLIC 11830 0 google_breakpad::ProcCpuInfoReader::GetNextField(char const**)
PUBLIC 11a90 0 std::vector<char, google_breakpad::PageStdAllocator<char> >::resize(unsigned long)
PUBLIC 11cf0 0 void std::vector<MDMemoryDescriptor, google_breakpad::PageStdAllocator<MDMemoryDescriptor> >::_M_emplace_back_aux<MDMemoryDescriptor const&>(MDMemoryDescriptor const&)
PUBLIC 11f40 0 google_breakpad::TypedMDRVA<MDString>::CopyIndexAfterObject(unsigned int, void const*, unsigned long) [clone .isra.7] [clone .part.8]
PUBLIC 11f70 0 google_breakpad::MinidumpFileWriter::MinidumpFileWriter()
PUBLIC 11f90 0 google_breakpad::MinidumpFileWriter::Open(char const*)
PUBLIC 12010 0 google_breakpad::MinidumpFileWriter::SetFile(int)
PUBLIC 12040 0 google_breakpad::MinidumpFileWriter::Close()
PUBLIC 120a0 0 google_breakpad::MinidumpFileWriter::~MinidumpFileWriter()
PUBLIC 120c0 0 google_breakpad::MinidumpFileWriter::Allocate(unsigned long)
PUBLIC 12180 0 google_breakpad::MinidumpFileWriter::Copy(unsigned int, void const*, long)
PUBLIC 12280 0 google_breakpad::MinidumpFileWriter::CopyStringToMDString(wchar_t const*, unsigned int, google_breakpad::TypedMDRVA<MDString>*)
PUBLIC 12370 0 google_breakpad::MinidumpFileWriter::CopyStringToMDString(char const*, unsigned int, google_breakpad::TypedMDRVA<MDString>*)
PUBLIC 12460 0 google_breakpad::UntypedMDRVA::Allocate(unsigned long)
PUBLIC 124b0 0 google_breakpad::UntypedMDRVA::Copy(unsigned int, void const*, unsigned long)
PUBLIC 12540 0 google_breakpad::MinidumpFileWriter::WriteMemory(void const*, unsigned long, MDMemoryDescriptor*)
PUBLIC 12620 0 google_breakpad::MinidumpFileWriter::WriteString(wchar_t const*, unsigned int, MDLocationDescriptor*)
PUBLIC 12630 0 google_breakpad::MinidumpFileWriter::WriteString(char const*, unsigned int, MDLocationDescriptor*)
PUBLIC 12640 0 bool google_breakpad::MinidumpFileWriter::WriteStringCore<wchar_t>(wchar_t const*, unsigned int, MDLocationDescriptor*)
PUBLIC 12880 0 bool google_breakpad::MinidumpFileWriter::WriteStringCore<char>(char const*, unsigned int, MDLocationDescriptor*)
PUBLIC 12ac0 0 void std::__cxx11::basic_string<char, std::char_traits<char>, std::allocator<char> >::_M_construct<char const*>(char const*, char const*, std::forward_iterator_tag) [clone .isra.34]
PUBLIC 12b90 0 google_breakpad::UTF8ToUTF16Char(char const*, int, unsigned short*)
PUBLIC 12c50 0 google_breakpad::UTF32ToUTF16Char(wchar_t, unsigned short*)
PUBLIC 12cd0 0 google_breakpad::UTF16ToUTF8[abi:cxx11](std::vector<unsigned short, std::allocator<unsigned short> > const&, bool)
PUBLIC 12e50 0 google_breakpad::UTF32ToUTF16(wchar_t const*, std::vector<unsigned short, std::allocator<unsigned short> >*)
PUBLIC 12f40 0 google_breakpad::UTF8ToUTF16(char const*, std::vector<unsigned short, std::allocator<unsigned short> >*)
PUBLIC 13030 0 std::vector<unsigned short, std::allocator<unsigned short> >::_M_fill_insert(__gnu_cxx::__normal_iterator<unsigned short*, std::vector<unsigned short, std::allocator<unsigned short> > >, unsigned long, unsigned short const&)
PUBLIC 132f0 0 std::vector<unsigned short, std::allocator<unsigned short> >::_M_default_append(unsigned long)
PUBLIC 13440 0 google_breakpad::IsValidElf(void const*)
PUBLIC 13460 0 google_breakpad::ElfClass(void const*)
PUBLIC 13470 0 google_breakpad::FindElfSection(void const*, char const*, unsigned int, void const**, unsigned long*, int*)
PUBLIC 138d0 0 google_breakpad::FindElfSegment(void const*, unsigned int, void const**, unsigned long*, int*)
PUBLIC 13b60 0 google_breakpad::bytes_to_hex_string(unsigned char const*, unsigned long)
PUBLIC 13ca0 0 google_breakpad::FileID::FileID(char const*)
PUBLIC 13d90 0 google_breakpad::FileID::ConvertIdentifierToUUIDString[abi:cxx11](google_breakpad::wasteful_vector<unsigned char> const&)
PUBLIC 13e60 0 google_breakpad::FileID::ConvertIdentifierToString[abi:cxx11](google_breakpad::wasteful_vector<unsigned char> const&)
PUBLIC 13eb0 0 google_breakpad::FileID::ElfFileIdentifierFromMappedFile(void const*, google_breakpad::wasteful_vector<unsigned char>&)
PUBLIC 14320 0 google_breakpad::FileID::ElfFileIdentifier(google_breakpad::wasteful_vector<unsigned char>&)
PUBLIC 143a0 0 CreateGUID(MDGUID*)
PUBLIC 14420 0 GUIDToString(MDGUID const*, char*, int)
PUBLIC 144a0 0 GUIDGenerator::InitOnceImpl()
PUBLIC 144c0 0 my_strlen
PUBLIC 144e0 0 my_strcmp
PUBLIC 14530 0 my_strncmp
PUBLIC 14590 0 my_strtoui
PUBLIC 145e0 0 my_uint_len
PUBLIC 14620 0 my_uitos
PUBLIC 14660 0 my_strchr
PUBLIC 146a0 0 my_strrchr
PUBLIC 146d0 0 my_memchr
PUBLIC 14710 0 my_read_hex_ptr
PUBLIC 14790 0 my_read_decimal_ptr
PUBLIC 147d0 0 my_memset
PUBLIC 147f0 0 my_strlcpy
PUBLIC 14830 0 my_strlcat
PUBLIC 14870 0 my_isspace
PUBLIC 148e0 0 google_breakpad::MemoryMappedFile::MemoryMappedFile()
PUBLIC 148f0 0 google_breakpad::MemoryMappedFile::Unmap()
PUBLIC 14940 0 google_breakpad::MemoryMappedFile::~MemoryMappedFile()
PUBLIC 14950 0 google_breakpad::MemoryMappedFile::Map(char const*, unsigned long)
PUBLIC 14b00 0 google_breakpad::MemoryMappedFile::MemoryMappedFile(char const*, unsigned long)
PUBLIC 14b20 0 google_breakpad::SafeReadLink(char const*, char*, unsigned long)
PUBLIC 14b60 0 google_breakpad::(anonymous namespace)::CrashGenerationClientImpl::~CrashGenerationClientImpl()
PUBLIC 14b70 0 google_breakpad::(anonymous namespace)::CrashGenerationClientImpl::RequestDump(void const*, unsigned long)
PUBLIC 14d90 0 google_breakpad::(anonymous namespace)::CrashGenerationClientImpl::~CrashGenerationClientImpl()
PUBLIC 14da0 0 google_breakpad::CrashGenerationClient::TryCreate(int)
PUBLIC 14dd0 0 google_breakpad::ThreadInfo::GetInstructionPointer() const
PUBLIC 14de0 0 google_breakpad::ThreadInfo::FillCPUContext(MDRawContextAMD64*) const
PUBLIC 150e0 0 google_breakpad::ThreadInfo::GetGeneralPurposeRegisters(void**, unsigned long*)
PUBLIC 15130 0 google_breakpad::ThreadInfo::GetFloatingPointRegisters(void**, unsigned long*)
PUBLIC 15180 0 google_breakpad::UContextReader::GetStackPointer(ucontext const*)
PUBLIC 15190 0 google_breakpad::UContextReader::GetInstructionPointer(ucontext const*)
PUBLIC 151a0 0 google_breakpad::UContextReader::FillCPUContext(MDRawContextAMD64*, ucontext const*, _libc_fpstate const*)
PUBLIC 15400 0 isLegalUTF8
PUBLIC 154d0 0 ConvertUTF32toUTF16
PUBLIC 155d0 0 ConvertUTF16toUTF32
PUBLIC 156f0 0 ConvertUTF16toUTF8
PUBLIC 158f0 0 isLegalUTF8Sequence
PUBLIC 15920 0 ConvertUTF8toUTF16
PUBLIC 15b90 0 ConvertUTF32toUTF8
PUBLIC 15d30 0 ConvertUTF8toUTF32
PUBLIC 15fc0 0 __libc_csu_init
PUBLIC 16030 0 __libc_csu_fini
PUBLIC 16034 0 _fini
STACK CFI INIT 1f90 2a .cfa: $rsp 8 + .ra: .cfa -8 + ^
STACK CFI INIT 1830 3e0 .cfa: $rsp 16 + .ra: .cfa -8 + ^
STACK CFI 1836 .cfa: $rsp 24 +
STACK CFI INIT 6262 3a .cfa: $rsp 8 + .ra: .cfa -8 + ^
STACK CFI 6263 $rbp: .cfa -16 + ^ .cfa: $rsp 16 +
STACK CFI 6266 .cfa: $rbp 16 +
STACK CFI 629b .cfa: $rsp 8 +
STACK CFI INIT 629c a0 .cfa: $rsp 8 + .ra: .cfa -8 + ^
STACK CFI 629d $rbp: .cfa -16 + ^ .cfa: $rsp 16 +
STACK CFI 62a0 .cfa: $rbp 16 +
STACK CFI 633b .cfa: $rsp 8 +
STACK CFI INIT 633c 12 .cfa: $rsp 8 + .ra: .cfa -8 + ^
STACK CFI 633d $rbp: .cfa -16 + ^ .cfa: $rsp 16 +
STACK CFI 6340 .cfa: $rbp 16 +
STACK CFI 634d .cfa: $rsp 8 +
STACK CFI INIT 2086 48 .cfa: $rsp 8 + .ra: .cfa -8 + ^
STACK CFI 2087 $rbp: .cfa -16 + ^ .cfa: $rsp 16 +
STACK CFI 208a .cfa: $rbp 16 +
STACK CFI 20cd .cfa: $rsp 8 +
STACK CFI INIT 20ce 1b1 .cfa: $rsp 8 + .ra: .cfa -8 + ^
STACK CFI 20cf $rbp: .cfa -16 + ^ .cfa: $rsp 16 +
STACK CFI 20d2 .cfa: $rbp 16 +
STACK CFI 227e .cfa: $rsp 8 +
STACK CFI INIT 227f 1b1 .cfa: $rsp 8 + .ra: .cfa -8 + ^
STACK CFI 2280 $rbp: .cfa -16 + ^ .cfa: $rsp 16 +
STACK CFI 2283 .cfa: $rbp 16 +
STACK CFI 242f .cfa: $rsp 8 +
STACK CFI INIT 2430 1b1 .cfa: $rsp 8 + .ra: .cfa -8 + ^
STACK CFI 2431 $rbp: .cfa -16 + ^ .cfa: $rsp 16 +
STACK CFI 2434 .cfa: $rbp 16 +
STACK CFI 25e0 .cfa: $rsp 8 +
STACK CFI INIT 25e1 1b1 .cfa: $rsp 8 + .ra: .cfa -8 + ^
STACK CFI 25e2 $rbp: .cfa -16 + ^ .cfa: $rsp 16 +
STACK CFI 25e5 .cfa: $rbp 16 +
STACK CFI 2791 .cfa: $rsp 8 +
STACK CFI INIT 2792 1b1 .cfa: $rsp 8 + .ra: .cfa -8 + ^
STACK CFI 2793 $rbp: .cfa -16 + ^ .cfa: $rsp 16 +
STACK CFI 2796 .cfa: $rbp 16 +
STACK CFI 2942 .cfa: $rsp 8 +
STACK CFI INIT 2943 1b1 .cfa: $rsp 8 + .ra: .cfa -8 + ^
STACK CFI 2944 $rbp: .cfa -16 + ^ .cfa: $rsp 16 +
STACK CFI 2947 .cfa: $rbp 16 +
STACK CFI 2af3 .cfa: $rsp 8 +
STACK CFI INIT 2af4 1b1 .cfa: $rsp 8 + .ra: .cfa -8 + ^
STACK CFI 2af5 $rbp: .cfa -16 + ^ .cfa: $rsp 16 +
STACK CFI 2af8 .cfa: $rbp 16 +
STACK CFI 2ca4 .cfa: $rsp 8 +
STACK CFI INIT 2ca5 1b1 .cfa: $rsp 8 + .ra: .cfa -8 + ^
STACK CFI 2ca6 $rbp: .cfa -16 + ^ .cfa: $rsp 16 +
STACK CFI 2ca9 .cfa: $rbp 16 +
STACK CFI 2e55 .cfa: $rsp 8 +
STACK CFI INIT 2e56 1b1 .cfa: $rsp 8 + .ra: .cfa -8 + ^
STACK CFI 2e57 $rbp: .cfa -16 + ^ .cfa: $rsp 16 +
STACK CFI 2e5a .cfa: $rbp 16 +
STACK CFI 3006 .cfa: $rsp 8 +
STACK CFI INIT 3007 1b1 .cfa: $rsp 8 + .ra: .cfa -8 + ^
STACK CFI 3008 $rbp: .cfa -16 + ^ .cfa: $rsp 16 +
STACK CFI 300b .cfa: $rbp 16 +
STACK CFI 31b7 .cfa: $rsp 8 +
STACK CFI INIT 31b8 1b1 .cfa: $rsp 8 + .ra: .cfa -8 + ^
STACK CFI 31b9 $rbp: .cfa -16 + ^ .cfa: $rsp 16 +
STACK CFI 31bc .cfa: $rbp 16 +
STACK CFI 3368 .cfa: $rsp 8 +
STACK CFI INIT 3369 1b1 .cfa: $rsp 8 + .ra: .cfa -8 + ^
STACK CFI 336a $rbp: .cfa -16 + ^ .cfa: $rsp 16 +
STACK CFI 336d .cfa: $rbp 16 +
STACK CFI 3519 .cfa: $rsp 8 +
STACK CFI INIT 351a 1b1 .cfa: $rsp 8 + .ra: .cfa -8 + ^
STACK CFI 351b $rbp: .cfa -16 + ^ .cfa: $rsp 16 +
STACK CFI 351e .cfa: $rbp 16 +
STACK CFI 36ca .cfa: $rsp 8 +
STACK CFI INIT 36cb 1b1 .cfa: $rsp 8 + .ra: .cfa -8 + ^
STACK CFI 36cc $rbp: .cfa -16 + ^ .cfa: $rsp 16 +
STACK CFI 36cf .cfa: $rbp 16 +
STACK CFI 387b .cfa: $rsp 8 +
STACK CFI INIT 387c 1b1 .cfa: $rsp 8 + .ra: .cfa -8 + ^
STACK CFI 387d $rbp: .cfa -16 + ^ .cfa: $rsp 16 +
STACK CFI 3880 .cfa: $rbp 16 +
STACK CFI 3a2c .cfa: $rsp 8 +
STACK CFI INIT 3a2d 1b1 .cfa: $rsp 8 + .ra: .cfa -8 + ^
STACK CFI 3a2e $rbp: .cfa -16 + ^ .cfa: $rsp 16 +
STACK CFI 3a31 .cfa: $rbp 16 +
STACK CFI 3bdd .cfa: $rsp 8 +
STACK CFI INIT 3bde 1b1 .cfa: $rsp 8 + .ra: .cfa -8 + ^
STACK CFI 3bdf $rbp: .cfa -16 + ^ .cfa: $rsp 16 +
STACK CFI 3be2 .cfa: $rbp 16 +
STACK CFI 3d8e .cfa: $rsp 8 +
STACK CFI INIT 3d8f 1b1 .cfa: $rsp 8 + .ra: .cfa -8 + ^
STACK CFI 3d90 $rbp: .cfa -16 + ^ .cfa: $rsp 16 +
STACK CFI 3d93 .cfa: $rbp 16 +
STACK CFI 3f3f .cfa: $rsp 8 +
STACK CFI INIT 3f40 1b1 .cfa: $rsp 8 + .ra: .cfa -8 + ^
STACK CFI 3f41 $rbp: .cfa -16 + ^ .cfa: $rsp 16 +
STACK CFI 3f44 .cfa: $rbp 16 +
STACK CFI 40f0 .cfa: $rsp 8 +
STACK CFI INIT 40f1 1b1 .cfa: $rsp 8 + .ra: .cfa -8 + ^
STACK CFI 40f2 $rbp: .cfa -16 + ^ .cfa: $rsp 16 +
STACK CFI 40f5 .cfa: $rbp 16 +
STACK CFI 42a1 .cfa: $rsp 8 +
STACK CFI INIT 42a2 1b1 .cfa: $rsp 8 + .ra: .cfa -8 + ^
STACK CFI 42a3 $rbp: .cfa -16 + ^ .cfa: $rsp 16 +
STACK CFI 42a6 .cfa: $rbp 16 +
STACK CFI 4452 .cfa: $rsp 8 +
STACK CFI INIT 4453 1b1 .cfa: $rsp 8 + .ra: .cfa -8 + ^
STACK CFI 4454 $rbp: .cfa -16 + ^ .cfa: $rsp 16 +
STACK CFI 4457 .cfa: $rbp 16 +
STACK CFI 4603 .cfa: $rsp 8 +
STACK CFI INIT 4604 1b1 .cfa: $rsp 8 + .ra: .cfa -8 + ^
STACK CFI 4605 $rbp: .cfa -16 + ^ .cfa: $rsp 16 +
STACK CFI 4608 .cfa: $rbp 16 +
STACK CFI 47b4 .cfa: $rsp 8 +
STACK CFI INIT 47b5 1b1 .cfa: $rsp 8 + .ra: .cfa -8 + ^
STACK CFI 47b6 $rbp: .cfa -16 + ^ .cfa: $rsp 16 +
STACK CFI 47b9 .cfa: $rbp 16 +
STACK CFI 4965 .cfa: $rsp 8 +
STACK CFI INIT 4966 1b1 .cfa: $rsp 8 + .ra: .cfa -8 + ^
STACK CFI 4967 $rbp: .cfa -16 + ^ .cfa: $rsp 16 +
STACK CFI 496a .cfa: $rbp 16 +
STACK CFI 4b16 .cfa: $rsp 8 +
STACK CFI INIT 4b17 1b1 .cfa: $rsp 8 + .ra: .cfa -8 + ^
STACK CFI 4b18 $rbp: .cfa -16 + ^ .cfa: $rsp 16 +
STACK CFI 4b1b .cfa: $rbp 16 +
STACK CFI 4cc7 .cfa: $rsp 8 +
STACK CFI INIT 4cc8 1b1 .cfa: $rsp 8 + .ra: .cfa -8 + ^
STACK CFI 4cc9 $rbp: .cfa -16 + ^ .cfa: $rsp 16 +
STACK CFI 4ccc .cfa: $rbp 16 +
STACK CFI 4e78 .cfa: $rsp 8 +
STACK CFI INIT 4e79 1b1 .cfa: $rsp 8 + .ra: .cfa -8 + ^
STACK CFI 4e7a $rbp: .cfa -16 + ^ .cfa: $rsp 16 +
STACK CFI 4e7d .cfa: $rbp 16 +
STACK CFI 5029 .cfa: $rsp 8 +
STACK CFI INIT 502a 1b1 .cfa: $rsp 8 + .ra: .cfa -8 + ^
STACK CFI 502b $rbp: .cfa -16 + ^ .cfa: $rsp 16 +
STACK CFI 502e .cfa: $rbp 16 +
STACK CFI 51da .cfa: $rsp 8 +
STACK CFI INIT 51db 1b1 .cfa: $rsp 8 + .ra: .cfa -8 + ^
STACK CFI 51dc $rbp: .cfa -16 + ^ .cfa: $rsp 16 +
STACK CFI 51df .cfa: $rbp 16 +
STACK CFI 538b .cfa: $rsp 8 +
STACK CFI INIT 538c 1b1 .cfa: $rsp 8 + .ra: .cfa -8 + ^
STACK CFI 538d $rbp: .cfa -16 + ^ .cfa: $rsp 16 +
STACK CFI 5390 .cfa: $rbp 16 +
STACK CFI 553c .cfa: $rsp 8 +
STACK CFI INIT 553d 1b1 .cfa: $rsp 8 + .ra: .cfa -8 + ^
STACK CFI 553e $rbp: .cfa -16 + ^ .cfa: $rsp 16 +
STACK CFI 5541 .cfa: $rbp 16 +
STACK CFI 56ed .cfa: $rsp 8 +
STACK CFI INIT 56ee 1b1 .cfa: $rsp 8 + .ra: .cfa -8 + ^
STACK CFI 56ef $rbp: .cfa -16 + ^ .cfa: $rsp 16 +
STACK CFI 56f2 .cfa: $rbp 16 +
STACK CFI 589e .cfa: $rsp 8 +
STACK CFI INIT 589f 1b1 .cfa: $rsp 8 + .ra: .cfa -8 + ^
STACK CFI 58a0 $rbp: .cfa -16 + ^ .cfa: $rsp 16 +
STACK CFI 58a3 .cfa: $rbp 16 +
STACK CFI 5a4f .cfa: $rsp 8 +
STACK CFI INIT 5a50 1b1 .cfa: $rsp 8 + .ra: .cfa -8 + ^
STACK CFI 5a51 $rbp: .cfa -16 + ^ .cfa: $rsp 16 +
STACK CFI 5a54 .cfa: $rbp 16 +
STACK CFI 5c00 .cfa: $rsp 8 +
STACK CFI INIT 5c01 1b1 .cfa: $rsp 8 + .ra: .cfa -8 + ^
STACK CFI 5c02 $rbp: .cfa -16 + ^ .cfa: $rsp 16 +
STACK CFI 5c05 .cfa: $rbp 16 +
STACK CFI 5db1 .cfa: $rsp 8 +
STACK CFI INIT 5db2 1b1 .cfa: $rsp 8 + .ra: .cfa -8 + ^
STACK CFI 5db3 $rbp: .cfa -16 + ^ .cfa: $rsp 16 +
STACK CFI 5db6 .cfa: $rbp 16 +
STACK CFI 5f62 .cfa: $rsp 8 +
STACK CFI INIT 634e 2f .cfa: $rsp 8 + .ra: .cfa -8 + ^
STACK CFI 634f $rbp: .cfa -16 + ^ .cfa: $rsp 16 +
STACK CFI 6352 .cfa: $rbp 16 +
STACK CFI 637c .cfa: $rsp 8 +
STACK CFI INIT 5f63 2fe .cfa: $rsp 8 + .ra: .cfa -8 + ^
STACK CFI 5f64 $rbp: .cfa -16 + ^ .cfa: $rsp 16 +
STACK CFI 5f67 .cfa: $rbp 16 +
STACK CFI 5f6f $rbx: .cfa -24 + ^
STACK CFI 6260 .cfa: $rsp 8 +
STACK CFI INIT 6380 14b .cfa: $rsp 8 + .ra: .cfa -8 + ^
STACK CFI 6382 $r14: .cfa -16 + ^ .cfa: $rsp 16 +
STACK CFI 6384 $r13: .cfa -24 + ^ .cfa: $rsp 24 +
STACK CFI 6386 $r12: .cfa -32 + ^ .cfa: $rsp 32 +
STACK CFI 6387 $rbp: .cfa -40 + ^ .cfa: $rsp 40 +
STACK CFI 6388 $rbx: .cfa -48 + ^ .cfa: $rsp 48 +
STACK CFI 638f .cfa: $rsp 208 +
STACK CFI 6420 .cfa: $rsp 48 +
STACK CFI 6421 .cfa: $rsp 40 +
STACK CFI 6422 .cfa: $rsp 32 +
STACK CFI 6424 .cfa: $rsp 24 +
STACK CFI 6426 .cfa: $rsp 16 +
STACK CFI 6428 .cfa: $rsp 8 +
STACK CFI 6430 .cfa: $rsp 208 +
STACK CFI INIT 64d0 7c .cfa: $rsp 8 + .ra: .cfa -8 + ^
STACK CFI 64db $r13: .cfa -16 + ^ .cfa: $rsp 16 +
STACK CFI 64dd $r12: .cfa -24 + ^ .cfa: $rsp 24 +
STACK CFI 64e5 $rbp: .cfa -32 + ^ .cfa: $rsp 32 +
STACK CFI 64e6 $rbx: .cfa -40 + ^ .cfa: $rsp 40 +
STACK CFI 64fe .cfa: $rsp 48 +
STACK CFI 6531 .cfa: $rsp 40 +
STACK CFI 6532 $rbx: $rbx .cfa: $rsp 32 +
STACK CFI 6533 $rbp: $rbp .cfa: $rsp 24 +
STACK CFI 6535 $r12: $r12 .cfa: $rsp 16 +
STACK CFI 6537 $r13: $r13 .cfa: $rsp 8 +
STACK CFI 6540 $r12: .cfa -24 + ^ $r13: .cfa -16 + ^ $rbp: .cfa -32 + ^ $rbx: .cfa -40 + ^ .cfa: $rsp 48 +
STACK CFI INIT 6550 341 .cfa: $rsp 8 + .ra: .cfa -8 + ^
STACK CFI 6552 $r12: .cfa -16 + ^ .cfa: $rsp 16 +
STACK CFI 6553 $rbp: .cfa -24 + ^ .cfa: $rsp 24 +
STACK CFI 6554 $rbx: .cfa -32 + ^ .cfa: $rsp 32 +
STACK CFI 6562 .cfa: $rsp 96 +
STACK CFI 6713 .cfa: $rsp 32 +
STACK CFI 6714 .cfa: $rsp 24 +
STACK CFI 6715 .cfa: $rsp 16 +
STACK CFI 6717 .cfa: $rsp 8 +
STACK CFI 6720 .cfa: $rsp 96 +
STACK CFI INIT 68a0 d1 .cfa: $rsp 8 + .ra: .cfa -8 + ^
STACK CFI 68a2 $r15: .cfa -16 + ^ .cfa: $rsp 16 +
STACK CFI 68a4 $r14: .cfa -24 + ^ .cfa: $rsp 24 +
STACK CFI 68a9 $r13: .cfa -32 + ^ .cfa: $rsp 32 +
STACK CFI 68ab $r12: .cfa -40 + ^ .cfa: $rsp 40 +
STACK CFI 68b3 $rbp: .cfa -48 + ^ .cfa: $rsp 48 +
STACK CFI 68b4 $rbx: .cfa -56 + ^ .cfa: $rsp 56 +
STACK CFI 68c3 .cfa: $rsp 64 +
STACK CFI 68ee .cfa: $rsp 56 +
STACK CFI 68ef .cfa: $rsp 48 +
STACK CFI 68f0 .cfa: $rsp 40 +
STACK CFI 68f2 .cfa: $rsp 32 +
STACK CFI 68f4 .cfa: $rsp 24 +
STACK CFI 68f6 .cfa: $rsp 16 +
STACK CFI 68f8 .cfa: $rsp 8 +
STACK CFI 6900 .cfa: $rsp 64 +
STACK CFI 694c .cfa: $rsp 56 +
STACK CFI 6959 .cfa: $rsp 48 +
STACK CFI 695a .cfa: $rsp 40 +
STACK CFI 695c .cfa: $rsp 32 +
STACK CFI 695e .cfa: $rsp 24 +
STACK CFI 6960 .cfa: $rsp 16 +
STACK CFI 6962 .cfa: $rsp 8 +
STACK CFI 6967 .cfa: $rsp 64 +
STACK CFI INIT 6980 4bc .cfa: $rsp 8 + .ra: .cfa -8 + ^
STACK CFI 6982 $r15: .cfa -16 + ^ .cfa: $rsp 16 +
STACK CFI 6984 $r14: .cfa -24 + ^ .cfa: $rsp 24 +
STACK CFI 6986 $r13: .cfa -32 + ^ .cfa: $rsp 32 +
STACK CFI 6988 $r12: .cfa -40 + ^ .cfa: $rsp 40 +
STACK CFI 6989 $rbp: .cfa -48 + ^ .cfa: $rsp 48 +
STACK CFI 698a $rbx: .cfa -56 + ^ .cfa: $rsp 56 +
STACK CFI 6994 .cfa: $rsp 144 +
STACK CFI 69d4 .cfa: $rsp 56 +
STACK CFI 69d5 .cfa: $rsp 48 +
STACK CFI 69d6 .cfa: $rsp 40 +
STACK CFI 69d8 .cfa: $rsp 32 +
STACK CFI 69da .cfa: $rsp 24 +
STACK CFI 69dc .cfa: $rsp 16 +
STACK CFI 69de .cfa: $rsp 8 +
STACK CFI 69e0 .cfa: $rsp 144 +
STACK CFI INIT 6e40 1da .cfa: $rsp 8 + .ra: .cfa -8 + ^
STACK CFI 6e42 $r13: .cfa -16 + ^ .cfa: $rsp 16 +
STACK CFI 6e44 $r12: .cfa -24 + ^ .cfa: $rsp 24 +
STACK CFI 6e48 $rbp: .cfa -32 + ^ .cfa: $rsp 32 +
STACK CFI 6e49 $rbx: .cfa -40 + ^ .cfa: $rsp 40 +
STACK CFI 6e53 .cfa: $rsp 48 +
STACK CFI 6e69 .cfa: $rsp 40 +
STACK CFI 6e6a .cfa: $rsp 32 +
STACK CFI 6e6b .cfa: $rsp 24 +
STACK CFI 6e6d .cfa: $rsp 16 +
STACK CFI 6e6f .cfa: $rsp 8 +
STACK CFI 6e70 .cfa: $rsp 48 +
STACK CFI 6fdd .cfa: $rsp 40 +
STACK CFI 6fe8 .cfa: $rsp 32 +
STACK CFI 6fe9 .cfa: $rsp 24 +
STACK CFI 6feb .cfa: $rsp 16 +
STACK CFI 6fed .cfa: $rsp 8 +
STACK CFI 6ff8 .cfa: $rsp 48 +
STACK CFI INIT 7020 1c1 .cfa: $rsp 8 + .ra: .cfa -8 + ^
STACK CFI 7022 $r14: .cfa -16 + ^ .cfa: $rsp 16 +
STACK CFI 7024 $r13: .cfa -24 + ^ .cfa: $rsp 24 +
STACK CFI 7029 $r12: .cfa -32 + ^ .cfa: $rsp 32 +
STACK CFI 702a $rbp: .cfa -40 + ^ .cfa: $rsp 40 +
STACK CFI 702e $rbx: .cfa -48 + ^ .cfa: $rsp 48 +
STACK CFI 703f .cfa: $rsp 208 +
STACK CFI 711a .cfa: $rsp 48 +
STACK CFI 711b .cfa: $rsp 40 +
STACK CFI 711c .cfa: $rsp 32 +
STACK CFI 711e .cfa: $rsp 24 +
STACK CFI 7120 .cfa: $rsp 16 +
STACK CFI 7122 .cfa: $rsp 8 +
STACK CFI 7128 .cfa: $rsp 208 +
STACK CFI INIT 71f0 7f .cfa: $rsp 8 + .ra: .cfa -8 + ^
STACK CFI 71f7 .cfa: $rsp 1104 +
STACK CFI 7269 .cfa: $rsp 8 +
STACK CFI 726a .cfa: $rsp 1104 +
STACK CFI INIT 7270 e5 .cfa: $rsp 8 + .ra: .cfa -8 + ^
STACK CFI 7272 $r15: .cfa -16 + ^ .cfa: $rsp 16 +
STACK CFI 7274 $r14: .cfa -24 + ^ .cfa: $rsp 24 +
STACK CFI 7279 $r13: .cfa -32 + ^ .cfa: $rsp 32 +
STACK CFI 727b $r12: .cfa -40 + ^ .cfa: $rsp 40 +
STACK CFI 727f $rbp: .cfa -48 + ^ .cfa: $rsp 48 +
STACK CFI 7280 $rbx: .cfa -56 + ^ .cfa: $rsp 56 +
STACK CFI 7289 .cfa: $rsp 80 +
STACK CFI 72da .cfa: $rsp 56 +
STACK CFI 72db .cfa: $rsp 48 +
STACK CFI 72dc .cfa: $rsp 40 +
STACK CFI 72de .cfa: $rsp 32 +
STACK CFI 72e0 .cfa: $rsp 24 +
STACK CFI 72e2 .cfa: $rsp 16 +
STACK CFI 72e4 .cfa: $rsp 8 +
STACK CFI 72e8 .cfa: $rsp 80 +
STACK CFI INIT 7360 8b .cfa: $rsp 8 + .ra: .cfa -8 + ^
STACK CFI 7376 .cfa: $rsp 16 +
STACK CFI 7396 .cfa: $rsp 24 +
STACK CFI 739c .cfa: $rsp 32 +
STACK CFI 73a9 .cfa: $rsp 24 +
STACK CFI 73aa .cfa: $rsp 16 +
STACK CFI 73ae .cfa: $rsp 8 +
STACK CFI 73c8 .cfa: $rsp 16 +
STACK CFI 73d3 .cfa: $rsp 24 +
STACK CFI 73d8 .cfa: $rsp 32 +
STACK CFI 73e5 .cfa: $rsp 24 +
STACK CFI 73e6 .cfa: $rsp 16 +
STACK CFI 73ea .cfa: $rsp 8 +
STACK CFI INIT 73f0 28 .cfa: $rsp 8 + .ra: .cfa -8 + ^
STACK CFI 73f1 $rbx: .cfa -16 + ^ .cfa: $rsp 16 +
STACK CFI 7417 .cfa: $rsp 8 +
STACK CFI INIT 7420 195 .cfa: $rsp 8 + .ra: .cfa -8 + ^
STACK CFI 7421 $rbx: .cfa -16 + ^ .cfa: $rsp 16 +
STACK CFI 7428 .cfa: $rsp 1632 +
STACK CFI 74be .cfa: $rsp 16 +
STACK CFI 74bf .cfa: $rsp 8 +
STACK CFI 74c0 .cfa: $rsp 1632 +
STACK CFI INIT 75c0 e3 .cfa: $rsp 8 + .ra: .cfa -8 + ^
STACK CFI 75c2 $r14: .cfa -16 + ^ .cfa: $rsp 16 +
STACK CFI 75c4 $r13: .cfa -24 + ^ .cfa: $rsp 24 +
STACK CFI 75c8 $rbp: .cfa -32 + ^ .cfa: $rsp 32 +
STACK CFI 75c9 $rbx: .cfa -40 + ^ .cfa: $rsp 40 +
STACK CFI 75d8 .cfa: $rsp 640 +
STACK CFI 7697 .cfa: $rsp 40 +
STACK CFI 7698 .cfa: $rsp 32 +
STACK CFI 7699 .cfa: $rsp 24 +
STACK CFI 769b .cfa: $rsp 16 +
STACK CFI 769d .cfa: $rsp 8 +
STACK CFI 769e .cfa: $rsp 640 +
STACK CFI INIT 76b0 91 .cfa: $rsp 8 + .ra: .cfa -8 + ^
STACK CFI 76b2 $r13: .cfa -16 + ^ .cfa: $rsp 16 +
STACK CFI 76b4 $r12: .cfa -24 + ^ .cfa: $rsp 24 +
STACK CFI 76b5 $rbp: .cfa -32 + ^ .cfa: $rsp 32 +
STACK CFI 76b6 $rbx: .cfa -40 + ^ .cfa: $rsp 40 +
STACK CFI 76c1 .cfa: $rsp 48 +
STACK CFI 76ea .cfa: $rsp 40 +
STACK CFI 76eb .cfa: $rsp 32 +
STACK CFI 76ec .cfa: $rsp 24 +
STACK CFI 76ee .cfa: $rsp 16 +
STACK CFI 76f0 .cfa: $rsp 8 +
STACK CFI 76f8 .cfa: $rsp 48 +
STACK CFI 773a .cfa: $rsp 40 +
STACK CFI 773b .cfa: $rsp 32 +
STACK CFI 773c .cfa: $rsp 24 +
STACK CFI 773e .cfa: $rsp 16 +
STACK CFI 7740 .cfa: $rsp 8 +
STACK CFI INIT 7750 52 .cfa: $rsp 8 + .ra: .cfa -8 + ^
STACK CFI 7751 $rbx: .cfa -16 + ^ .cfa: $rsp 16 +
STACK CFI 7792 .cfa: $rsp 8 +
STACK CFI 77a0 .cfa: $rsp 16 +
STACK CFI 77a1 .cfa: $rsp 8 +
STACK CFI INIT 77b0 23d .cfa: $rsp 8 + .ra: .cfa -8 + ^
STACK CFI 77b2 $r15: .cfa -16 + ^ .cfa: $rsp 16 +
STACK CFI 77b4 $r14: .cfa -24 + ^ .cfa: $rsp 24 +
STACK CFI 77b9 $r13: .cfa -32 + ^ .cfa: $rsp 32 +
STACK CFI 77bb $r12: .cfa -40 + ^ .cfa: $rsp 40 +
STACK CFI 77bf $rbp: .cfa -48 + ^ .cfa: $rsp 48 +
STACK CFI 77c0 $rbx: .cfa -56 + ^ .cfa: $rsp 56 +
STACK CFI 77d0 .cfa: $rsp 224 +
STACK CFI 7932 .cfa: $rsp 56 +
STACK CFI 7933 .cfa: $rsp 48 +
STACK CFI 7934 .cfa: $rsp 40 +
STACK CFI 7936 .cfa: $rsp 32 +
STACK CFI 7938 .cfa: $rsp 24 +
STACK CFI 793a .cfa: $rsp 16 +
STACK CFI 793c .cfa: $rsp 8 +
STACK CFI 7940 .cfa: $rsp 224 +
STACK CFI INIT 8010 ea .cfa: $rsp 8 + .ra: .cfa -8 + ^
STACK CFI 8012 $r15: .cfa -16 + ^ .cfa: $rsp 16 +
STACK CFI 8014 $r14: .cfa -24 + ^ .cfa: $rsp 24 +
STACK CFI 8019 $r13: .cfa -32 + ^ .cfa: $rsp 32 +
STACK CFI 801b $r12: .cfa -40 + ^ .cfa: $rsp 40 +
STACK CFI 801f $rbp: .cfa -48 + ^ .cfa: $rsp 48 +
STACK CFI 8020 $rbx: .cfa -56 + ^ .cfa: $rsp 56 +
STACK CFI 8024 .cfa: $rsp 64 +
STACK CFI 80aa .cfa: $rsp 56 +
STACK CFI 80ab .cfa: $rsp 48 +
STACK CFI 80ac .cfa: $rsp 40 +
STACK CFI 80ae .cfa: $rsp 32 +
STACK CFI 80b0 .cfa: $rsp 24 +
STACK CFI 80b2 .cfa: $rsp 16 +
STACK CFI 80b4 .cfa: $rsp 8 +
STACK CFI 80b8 .cfa: $rsp 64 +
STACK CFI INIT 79f0 396 .cfa: $rsp 8 + .ra: .cfa -8 + ^
STACK CFI 79f2 $r15: .cfa -16 + ^ .cfa: $rsp 16 +
STACK CFI 79f4 $r14: .cfa -24 + ^ .cfa: $rsp 24 +
STACK CFI 79f9 $r13: .cfa -32 + ^ .cfa: $rsp 32 +
STACK CFI 79ff $r12: .cfa -40 + ^ .cfa: $rsp 40 +
STACK CFI 7a00 $rbp: .cfa -48 + ^ .cfa: $rsp 48 +
STACK CFI 7a01 $rbx: .cfa -56 + ^ .cfa: $rsp 56 +
STACK CFI 7a08 .cfa: $rsp 80 +
STACK CFI 7b4e .cfa: $rsp 56 +
STACK CFI 7b4f .cfa: $rsp 48 +
STACK CFI 7b50 .cfa: $rsp 40 +
STACK CFI 7b52 .cfa: $rsp 32 +
STACK CFI 7b54 .cfa: $rsp 24 +
STACK CFI 7b56 .cfa: $rsp 16 +
STACK CFI 7b58 .cfa: $rsp 8 +
STACK CFI 7b60 .cfa: $rsp 80 +
STACK CFI INIT 7d90 27d .cfa: $rsp 8 + .ra: .cfa -8 + ^
STACK CFI 7d91 $rbp: .cfa -16 + ^ .cfa: $rsp 16 +
STACK CFI 7d94 .cfa: $rbp 16 +
STACK CFI 7d9c $r12: .cfa -48 + ^ $r13: .cfa -40 + ^ $r14: .cfa -32 + ^ $r15: .cfa -24 + ^
STACK CFI 7da0 $rbx: .cfa -56 + ^
STACK CFI 7f51 .cfa: $rsp 8 +
STACK CFI 7f58 .cfa: $rbp 16 +
STACK CFI INIT 8100 c2 .cfa: $rsp 8 + .ra: .cfa -8 + ^
STACK CFI 8102 $r12: .cfa -16 + ^ .cfa: $rsp 16 +
STACK CFI 8103 $rbp: .cfa -24 + ^ .cfa: $rsp 24 +
STACK CFI 8107 $rbx: .cfa -32 + ^ .cfa: $rsp 32 +
STACK CFI 810e .cfa: $rsp 48 +
STACK CFI 817a .cfa: $rsp 32 +
STACK CFI 817b .cfa: $rsp 24 +
STACK CFI 817c .cfa: $rsp 16 +
STACK CFI 817e .cfa: $rsp 8 +
STACK CFI 8180 .cfa: $rsp 48 +
STACK CFI INIT 81d0 a4 .cfa: $rsp 8 + .ra: .cfa -8 + ^
STACK CFI 81d1 $rbp: .cfa -16 + ^ .cfa: $rsp 16 +
STACK CFI 81d2 $rbx: .cfa -24 + ^ .cfa: $rsp 24 +
STACK CFI 81e0 .cfa: $rsp 32 +
STACK CFI 8252 .cfa: $rsp 24 +
STACK CFI 8253 .cfa: $rsp 16 +
STACK CFI 8254 .cfa: $rsp 8 +
STACK CFI 8255 .cfa: $rsp 32 +
STACK CFI INIT 8280 317 .cfa: $rsp 8 + .ra: .cfa -8 + ^
STACK CFI 8282 $r13: .cfa -16 + ^ .cfa: $rsp 16 +
STACK CFI 8284 $r12: .cfa -24 + ^ .cfa: $rsp 24 +
STACK CFI 8285 $rbp: .cfa -32 + ^ .cfa: $rsp 32 +
STACK CFI 8286 $rbx: .cfa -40 + ^ .cfa: $rsp 40 +
STACK CFI 828d .cfa: $rsp 208 +
STACK CFI 84d9 .cfa: $rsp 40 +
STACK CFI 84da .cfa: $rsp 32 +
STACK CFI 84db .cfa: $rsp 24 +
STACK CFI 84dd .cfa: $rsp 16 +
STACK CFI 84df .cfa: $rsp 8 +
STACK CFI 84e0 .cfa: $rsp 208 +
STACK CFI INIT 85a0 a2 .cfa: $rsp 8 + .ra: .cfa -8 + ^
STACK CFI 85a1 $rbp: .cfa -16 + ^ .cfa: $rsp 16 +
STACK CFI 85a2 $rbx: .cfa -24 + ^ .cfa: $rsp 24 +
STACK CFI 85a6 .cfa: $rsp 32 +
STACK CFI 861d .cfa: $rsp 24 +
STACK CFI 8621 .cfa: $rsp 16 +
STACK CFI 8622 .cfa: $rsp 8 +
STACK CFI 8623 .cfa: $rsp 32 +
STACK CFI INIT 8650 33 .cfa: $rsp 8 + .ra: .cfa -8 + ^
STACK CFI 865c $rbx: .cfa -16 + ^ .cfa: $rsp 16 +
STACK CFI 8682 .cfa: $rsp 8 +
STACK CFI INIT a150 3ea .cfa: $rsp 8 + .ra: .cfa -8 + ^
STACK CFI a15b $r15: .cfa -16 + ^ .cfa: $rsp 16 +
STACK CFI a15d $r14: .cfa -24 + ^ .cfa: $rsp 24 +
STACK CFI a162 $r13: .cfa -32 + ^ .cfa: $rsp 32 +
STACK CFI a164 $r12: .cfa -40 + ^ .cfa: $rsp 40 +
STACK CFI a168 $rbp: .cfa -48 + ^ .cfa: $rsp 48 +
STACK CFI a169 $rbx: .cfa -56 + ^ .cfa: $rsp 56 +
STACK CFI a179 .cfa: $rsp 96 +
STACK CFI a1ec .cfa: $rsp 56 +
STACK CFI a1ed $rbx: $rbx .cfa: $rsp 48 +
STACK CFI a1ee $rbp: $rbp .cfa: $rsp 40 +
STACK CFI a1f0 $r12: $r12 .cfa: $rsp 32 +
STACK CFI a1f2 $r13: $r13 .cfa: $rsp 24 +
STACK CFI a1f4 $r14: $r14 .cfa: $rsp 16 +
STACK CFI a1f6 $r15: $r15 .cfa: $rsp 8 +
STACK CFI a200 $r12: .cfa -40 + ^ $r13: .cfa -32 + ^ $r14: .cfa -24 + ^ $r15: .cfa -16 + ^ $rbp: .cfa -48 + ^ $rbx: .cfa -56 + ^ .cfa: $rsp 96 +
STACK CFI a270 .cfa: $rsp 56 +
STACK CFI a277 $rbx: $rbx .cfa: $rsp 48 +
STACK CFI a278 $rbp: $rbp .cfa: $rsp 40 +
STACK CFI a27a $r12: $r12 .cfa: $rsp 32 +
STACK CFI a27c $r13: $r13 .cfa: $rsp 24 +
STACK CFI a27e $r14: $r14 .cfa: $rsp 16 +
STACK CFI a280 $r15: $r15 .cfa: $rsp 8 +
STACK CFI a288 $r12: .cfa -40 + ^ $r13: .cfa -32 + ^ $r14: .cfa -24 + ^ $r15: .cfa -16 + ^ $rbp: .cfa -48 + ^ $rbx: .cfa -56 + ^ .cfa: $rsp 96 +
STACK CFI a36d .cfa: $rsp 56 +
STACK CFI a36e $rbx: $rbx .cfa: $rsp 48 +
STACK CFI a36f $rbp: $rbp .cfa: $rsp 40 +
STACK CFI a371 $r12: $r12 .cfa: $rsp 32 +
STACK CFI a373 $r13: $r13 .cfa: $rsp 24 +
STACK CFI a375 $r14: $r14 .cfa: $rsp 16 +
STACK CFI a377 $r15: $r15 .cfa: $rsp 8 +
STACK CFI a380 $r12: .cfa -40 + ^ $r13: .cfa -32 + ^ $r14: .cfa -24 + ^ $r15: .cfa -16 + ^ $rbp: .cfa -48 + ^ $rbx: .cfa -56 + ^ .cfa: $rsp 96 +
STACK CFI INIT 8690 1ab5 .cfa: $rsp 8 + .ra: .cfa -8 + ^
STACK CFI 8691 $rbp: .cfa -16 + ^ .cfa: $rsp 16 +
STACK CFI 8694 .cfa: $rbp 16 +
STACK CFI 869c $r12: .cfa -48 + ^ $r13: .cfa -40 + ^ $r14: .cfa -32 + ^ $r15: .cfa -24 + ^
STACK CFI 86a0 $rbx: .cfa -56 + ^
STACK CFI 873a .cfa: $rsp 8 +
STACK CFI 873b .cfa: $rbp 16 +
STACK CFI INIT a540 6 .cfa: $rsp 8 + .ra: .cfa -8 + ^
STACK CFI INIT c1c0 143 .cfa: $rsp 8 + .ra: .cfa -8 + ^
STACK CFI c1cb $r15: .cfa -16 + ^ .cfa: $rsp 16 +
STACK CFI c1cd $r14: .cfa -24 + ^ .cfa: $rsp 24 +
STACK CFI c1cf $r13: .cfa -32 + ^ .cfa: $rsp 32 +
STACK CFI c1d1 $r12: .cfa -40 + ^ .cfa: $rsp 40 +
STACK CFI c1d2 $rbp: .cfa -48 + ^ .cfa: $rsp 48 +
STACK CFI c1d3 $rbx: .cfa -56 + ^ .cfa: $rsp 56 +
STACK CFI c1da .cfa: $rsp 64 +
STACK CFI c20c .cfa: $rsp 56 +
STACK CFI c20d $rbx: $rbx .cfa: $rsp 48 +
STACK CFI c20e $rbp: $rbp .cfa: $rsp 40 +
STACK CFI c210 $r12: $r12 .cfa: $rsp 32 +
STACK CFI c212 $r13: $r13 .cfa: $rsp 24 +
STACK CFI c214 $r14: $r14 .cfa: $rsp 16 +
STACK CFI c216 $r15: $r15 .cfa: $rsp 8 +
STACK CFI c220 $r12: .cfa -40 + ^ $r13: .cfa -32 + ^ $r14: .cfa -24 + ^ $r15: .cfa -16 + ^ $rbp: .cfa -48 + ^ $rbx: .cfa -56 + ^ .cfa: $rsp 64 +
STACK CFI c2cf .cfa: $rsp 56 +
STACK CFI c2d4 $rbx: $rbx .cfa: $rsp 48 +
STACK CFI c2d5 $rbp: $rbp .cfa: $rsp 40 +
STACK CFI c2d7 $r12: $r12 .cfa: $rsp 32 +
STACK CFI c2d9 $r13: $r13 .cfa: $rsp 24 +
STACK CFI c2db $r14: $r14 .cfa: $rsp 16 +
STACK CFI c2dd $r15: $r15 .cfa: $rsp 8 +
STACK CFI c2e0 $r12: .cfa -40 + ^ $r13: .cfa -32 + ^ $r14: .cfa -24 + ^ $r15: .cfa -16 + ^ $rbp: .cfa -48 + ^ $rbx: .cfa -56 + ^ .cfa: $rsp 64 +
STACK CFI c2f4 .cfa: $rsp 56 +
STACK CFI c2f5 $rbx: $rbx .cfa: $rsp 48 +
STACK CFI c2f6 $rbp: $rbp .cfa: $rsp 40 +
STACK CFI c2f8 $r12: $r12 .cfa: $rsp 32 +
STACK CFI c2fa $r13: $r13 .cfa: $rsp 24 +
STACK CFI c2fc $r14: $r14 .cfa: $rsp 16 +
STACK CFI c2fe $r15: $r15 .cfa: $rsp 8 +
STACK CFI INIT a550 835 .cfa: $rsp 8 + .ra: .cfa -8 + ^
STACK CFI a552 $r15: .cfa -16 + ^ .cfa: $rsp 16 +
STACK CFI a554 $r14: .cfa -24 + ^ .cfa: $rsp 24 +
STACK CFI a55d $r13: .cfa -32 + ^ .cfa: $rsp 32 +
STACK CFI a55f $r12: .cfa -40 + ^ .cfa: $rsp 40 +
STACK CFI a566 $rbp: .cfa -48 + ^ .cfa: $rsp 48 +
STACK CFI a567 $rbx: .cfa -56 + ^ .cfa: $rsp 56 +
STACK CFI a572 .cfa: $rsp 80 +
STACK CFI a7c5 .cfa: $rsp 56 +
STACK CFI a7c6 .cfa: $rsp 48 +
STACK CFI a7c7 .cfa: $rsp 40 +
STACK CFI a7c9 .cfa: $rsp 32 +
STACK CFI a7cb .cfa: $rsp 24 +
STACK CFI a7cd .cfa: $rsp 16 +
STACK CFI a7cf .cfa: $rsp 8 +
STACK CFI a7d0 .cfa: $rsp 80 +
STACK CFI INIT ad90 67 .cfa: $rsp 8 + .ra: .cfa -8 + ^
STACK CFI ad92 $r13: .cfa -16 + ^ .cfa: $rsp 16 +
STACK CFI ad94 $r12: .cfa -24 + ^ .cfa: $rsp 24 +
STACK CFI ad98 $rbp: .cfa -32 + ^ .cfa: $rsp 32 +
STACK CFI ad99 $rbx: .cfa -40 + ^ .cfa: $rsp 40 +
STACK CFI ada2 .cfa: $rsp 48 +
STACK CFI adf0 .cfa: $rsp 40 +
STACK CFI adf1 .cfa: $rsp 32 +
STACK CFI adf2 .cfa: $rsp 24 +
STACK CFI adf4 .cfa: $rsp 16 +
STACK CFI adf6 .cfa: $rsp 8 +
STACK CFI INIT ae00 12 .cfa: $rsp 8 + .ra: .cfa -8 + ^
STACK CFI ae01 $rbx: .cfa -16 + ^ .cfa: $rsp 16 +
STACK CFI ae0d .cfa: $rsp 8 +
STACK CFI INIT ae20 4a .cfa: $rsp 8 + .ra: .cfa -8 + ^
STACK CFI ae21 $rbp: .cfa -16 + ^ .cfa: $rsp 16 +
STACK CFI ae22 $rbx: .cfa -24 + ^ .cfa: $rsp 24 +
STACK CFI ae31 .cfa: $rsp 32 +
STACK CFI ae65 .cfa: $rsp 24 +
STACK CFI ae68 .cfa: $rsp 16 +
STACK CFI ae69 .cfa: $rsp 8 +
STACK CFI INIT ae70 19f .cfa: $rsp 8 + .ra: .cfa -8 + ^
STACK CFI ae72 $r14: .cfa -16 + ^ .cfa: $rsp 16 +
STACK CFI ae74 $r13: .cfa -24 + ^ .cfa: $rsp 24 +
STACK CFI ae79 $r12: .cfa -32 + ^ .cfa: $rsp 32 +
STACK CFI ae7a $rbp: .cfa -40 + ^ .cfa: $rsp 40 +
STACK CFI ae7f $rbx: .cfa -48 + ^ .cfa: $rsp 48 +
STACK CFI ae9b .cfa: $rsp 4224 +
STACK CFI aed9 .cfa: $rsp 48 +
STACK CFI aeda .cfa: $rsp 40 +
STACK CFI aedb .cfa: $rsp 32 +
STACK CFI aedd .cfa: $rsp 24 +
STACK CFI aedf .cfa: $rsp 16 +
STACK CFI aee1 .cfa: $rsp 8 +
STACK CFI aee8 .cfa: $rsp 4224 +
STACK CFI INIT b010 1a7 .cfa: $rsp 8 + .ra: .cfa -8 + ^
STACK CFI b012 $r14: .cfa -16 + ^ .cfa: $rsp 16 +
STACK CFI b014 $r13: .cfa -24 + ^ .cfa: $rsp 24 +
STACK CFI b01d $r12: .cfa -32 + ^ .cfa: $rsp 32 +
STACK CFI b01e $rbp: .cfa -40 + ^ .cfa: $rsp 40 +
STACK CFI b022 $rbx: .cfa -48 + ^ .cfa: $rsp 48 +
STACK CFI b02c .cfa: $rsp 4992 +
STACK CFI b079 .cfa: $rsp 48 +
STACK CFI b07a .cfa: $rsp 40 +
STACK CFI b07b .cfa: $rsp 32 +
STACK CFI b07d .cfa: $rsp 24 +
STACK CFI b07f .cfa: $rsp 16 +
STACK CFI b081 .cfa: $rsp 8 +
STACK CFI b088 .cfa: $rsp 4992 +
STACK CFI INIT b1c0 e6 .cfa: $rsp 8 + .ra: .cfa -8 + ^
STACK CFI b1c2 $r15: .cfa -16 + ^ .cfa: $rsp 16 +
STACK CFI b1c4 $r14: .cfa -24 + ^ .cfa: $rsp 24 +
STACK CFI b1c9 $r13: .cfa -32 + ^ .cfa: $rsp 32 +
STACK CFI b1cb $r12: .cfa -40 + ^ .cfa: $rsp 40 +
STACK CFI b1cf $rbp: .cfa -48 + ^ .cfa: $rsp 48 +
STACK CFI b1d0 $rbx: .cfa -56 + ^ .cfa: $rsp 56 +
STACK CFI b1e1 .cfa: $rsp 64 +
STACK CFI b21b .cfa: $rsp 56 +
STACK CFI b222 .cfa: $rsp 48 +
STACK CFI b223 .cfa: $rsp 40 +
STACK CFI b225 .cfa: $rsp 32 +
STACK CFI b227 .cfa: $rsp 24 +
STACK CFI b229 .cfa: $rsp 16 +
STACK CFI b22b .cfa: $rsp 8 +
STACK CFI b230 .cfa: $rsp 64 +
STACK CFI b266 .cfa: $rsp 56 +
STACK CFI b267 .cfa: $rsp 48 +
STACK CFI b268 .cfa: $rsp 40 +
STACK CFI b26a .cfa: $rsp 32 +
STACK CFI b26c .cfa: $rsp 24 +
STACK CFI b26e .cfa: $rsp 16 +
STACK CFI b270 .cfa: $rsp 8 +
STACK CFI b278 .cfa: $rsp 64 +
STACK CFI b28e .cfa: $rsp 56 +
STACK CFI b298 .cfa: $rsp 48 +
STACK CFI b299 .cfa: $rsp 40 +
STACK CFI b29b .cfa: $rsp 32 +
STACK CFI b29d .cfa: $rsp 24 +
STACK CFI b29f .cfa: $rsp 16 +
STACK CFI b2a1 .cfa: $rsp 8 +
STACK CFI INIT b2b0 119 .cfa: $rsp 8 + .ra: .cfa -8 + ^
STACK CFI b2b2 $r13: .cfa -16 + ^ .cfa: $rsp 16 +
STACK CFI b2b4 $r12: .cfa -24 + ^ .cfa: $rsp 24 +
STACK CFI b2b8 $rbp: .cfa -32 + ^ .cfa: $rsp 32 +
STACK CFI b2b9 $rbx: .cfa -40 + ^ .cfa: $rsp 40 +
STACK CFI b2c7 .cfa: $rsp 336 +
STACK CFI b389 .cfa: $rsp 40 +
STACK CFI b38a .cfa: $rsp 32 +
STACK CFI b38b .cfa: $rsp 24 +
STACK CFI b38d .cfa: $rsp 16 +
STACK CFI b38f .cfa: $rsp 8 +
STACK CFI b390 .cfa: $rsp 336 +
STACK CFI INIT b3d0 32 .cfa: $rsp 8 + .ra: .cfa -8 + ^
STACK CFI b3d1 $rbx: .cfa -16 + ^ .cfa: $rsp 16 +
STACK CFI b3e0 .cfa: $rsp 8 +
STACK CFI b3e8 .cfa: $rsp 16 +
STACK CFI b3fc .cfa: $rsp 8 +
STACK CFI INIT b410 4b .cfa: $rsp 8 + .ra: .cfa -8 + ^
STACK CFI INIT b460 7d .cfa: $rsp 8 + .ra: .cfa -8 + ^
STACK CFI b462 $r13: .cfa -16 + ^ .cfa: $rsp 16 +
STACK CFI b464 $r12: .cfa -24 + ^ .cfa: $rsp 24 +
STACK CFI b468 $rbp: .cfa -32 + ^ .cfa: $rsp 32 +
STACK CFI b469 $rbx: .cfa -40 + ^ .cfa: $rsp 40 +
STACK CFI b476 .cfa: $rsp 48 +
STACK CFI b4c0 .cfa: $rsp 40 +
STACK CFI b4c1 .cfa: $rsp 32 +
STACK CFI b4c2 .cfa: $rsp 24 +
STACK CFI b4c4 .cfa: $rsp 16 +
STACK CFI b4c6 .cfa: $rsp 8 +
STACK CFI b4d0 .cfa: $rsp 48 +
STACK CFI b4d4 .cfa: $rsp 40 +
STACK CFI b4d7 .cfa: $rsp 32 +
STACK CFI b4d8 .cfa: $rsp 24 +
STACK CFI b4da .cfa: $rsp 16 +
STACK CFI b4dc .cfa: $rsp 8 +
STACK CFI INIT b4e0 53 .cfa: $rsp 8 + .ra: .cfa -8 + ^
STACK CFI b4e1 $rbp: .cfa -16 + ^ .cfa: $rsp 16 +
STACK CFI b4e2 $rbx: .cfa -24 + ^ .cfa: $rsp 24 +
STACK CFI b4ef .cfa: $rsp 32 +
STACK CFI b4fe .cfa: $rsp 24 +
STACK CFI b501 .cfa: $rsp 16 +
STACK CFI b502 .cfa: $rsp 8 +
STACK CFI b508 .cfa: $rsp 32 +
STACK CFI b526 .cfa: $rsp 24 +
STACK CFI b52d .cfa: $rsp 16 +
STACK CFI b52e .cfa: $rsp 8 +
STACK CFI INIT b540 34b .cfa: $rsp 8 + .ra: .cfa -8 + ^
STACK CFI b542 $r15: .cfa -16 + ^ .cfa: $rsp 16 +
STACK CFI b544 $r14: .cfa -24 + ^ .cfa: $rsp 24 +
STACK CFI b549 $r13: .cfa -32 + ^ .cfa: $rsp 32 +
STACK CFI b54b $r12: .cfa -40 + ^ .cfa: $rsp 40 +
STACK CFI b54f $rbp: .cfa -48 + ^ .cfa: $rsp 48 +
STACK CFI b550 $rbx: .cfa -56 + ^ .cfa: $rsp 56 +
STACK CFI b55f .cfa: $rsp 4208 +
STACK CFI b5d3 .cfa: $rsp 56 +
STACK CFI b5d4 .cfa: $rsp 48 +
STACK CFI b5d5 .cfa: $rsp 40 +
STACK CFI b5d7 .cfa: $rsp 32 +
STACK CFI b5d9 .cfa: $rsp 24 +
STACK CFI b5db .cfa: $rsp 16 +
STACK CFI b5dd .cfa: $rsp 8 +
STACK CFI b5e0 .cfa: $rsp 4208 +
STACK CFI INIT c310 288 .cfa: $rsp 8 + .ra: .cfa -8 + ^
STACK CFI c362 $r15: .cfa -16 + ^ .cfa: $rsp 16 +
STACK CFI c364 $r14: .cfa -24 + ^ .cfa: $rsp 24 +
STACK CFI c369 $r13: .cfa -32 + ^ .cfa: $rsp 32 +
STACK CFI c36b $r12: .cfa -40 + ^ .cfa: $rsp 40 +
STACK CFI c376 $rbp: .cfa -48 + ^ .cfa: $rsp 48 +
STACK CFI c377 $rbx: .cfa -56 + ^ .cfa: $rsp 56 +
STACK CFI c384 .cfa: $rsp 80 +
STACK CFI c44a .cfa: $rsp 56 +
STACK CFI c44b $rbx: $rbx .cfa: $rsp 48 +
STACK CFI c44c $rbp: $rbp .cfa: $rsp 40 +
STACK CFI c44e $r12: $r12 .cfa: $rsp 32 +
STACK CFI c450 $r13: $r13 .cfa: $rsp 24 +
STACK CFI c452 $r14: $r14 .cfa: $rsp 16 +
STACK CFI c454 $r15: $r15 .cfa: $rsp 8 +
STACK CFI c456 $r12: .cfa -40 + ^ $r13: .cfa -32 + ^ $r14: .cfa -24 + ^ $r15: .cfa -16 + ^ $rbp: .cfa -48 + ^ $rbx: .cfa -56 + ^ .cfa: $rsp 80 +
STACK CFI INIT b890 930 .cfa: $rsp 8 + .ra: .cfa -8 + ^
STACK CFI b892 $r15: .cfa -16 + ^ .cfa: $rsp 16 +
STACK CFI b894 $r14: .cfa -24 + ^ .cfa: $rsp 24 +
STACK CFI b89d $r13: .cfa -32 + ^ .cfa: $rsp 32 +
STACK CFI b89f $r12: .cfa -40 + ^ .cfa: $rsp 40 +
STACK CFI b8a3 $rbp: .cfa -48 + ^ .cfa: $rsp 48 +
STACK CFI b8a4 $rbx: .cfa -56 + ^ .cfa: $rsp 56 +
STACK CFI b8ab .cfa: $rsp 448 +
STACK CFI ba50 .cfa: $rsp 56 +
STACK CFI ba51 .cfa: $rsp 48 +
STACK CFI ba52 .cfa: $rsp 40 +
STACK CFI ba54 .cfa: $rsp 32 +
STACK CFI ba56 .cfa: $rsp 24 +
STACK CFI ba58 .cfa: $rsp 16 +
STACK CFI ba5a .cfa: $rsp 8 +
STACK CFI ba5b .cfa: $rsp 448 +
STACK CFI INIT c5a0 3 .cfa: $rsp 8 + .ra: .cfa -8 + ^
STACK CFI INIT c5b0 187 .cfa: $rsp 8 + .ra: .cfa -8 + ^
STACK CFI c5b2 $r15: .cfa -16 + ^ .cfa: $rsp 16 +
STACK CFI c5b4 $r14: .cfa -24 + ^ .cfa: $rsp 24 +
STACK CFI c5b6 $r13: .cfa -32 + ^ .cfa: $rsp 32 +
STACK CFI c5b8 $r12: .cfa -40 + ^ .cfa: $rsp 40 +
STACK CFI c5b9 $rbp: .cfa -48 + ^ .cfa: $rsp 48 +
STACK CFI c5ba $rbx: .cfa -56 + ^ .cfa: $rsp 56 +
STACK CFI c5be .cfa: $rsp 112 +
STACK CFI c6a5 .cfa: $rsp 56 +
STACK CFI c6a6 .cfa: $rsp 48 +
STACK CFI c6a7 .cfa: $rsp 40 +
STACK CFI c6a9 .cfa: $rsp 32 +
STACK CFI c6ab .cfa: $rsp 24 +
STACK CFI c6ad .cfa: $rsp 16 +
STACK CFI c6af .cfa: $rsp 8 +
STACK CFI c6b0 .cfa: $rsp 112 +
STACK CFI INIT d670 13 .cfa: $rsp 8 + .ra: .cfa -8 + ^
STACK CFI INIT d690 20 .cfa: $rsp 8 + .ra: .cfa -8 + ^
STACK CFI d698 $rbx: .cfa -16 + ^ .cfa: $rsp 16 +
STACK CFI d6ab .cfa: $rsp 8 +
STACK CFI INIT c740 bb .cfa: $rsp 8 + .ra: .cfa -8 + ^
STACK CFI c758 $r15: .cfa -16 + ^ .cfa: $rsp 16 +
STACK CFI c75a $r14: .cfa -24 + ^ .cfa: $rsp 24 +
STACK CFI c75f $r13: .cfa -32 + ^ .cfa: $rsp 32 +
STACK CFI c761 $r12: .cfa -40 + ^ .cfa: $rsp 40 +
STACK CFI c765 $rbp: .cfa -48 + ^ .cfa: $rsp 48 +
STACK CFI c766 $rbx: .cfa -56 + ^ .cfa: $rsp 56 +
STACK CFI c770 .cfa: $rsp 64 +
STACK CFI c783 .cfa: $rsp 56 +
STACK CFI c784 $rbx: $rbx .cfa: $rsp 48 +
STACK CFI c785 $rbp: $rbp .cfa: $rsp 40 +
STACK CFI c787 $r12: $r12 .cfa: $rsp 32 +
STACK CFI c789 $r13: $r13 .cfa: $rsp 24 +
STACK CFI c78b $r14: $r14 .cfa: $rsp 16 +
STACK CFI c78d $r15: $r15 .cfa: $rsp 8 +
STACK CFI c798 $r12: .cfa -40 + ^ $r13: .cfa -32 + ^ $r14: .cfa -24 + ^ $r15: .cfa -16 + ^ $rbp: .cfa -48 + ^ $rbx: .cfa -56 + ^ .cfa: $rsp 64 +
STACK CFI INIT c800 bc .cfa: $rsp 8 + .ra: .cfa -8 + ^
STACK CFI c811 $r15: .cfa -16 + ^ .cfa: $rsp 16 +
STACK CFI c813 $r14: .cfa -24 + ^ .cfa: $rsp 24 +
STACK CFI c81b $r13: .cfa -32 + ^ .cfa: $rsp 32 +
STACK CFI c81d $r12: .cfa -40 + ^ .cfa: $rsp 40 +
STACK CFI c821 $rbp: .cfa -48 + ^ .cfa: $rsp 48 +
STACK CFI c822 $rbx: .cfa -56 + ^ .cfa: $rsp 56 +
STACK CFI c826 .cfa: $rsp 64 +
STACK CFI c8ad .cfa: $rsp 56 +
STACK CFI c8b1 $rbx: $rbx .cfa: $rsp 48 +
STACK CFI c8b2 $rbp: $rbp .cfa: $rsp 40 +
STACK CFI c8b4 $r12: $r12 .cfa: $rsp 32 +
STACK CFI c8b6 $r13: $r13 .cfa: $rsp 24 +
STACK CFI c8b8 $r14: $r14 .cfa: $rsp 16 +
STACK CFI c8ba $r15: $r15 .cfa: $rsp 8 +
STACK CFI INIT c8c0 5fd .cfa: $rsp 8 + .ra: .cfa -8 + ^
STACK CFI c8c2 $r15: .cfa -16 + ^ .cfa: $rsp 16 +
STACK CFI c8c4 $r14: .cfa -24 + ^ .cfa: $rsp 24 +
STACK CFI c8cd $r13: .cfa -32 + ^ .cfa: $rsp 32 +
STACK CFI c8cf $r12: .cfa -40 + ^ .cfa: $rsp 40 +
STACK CFI c8d3 $rbp: .cfa -48 + ^ .cfa: $rsp 48 +
STACK CFI c8d4 $rbx: .cfa -56 + ^ .cfa: $rsp 56 +
STACK CFI c8db .cfa: $rsp 416 +
STACK CFI ca2f .cfa: $rsp 56 +
STACK CFI ca30 .cfa: $rsp 48 +
STACK CFI ca31 .cfa: $rsp 40 +
STACK CFI ca33 .cfa: $rsp 32 +
STACK CFI ca35 .cfa: $rsp 24 +
STACK CFI ca37 .cfa: $rsp 16 +
STACK CFI ca39 .cfa: $rsp 8 +
STACK CFI ca40 .cfa: $rsp 416 +
STACK CFI INIT cec0 51d .cfa: $rsp 8 + .ra: .cfa -8 + ^
STACK CFI cec2 $r15: .cfa -16 + ^ .cfa: $rsp 16 +
STACK CFI cec4 $r14: .cfa -24 + ^ .cfa: $rsp 24 +
STACK CFI cec6 $r13: .cfa -32 + ^ .cfa: $rsp 32 +
STACK CFI cec8 $r12: .cfa -40 + ^ .cfa: $rsp 40 +
STACK CFI cecc $rbp: .cfa -48 + ^ .cfa: $rsp 48 +
STACK CFI cecd $rbx: .cfa -56 + ^ .cfa: $rsp 56 +
STACK CFI ced4 .cfa: $rsp 384 +
STACK CFI d0d4 .cfa: $rsp 56 +
STACK CFI d0d5 .cfa: $rsp 48 +
STACK CFI d0d6 .cfa: $rsp 40 +
STACK CFI d0d8 .cfa: $rsp 32 +
STACK CFI d0da .cfa: $rsp 24 +
STACK CFI d0dc .cfa: $rsp 16 +
STACK CFI d0de .cfa: $rsp 8 +
STACK CFI d0df .cfa: $rsp 384 +
STACK CFI INIT d3e0 27 .cfa: $rsp 8 + .ra: .cfa -8 + ^
STACK CFI d3e1 $rbx: .cfa -16 + ^ .cfa: $rsp 16 +
STACK CFI d406 .cfa: $rsp 8 +
STACK CFI INIT d6b0 288 .cfa: $rsp 8 + .ra: .cfa -8 + ^
STACK CFI d702 $r15: .cfa -16 + ^ .cfa: $rsp 16 +
STACK CFI d704 $r14: .cfa -24 + ^ .cfa: $rsp 24 +
STACK CFI d709 $r13: .cfa -32 + ^ .cfa: $rsp 32 +
STACK CFI d70b $r12: .cfa -40 + ^ .cfa: $rsp 40 +
STACK CFI d716 $rbp: .cfa -48 + ^ .cfa: $rsp 48 +
STACK CFI d717 $rbx: .cfa -56 + ^ .cfa: $rsp 56 +
STACK CFI d724 .cfa: $rsp 80 +
STACK CFI d7e9 .cfa: $rsp 56 +
STACK CFI d7ea $rbx: $rbx .cfa: $rsp 48 +
STACK CFI d7eb $rbp: $rbp .cfa: $rsp 40 +
STACK CFI d7ed $r12: $r12 .cfa: $rsp 32 +
STACK CFI d7ef $r13: $r13 .cfa: $rsp 24 +
STACK CFI d7f1 $r14: $r14 .cfa: $rsp 16 +
STACK CFI d7f3 $r15: $r15 .cfa: $rsp 8 +
STACK CFI d7f5 $r12: .cfa -40 + ^ $r13: .cfa -32 + ^ $r14: .cfa -24 + ^ $r15: .cfa -16 + ^ $rbp: .cfa -48 + ^ $rbx: .cfa -56 + ^ .cfa: $rsp 80 +
STACK CFI INIT d410 251 .cfa: $rsp 8 + .ra: .cfa -8 + ^
STACK CFI d412 $r15: .cfa -16 + ^ .cfa: $rsp 16 +
STACK CFI d414 $r14: .cfa -24 + ^ .cfa: $rsp 24 +
STACK CFI d416 $r13: .cfa -32 + ^ .cfa: $rsp 32 +
STACK CFI d418 $r12: .cfa -40 + ^ .cfa: $rsp 40 +
STACK CFI d419 $rbp: .cfa -48 + ^ .cfa: $rsp 48 +
STACK CFI d41a $rbx: .cfa -56 + ^ .cfa: $rsp 56 +
STACK CFI d421 .cfa: $rsp 304 +
STACK CFI d595 .cfa: $rsp 56 +
STACK CFI d596 .cfa: $rsp 48 +
STACK CFI d597 .cfa: $rsp 40 +
STACK CFI d599 .cfa: $rsp 32 +
STACK CFI d59b .cfa: $rsp 24 +
STACK CFI d59d .cfa: $rsp 16 +
STACK CFI d59f .cfa: $rsp 8 +
STACK CFI d5a0 .cfa: $rsp 304 +
STACK CFI INIT 1c20 4a .cfa: $rsp 8 + .ra: .cfa -8 + ^
STACK CFI 1c22 $r13: .cfa -16 + ^ .cfa: $rsp 16 +
STACK CFI 1c24 $r12: .cfa -24 + ^ .cfa: $rsp 24 +
STACK CFI 1c28 $rbp: .cfa -32 + ^ .cfa: $rsp 32 +
STACK CFI 1c29 $rbx: .cfa -40 + ^ .cfa: $rsp 40 +
STACK CFI 1c2d .cfa: $rsp 48 +
STACK CFI 1c63 .cfa: $rsp 40 +
STACK CFI 1c64 .cfa: $rsp 32 +
STACK CFI 1c65 .cfa: $rsp 24 +
STACK CFI 1c67 .cfa: $rsp 16 +
STACK CFI 1c69 .cfa: $rsp 8 +
STACK CFI INIT 1c6a 20 .cfa: $rsp 8 + .ra: .cfa -8 + ^
STACK CFI 1c72 .cfa: $rsp 16 +
STACK CFI INIT 1c8a 20 .cfa: $rsp 8 + .ra: .cfa -8 + ^
STACK CFI 1c92 .cfa: $rsp 16 +
STACK CFI INIT 1caa 1d .cfa: $rsp 8 + .ra: .cfa -8 + ^
STACK CFI 1cb0 .cfa: $rsp 16 +
STACK CFI 1cb5 .cfa: $rsp 8 +
STACK CFI INIT 1cc8 20 .cfa: $rsp 8 + .ra: .cfa -8 + ^
STACK CFI 1cd0 .cfa: $rsp 16 +
STACK CFI INIT 1ce8 20 .cfa: $rsp 8 + .ra: .cfa -8 + ^
STACK CFI 1cf0 .cfa: $rsp 16 +
STACK CFI INIT 1d08 2c .cfa: $rsp 8 + .ra: .cfa -8 + ^
STACK CFI 1d09 $rbp: .cfa -16 + ^ .cfa: $rsp 16 +
STACK CFI 1d0a $rbx: .cfa -24 + ^ .cfa: $rsp 24 +
STACK CFI 1d0f .cfa: $rsp 32 +
STACK CFI 1d2a .cfa: $rsp 24 +
STACK CFI 1d2e .cfa: $rsp 16 +
STACK CFI 1d2f .cfa: $rsp 8 +
STACK CFI INIT 1d34 1ec .cfa: $rsp 8 + .ra: .cfa -8 + ^
STACK CFI 1d36 $r15: .cfa -16 + ^ .cfa: $rsp 16 +
STACK CFI 1d38 $r14: .cfa -24 + ^ .cfa: $rsp 24 +
STACK CFI 1d3a $r13: .cfa -32 + ^ .cfa: $rsp 32 +
STACK CFI 1d3c $r12: .cfa -40 + ^ .cfa: $rsp 40 +
STACK CFI 1d40 $rbp: .cfa -48 + ^ .cfa: $rsp 48 +
STACK CFI 1d41 $rbx: .cfa -56 + ^ .cfa: $rsp 56 +
STACK CFI 1d4a .cfa: $rsp 112 +
STACK CFI 1f15 .cfa: $rsp 56 +
STACK CFI 1f16 .cfa: $rsp 48 +
STACK CFI 1f17 .cfa: $rsp 40 +
STACK CFI 1f19 .cfa: $rsp 32 +
STACK CFI 1f1b .cfa: $rsp 24 +
STACK CFI 1f1d .cfa: $rsp 16 +
STACK CFI 1f1f .cfa: $rsp 8 +
STACK CFI INIT 1f20 67 .cfa: $rsp 8 + .ra: .cfa -8 + ^
STACK CFI 1f22 $r12: .cfa -16 + ^ .cfa: $rsp 16 +
STACK CFI 1f23 $rbp: .cfa -24 + ^ .cfa: $rsp 24 +
STACK CFI 1f27 $rbx: .cfa -32 + ^ .cfa: $rsp 32 +
STACK CFI 1f31 .cfa: $rsp 304 +
STACK CFI 1f82 .cfa: $rsp 32 +
STACK CFI 1f83 .cfa: $rsp 24 +
STACK CFI 1f84 .cfa: $rsp 16 +
STACK CFI 1f86 .cfa: $rsp 8 +
STACK CFI INIT 11830 259 .cfa: $rsp 8 + .ra: .cfa -8 + ^
STACK CFI 11832 $r15: .cfa -16 + ^ .cfa: $rsp 16 +
STACK CFI 11834 $r14: .cfa -24 + ^ .cfa: $rsp 24 +
STACK CFI 1183a $r13: .cfa -32 + ^ .cfa: $rsp 32 +
STACK CFI 1183c $r12: .cfa -40 + ^ .cfa: $rsp 40 +
STACK CFI 11840 $rbp: .cfa -48 + ^ .cfa: $rsp 48 +
STACK CFI 11841 $rbx: .cfa -56 + ^ .cfa: $rsp 56 +
STACK CFI 11848 .cfa: $rsp 64 +
STACK CFI 118ad .cfa: $rsp 56 +
STACK CFI 118b0 .cfa: $rsp 48 +
STACK CFI 118b1 .cfa: $rsp 40 +
STACK CFI 118b3 .cfa: $rsp 32 +
STACK CFI 118b5 .cfa: $rsp 24 +
STACK CFI 118b7 .cfa: $rsp 16 +
STACK CFI 118b9 .cfa: $rsp 8 +
STACK CFI 118c0 .cfa: $rsp 64 +
STACK CFI 11993 .cfa: $rsp 56 +
STACK CFI 11994 .cfa: $rsp 48 +
STACK CFI 1199a .cfa: $rsp 40 +
STACK CFI 1199c .cfa: $rsp 32 +
STACK CFI 1199e .cfa: $rsp 24 +
STACK CFI 119a0 .cfa: $rsp 16 +
STACK CFI 119a2 .cfa: $rsp 8 +
STACK CFI 119a8 .cfa: $rsp 64 +
STACK CFI 11a5d .cfa: $rsp 56 +
STACK CFI 11a60 .cfa: $rsp 48 +
STACK CFI 11a61 .cfa: $rsp 40 +
STACK CFI 11a63 .cfa: $rsp 32 +
STACK CFI 11a65 .cfa: $rsp 24 +
STACK CFI 11a67 .cfa: $rsp 16 +
STACK CFI 11a69 .cfa: $rsp 8 +
STACK CFI 11a6a .cfa: $rsp 64 +
STACK CFI INIT 11a90 257 .cfa: $rsp 8 + .ra: .cfa -8 + ^
STACK CFI 11ab2 $r15: .cfa -16 + ^ .cfa: $rsp 16 +
STACK CFI 11ab4 $r14: .cfa -24 + ^ .cfa: $rsp 24 +
STACK CFI 11ab6 $r13: .cfa -32 + ^ .cfa: $rsp 32 +
STACK CFI 11ab8 $r12: .cfa -40 + ^ .cfa: $rsp 40 +
STACK CFI 11ab9 $rbp: .cfa -48 + ^ .cfa: $rsp 48 +
STACK CFI 11aba $rbx: .cfa -56 + ^ .cfa: $rsp 56 +
STACK CFI 11ac1 .cfa: $rsp 80 +
STACK CFI 11af1 .cfa: $rsp 56 +
STACK CFI 11af2 $rbx: $rbx .cfa: $rsp 48 +
STACK CFI 11af3 $rbp: $rbp .cfa: $rsp 40 +
STACK CFI 11af5 $r12: $r12 .cfa: $rsp 32 +
STACK CFI 11af7 $r13: $r13 .cfa: $rsp 24 +
STACK CFI 11af9 $r14: $r14 .cfa: $rsp 16 +
STACK CFI 11afb $r15: $r15 .cfa: $rsp 8 +
STACK CFI 11b00 $r12: .cfa -40 + ^ $r13: .cfa -32 + ^ $r14: .cfa -24 + ^ $r15: .cfa -16 + ^ $rbp: .cfa -48 + ^ $rbx: .cfa -56 + ^ .cfa: $rsp 80 +
STACK CFI INIT 11cf0 250 .cfa: $rsp 8 + .ra: .cfa -8 + ^
STACK CFI 11cf2 $r15: .cfa -16 + ^ .cfa: $rsp 16 +
STACK CFI 11cf4 $r14: .cfa -24 + ^ .cfa: $rsp 24 +
STACK CFI 11cf6 $r13: .cfa -32 + ^ .cfa: $rsp 32 +
STACK CFI 11cf8 $r12: .cfa -40 + ^ .cfa: $rsp 40 +
STACK CFI 11cfc $rbp: .cfa -48 + ^ .cfa: $rsp 48 +
STACK CFI 11cfd $rbx: .cfa -56 + ^ .cfa: $rsp 56 +
STACK CFI 11d04 .cfa: $rsp 80 +
STACK CFI 11db0 .cfa: $rsp 56 +
STACK CFI 11db1 .cfa: $rsp 48 +
STACK CFI 11db2 .cfa: $rsp 40 +
STACK CFI 11db4 .cfa: $rsp 32 +
STACK CFI 11db6 .cfa: $rsp 24 +
STACK CFI 11db8 .cfa: $rsp 16 +
STACK CFI 11dba .cfa: $rsp 8 +
STACK CFI 11dc0 .cfa: $rsp 80 +
STACK CFI INIT d940 e0e .cfa: $rsp 8 + .ra: .cfa -8 + ^
STACK CFI d942 $r15: .cfa -16 + ^ .cfa: $rsp 16 +
STACK CFI d944 $r14: .cfa -24 + ^ .cfa: $rsp 24 +
STACK CFI d94a $r13: .cfa -32 + ^ .cfa: $rsp 32 +
STACK CFI d94c $r12: .cfa -40 + ^ .cfa: $rsp 40 +
STACK CFI d94d $rbp: .cfa -48 + ^ .cfa: $rsp 48 +
STACK CFI d94e $rbx: .cfa -56 + ^ .cfa: $rsp 56 +
STACK CFI d955 .cfa: $rsp 2448 +
STACK CFI dc01 .cfa: $rsp 56 +
STACK CFI dc02 .cfa: $rsp 48 +
STACK CFI dc03 .cfa: $rsp 40 +
STACK CFI dc05 .cfa: $rsp 32 +
STACK CFI dc07 .cfa: $rsp 24 +
STACK CFI dc09 .cfa: $rsp 16 +
STACK CFI dc0b .cfa: $rsp 8 +
STACK CFI dc10 .cfa: $rsp 2448 +
STACK CFI INIT e750 21d9 .cfa: $rsp 8 + .ra: .cfa -8 + ^
STACK CFI e751 $rbp: .cfa -16 + ^ .cfa: $rsp 16 +
STACK CFI e759 .cfa: $rbp 16 +
STACK CFI e761 $r12: .cfa -48 + ^ $r13: .cfa -40 + ^ $r14: .cfa -32 + ^ $r15: .cfa -24 + ^
STACK CFI e766 $rbx: .cfa -56 + ^
STACK CFI e8af .cfa: $rsp 8 +
STACK CFI e8b0 .cfa: $rbp 16 +
STACK CFI INIT 10930 343 .cfa: $rsp 8 + .ra: .cfa -8 + ^
STACK CFI 10932 $r15: .cfa -16 + ^ .cfa: $rsp 16 +
STACK CFI 10934 $r14: .cfa -24 + ^ .cfa: $rsp 24 +
STACK CFI 10939 $r13: .cfa -32 + ^ .cfa: $rsp 32 +
STACK CFI 1093b $r12: .cfa -40 + ^ .cfa: $rsp 40 +
STACK CFI 1093f $rbp: .cfa -48 + ^ .cfa: $rsp 48 +
STACK CFI 10940 $rbx: .cfa -56 + ^ .cfa: $rsp 56 +
STACK CFI 10947 .cfa: $rsp 240 +
STACK CFI 10ad5 .cfa: $rsp 56 +
STACK CFI 10ad6 .cfa: $rsp 48 +
STACK CFI 10ad7 .cfa: $rsp 40 +
STACK CFI 10ad9 .cfa: $rsp 32 +
STACK CFI 10adb .cfa: $rsp 24 +
STACK CFI 10add .cfa: $rsp 16 +
STACK CFI 10adf .cfa: $rsp 8 +
STACK CFI 10ae0 .cfa: $rsp 240 +
STACK CFI INIT 10c80 496 .cfa: $rsp 8 + .ra: .cfa -8 + ^
STACK CFI 10c82 $r15: .cfa -16 + ^ .cfa: $rsp 16 +
STACK CFI 10c84 $r14: .cfa -24 + ^ .cfa: $rsp 24 +
STACK CFI 10c89 $r13: .cfa -32 + ^ .cfa: $rsp 32 +
STACK CFI 10c8b $r12: .cfa -40 + ^ .cfa: $rsp 40 +
STACK CFI 10c8c $rbp: .cfa -48 + ^ .cfa: $rsp 48 +
STACK CFI 10c8d $rbx: .cfa -56 + ^ .cfa: $rsp 56 +
STACK CFI 10c96 .cfa: $rsp 544 +
STACK CFI 10eff .cfa: $rsp 56 +
STACK CFI 10f00 .cfa: $rsp 48 +
STACK CFI 10f01 .cfa: $rsp 40 +
STACK CFI 10f03 .cfa: $rsp 32 +
STACK CFI 10f05 .cfa: $rsp 24 +
STACK CFI 10f07 .cfa: $rsp 16 +
STACK CFI 10f09 .cfa: $rsp 8 +
STACK CFI 10f0a .cfa: $rsp 544 +
STACK CFI INIT 11120 422 .cfa: $rsp 8 + .ra: .cfa -8 + ^
STACK CFI 11122 $r15: .cfa -16 + ^ .cfa: $rsp 16 +
STACK CFI 11124 $r14: .cfa -24 + ^ .cfa: $rsp 24 +
STACK CFI 11129 $r13: .cfa -32 + ^ .cfa: $rsp 32 +
STACK CFI 1112b $r12: .cfa -40 + ^ .cfa: $rsp 40 +
STACK CFI 1112f $rbp: .cfa -48 + ^ .cfa: $rsp 48 +
STACK CFI 11130 $rbx: .cfa -56 + ^ .cfa: $rsp 56 +
STACK CFI 1113e .cfa: $rsp 480 +
STACK CFI 111d0 .cfa: $rsp 56 +
STACK CFI 111d1 .cfa: $rsp 48 +
STACK CFI 111d2 .cfa: $rsp 40 +
STACK CFI 111d4 .cfa: $rsp 32 +
STACK CFI 111d6 .cfa: $rsp 24 +
STACK CFI 111d8 .cfa: $rsp 16 +
STACK CFI 111da .cfa: $rsp 8 +
STACK CFI 111e0 .cfa: $rsp 480 +
STACK CFI INIT 11550 109 .cfa: $rsp 8 + .ra: .cfa -8 + ^
STACK CFI 11551 $rbp: .cfa -16 + ^ .cfa: $rsp 16 +
STACK CFI 11568 .cfa: $rbp 16 +
STACK CFI 1156f $r12: .cfa -40 + ^ $r13: .cfa -32 + ^ $r14: .cfa -24 + ^ $rbx: .cfa -48 + ^
STACK CFI 11616 .cfa: $rsp 8 +
STACK CFI 11617 .cfa: $rbp 16 +
STACK CFI INIT 11660 109 .cfa: $rsp 8 + .ra: .cfa -8 + ^
STACK CFI 11661 $rbp: .cfa -16 + ^ .cfa: $rsp 16 +
STACK CFI 11675 .cfa: $rbp 16 +
STACK CFI 1167c $r12: .cfa -40 + ^ $r13: .cfa -32 + ^ $r14: .cfa -24 + ^ $rbx: .cfa -48 + ^
STACK CFI 11726 .cfa: $rsp 8 +
STACK CFI 11727 .cfa: $rbp 16 +
STACK CFI INIT 11770 26 .cfa: $rsp 8 + .ra: .cfa -8 + ^
STACK CFI 11774 .cfa: $rsp 16 +
STACK CFI 11776 .cfa: $rsp 24 +
STACK CFI 11778 .cfa: $rsp 32 +
STACK CFI 11795 .cfa: $rsp 8 +
STACK CFI INIT 117a0 25 .cfa: $rsp 8 + .ra: .cfa -8 + ^
STACK CFI 117a4 .cfa: $rsp 16 +
STACK CFI 117a6 .cfa: $rsp 24 +
STACK CFI 117a8 .cfa: $rsp 32 +
STACK CFI 117c4 .cfa: $rsp 8 +
STACK CFI INIT 117d0 24 .cfa: $rsp 8 + .ra: .cfa -8 + ^
STACK CFI 117d4 .cfa: $rsp 16 +
STACK CFI 117d8 .cfa: $rsp 24 +
STACK CFI 117da .cfa: $rsp 32 +
STACK CFI 117f3 .cfa: $rsp 8 +
STACK CFI INIT 11800 23 .cfa: $rsp 8 + .ra: .cfa -8 + ^
STACK CFI 11804 .cfa: $rsp 16 +
STACK CFI 11808 .cfa: $rsp 24 +
STACK CFI 1180a .cfa: $rsp 32 +
STACK CFI 11822 .cfa: $rsp 8 +
STACK CFI INIT 11f40 23 .cfa: $rsp 8 + .ra: .cfa -8 + ^
STACK CFI 11f59 .cfa: $rsp 16 +
STACK CFI INIT 11f70 1a .cfa: $rsp 8 + .ra: .cfa -8 + ^
STACK CFI INIT 11f90 78 .cfa: $rsp 8 + .ra: .cfa -8 + ^
STACK CFI 11f92 $r12: .cfa -16 + ^ .cfa: $rsp 16 +
STACK CFI 11f93 $rbp: .cfa -24 + ^ .cfa: $rsp 24 +
STACK CFI 11f97 $rbx: .cfa -32 + ^ .cfa: $rsp 32 +
STACK CFI 11fcf .cfa: $rsp 24 +
STACK CFI 11fd0 .cfa: $rsp 16 +
STACK CFI 11fd2 .cfa: $rsp 8 +
STACK CFI 11fd8 .cfa: $rsp 32 +
STACK CFI 11fe5 .cfa: $rsp 24 +
STACK CFI 11fe6 .cfa: $rsp 16 +
STACK CFI 11fe8 .cfa: $rsp 8 +
STACK CFI 11fe9 .cfa: $rsp 32 +
STACK CFI INIT 12010 2c .cfa: $rsp 8 + .ra: .cfa -8 + ^
STACK CFI 12024 .cfa: $rsp 16 +
STACK CFI INIT 12040 5d .cfa: $rsp 8 + .ra: .cfa -8 + ^
STACK CFI 12042 $r12: .cfa -16 + ^ .cfa: $rsp 16 +
STACK CFI 12046 $rbp: .cfa -24 + ^ .cfa: $rsp 24 +
STACK CFI 12047 $rbx: .cfa -32 + ^ .cfa: $rsp 32 +
STACK CFI 1208a .cfa: $rsp 24 +
STACK CFI 1208b .cfa: $rsp 16 +
STACK CFI 1208d .cfa: $rsp 8 +
STACK CFI 12090 .cfa: $rsp 32 +
STACK CFI INIT 120a0 15 .cfa: $rsp 8 + .ra: .cfa -8 + ^
STACK CFI INIT 120c0 b6 .cfa: $rsp 8 + .ra: .cfa -8 + ^
STACK CFI 120c2 $r13: .cfa -16 + ^ .cfa: $rsp 16 +
STACK CFI 120c4 $r12: .cfa -24 + ^ .cfa: $rsp 24 +
STACK CFI 120c5 $rbp: .cfa -32 + ^ .cfa: $rsp 32 +
STACK CFI 120c6 $rbx: .cfa -40 + ^ .cfa: $rsp 40 +
STACK CFI 120ca .cfa: $rsp 48 +
STACK CFI 120fe .cfa: $rsp 40 +
STACK CFI 120ff .cfa: $rsp 32 +
STACK CFI 12100 .cfa: $rsp 24 +
STACK CFI 12102 .cfa: $rsp 16 +
STACK CFI 12104 .cfa: $rsp 8 +
STACK CFI 12108 .cfa: $rsp 48 +
STACK CFI INIT 12180 ff .cfa: $rsp 8 + .ra: .cfa -8 + ^
STACK CFI 12181 $rbp: .cfa -16 + ^ .cfa: $rsp 16 +
STACK CFI 12182 $rbx: .cfa -24 + ^ .cfa: $rsp 24 +
STACK CFI 12186 .cfa: $rsp 32 +
STACK CFI 12209 .cfa: $rsp 24 +
STACK CFI 1220a .cfa: $rsp 16 +
STACK CFI 1220b .cfa: $rsp 8 +
STACK CFI 12210 .cfa: $rsp 32 +
STACK CFI 1221d .cfa: $rsp 24 +
STACK CFI 12220 .cfa: $rsp 16 +
STACK CFI 12221 .cfa: $rsp 8 +
STACK CFI 12222 .cfa: $rsp 32 +
STACK CFI INIT 12280 f0 .cfa: $rsp 8 + .ra: .cfa -8 + ^
STACK CFI 12282 $r15: .cfa -16 + ^ .cfa: $rsp 16 +
STACK CFI 12284 $r14: .cfa -24 + ^ .cfa: $rsp 24 +
STACK CFI 12286 $r13: .cfa -32 + ^ .cfa: $rsp 32 +
STACK CFI 12288 $r12: .cfa -40 + ^ .cfa: $rsp 40 +
STACK CFI 12289 $rbp: .cfa -48 + ^ .cfa: $rsp 48 +
STACK CFI 1228a $rbx: .cfa -56 + ^ .cfa: $rsp 56 +
STACK CFI 1228e .cfa: $rsp 80 +
STACK CFI 1233a .cfa: $rsp 56 +
STACK CFI 1233b .cfa: $rsp 48 +
STACK CFI 1233c .cfa: $rsp 40 +
STACK CFI 1233e .cfa: $rsp 32 +
STACK CFI 12340 .cfa: $rsp 24 +
STACK CFI 12342 .cfa: $rsp 16 +
STACK CFI 12344 .cfa: $rsp 8 +
STACK CFI 12345 .cfa: $rsp 80 +
STACK CFI INIT 12370 ef .cfa: $rsp 8 + .ra: .cfa -8 + ^
STACK CFI 12372 $r15: .cfa -16 + ^ .cfa: $rsp 16 +
STACK CFI 12374 $r14: .cfa -24 + ^ .cfa: $rsp 24 +
STACK CFI 12376 $r13: .cfa -32 + ^ .cfa: $rsp 32 +
STACK CFI 12378 $r12: .cfa -40 + ^ .cfa: $rsp 40 +
STACK CFI 12379 $rbp: .cfa -48 + ^ .cfa: $rsp 48 +
STACK CFI 1237a $rbx: .cfa -56 + ^ .cfa: $rsp 56 +
STACK CFI 1237e .cfa: $rsp 80 +
STACK CFI 12429 .cfa: $rsp 56 +
STACK CFI 1242a .cfa: $rsp 48 +
STACK CFI 1242b .cfa: $rsp 40 +
STACK CFI 1242d .cfa: $rsp 32 +
STACK CFI 1242f .cfa: $rsp 24 +
STACK CFI 12431 .cfa: $rsp 16 +
STACK CFI 12433 .cfa: $rsp 8 +
STACK CFI 12434 .cfa: $rsp 80 +
STACK CFI INIT 12460 41 .cfa: $rsp 8 + .ra: .cfa -8 + ^
STACK CFI 12461 $rbx: .cfa -16 + ^ .cfa: $rsp 16 +
STACK CFI 12481 .cfa: $rsp 8 +
STACK CFI 12482 .cfa: $rsp 16 +
STACK CFI INIT 124b0 89 .cfa: $rsp 8 + .ra: .cfa -8 + ^
STACK CFI 124b4 .cfa: $rsp 16 +
STACK CFI 124d7 .cfa: $rsp 8 +
STACK CFI 124dc .cfa: $rsp 16 +
STACK CFI INIT 12540 df .cfa: $rsp 8 + .ra: .cfa -8 + ^
STACK CFI 12542 $r12: .cfa -16 + ^ .cfa: $rsp 16 +
STACK CFI 12543 $rbp: .cfa -24 + ^ .cfa: $rsp 24 +
STACK CFI 12544 $rbx: .cfa -32 + ^ .cfa: $rsp 32 +
STACK CFI 12548 .cfa: $rsp 64 +
STACK CFI 125a5 .cfa: $rsp 32 +
STACK CFI 125a6 .cfa: $rsp 24 +
STACK CFI 125a7 .cfa: $rsp 16 +
STACK CFI 125a9 .cfa: $rsp 8 +
STACK CFI 125b0 .cfa: $rsp 64 +
STACK CFI INIT 12640 23a .cfa: $rsp 8 + .ra: .cfa -8 + ^
STACK CFI 12642 $r15: .cfa -16 + ^ .cfa: $rsp 16 +
STACK CFI 12644 $r14: .cfa -24 + ^ .cfa: $rsp 24 +
STACK CFI 12646 $r13: .cfa -32 + ^ .cfa: $rsp 32 +
STACK CFI 12648 $r12: .cfa -40 + ^ .cfa: $rsp 40 +
STACK CFI 12649 $rbp: .cfa -48 + ^ .cfa: $rsp 48 +
STACK CFI 1264a $rbx: .cfa -56 + ^ .cfa: $rsp 56 +
STACK CFI 1264e .cfa: $rsp 128 +
STACK CFI 12745 .cfa: $rsp 56 +
STACK CFI 12746 .cfa: $rsp 48 +
STACK CFI 12747 .cfa: $rsp 40 +
STACK CFI 12749 .cfa: $rsp 32 +
STACK CFI 1274b .cfa: $rsp 24 +
STACK CFI 1274d .cfa: $rsp 16 +
STACK CFI 1274f .cfa: $rsp 8 +
STACK CFI 12750 .cfa: $rsp 128 +
STACK CFI INIT 12620 5 .cfa: $rsp 8 + .ra: .cfa -8 + ^
STACK CFI INIT 12880 23a .cfa: $rsp 8 + .ra: .cfa -8 + ^
STACK CFI 12882 $r15: .cfa -16 + ^ .cfa: $rsp 16 +
STACK CFI 12884 $r14: .cfa -24 + ^ .cfa: $rsp 24 +
STACK CFI 12886 $r13: .cfa -32 + ^ .cfa: $rsp 32 +
STACK CFI 12888 $r12: .cfa -40 + ^ .cfa: $rsp 40 +
STACK CFI 12889 $rbp: .cfa -48 + ^ .cfa: $rsp 48 +
STACK CFI 1288a $rbx: .cfa -56 + ^ .cfa: $rsp 56 +
STACK CFI 1288e .cfa: $rsp 128 +
STACK CFI 1297c .cfa: $rsp 56 +
STACK CFI 1297d .cfa: $rsp 48 +
STACK CFI 1297e .cfa: $rsp 40 +
STACK CFI 12980 .cfa: $rsp 32 +
STACK CFI 12982 .cfa: $rsp 24 +
STACK CFI 12984 .cfa: $rsp 16 +
STACK CFI 12986 .cfa: $rsp 8 +
STACK CFI 12990 .cfa: $rsp 128 +
STACK CFI INIT 12630 5 .cfa: $rsp 8 + .ra: .cfa -8 + ^
STACK CFI INIT 12ac0 c2 .cfa: $rsp 8 + .ra: .cfa -8 + ^
STACK CFI 12ac2 $r12: .cfa -16 + ^ .cfa: $rsp 16 +
STACK CFI 12ac3 $rbp: .cfa -24 + ^ .cfa: $rsp 24 +
STACK CFI 12ac7 $rbx: .cfa -32 + ^ .cfa: $rsp 32 +
STACK CFI 12ace .cfa: $rsp 48 +
STACK CFI 12b3a .cfa: $rsp 32 +
STACK CFI 12b3b .cfa: $rsp 24 +
STACK CFI 12b3c .cfa: $rsp 16 +
STACK CFI 12b3e .cfa: $rsp 8 +
STACK CFI 12b40 .cfa: $rsp 48 +
STACK CFI INIT 12b90 b1 .cfa: $rsp 8 + .ra: .cfa -8 + ^
STACK CFI 12b92 $r15: .cfa -16 + ^ .cfa: $rsp 16 +
STACK CFI 12b94 $r14: .cfa -24 + ^ .cfa: $rsp 24 +
STACK CFI 12b98 $r13: .cfa -32 + ^ .cfa: $rsp 32 +
STACK CFI 12b9a $r12: .cfa -40 + ^ .cfa: $rsp 40 +
STACK CFI 12b9e $rbp: .cfa -48 + ^ .cfa: $rsp 48 +
STACK CFI 12b9f $rbx: .cfa -56 + ^ .cfa: $rsp 56 +
STACK CFI 12bb2 .cfa: $rsp 96 +
STACK CFI 12c29 .cfa: $rsp 56 +
STACK CFI 12c2a .cfa: $rsp 48 +
STACK CFI 12c2b .cfa: $rsp 40 +
STACK CFI 12c2d .cfa: $rsp 32 +
STACK CFI 12c2f .cfa: $rsp 24 +
STACK CFI 12c31 .cfa: $rsp 16 +
STACK CFI 12c33 .cfa: $rsp 8 +
STACK CFI 12c38 .cfa: $rsp 96 +
STACK CFI INIT 12c50 7b .cfa: $rsp 8 + .ra: .cfa -8 + ^
STACK CFI 12c51 $rbx: .cfa -16 + ^ .cfa: $rsp 16 +
STACK CFI 12c5d .cfa: $rsp 64 +
STACK CFI 12cc4 .cfa: $rsp 16 +
STACK CFI 12cc5 .cfa: $rsp 8 +
STACK CFI 12cc6 .cfa: $rsp 64 +
STACK CFI INIT 12cd0 173 .cfa: $rsp 8 + .ra: .cfa -8 + ^
STACK CFI 12cd2 $r14: .cfa -16 + ^ .cfa: $rsp 16 +
STACK CFI 12cd4 $r13: .cfa -24 + ^ .cfa: $rsp 24 +
STACK CFI 12cd6 $r12: .cfa -32 + ^ .cfa: $rsp 32 +
STACK CFI 12cd7 $rbp: .cfa -40 + ^ .cfa: $rsp 40 +
STACK CFI 12cda $rbx: .cfa -48 + ^ .cfa: $rsp 48 +
STACK CFI 12ce4 .cfa: $rsp 80 +
STACK CFI 12def .cfa: $rsp 48 +
STACK CFI 12df0 .cfa: $rsp 40 +
STACK CFI 12df1 .cfa: $rsp 32 +
STACK CFI 12df3 .cfa: $rsp 24 +
STACK CFI 12df5 .cfa: $rsp 16 +
STACK CFI 12df7 .cfa: $rsp 8 +
STACK CFI 12e00 .cfa: $rsp 80 +
STACK CFI INIT 13030 2bd .cfa: $rsp 8 + .ra: .cfa -8 + ^
STACK CFI 1303b $r15: .cfa -16 + ^ .cfa: $rsp 16 +
STACK CFI 1303d $r14: .cfa -24 + ^ .cfa: $rsp 24 +
STACK CFI 13042 $r13: .cfa -32 + ^ .cfa: $rsp 32 +
STACK CFI 13044 $r12: .cfa -40 + ^ .cfa: $rsp 40 +
STACK CFI 13045 $rbp: .cfa -48 + ^ .cfa: $rsp 48 +
STACK CFI 13046 $rbx: .cfa -56 + ^ .cfa: $rsp 56 +
STACK CFI 13050 .cfa: $rsp 80 +
STACK CFI 130d1 .cfa: $rsp 56 +
STACK CFI 130d2 $rbx: $rbx .cfa: $rsp 48 +
STACK CFI 130d3 $rbp: $rbp .cfa: $rsp 40 +
STACK CFI 130d5 $r12: $r12 .cfa: $rsp 32 +
STACK CFI 130d7 $r13: $r13 .cfa: $rsp 24 +
STACK CFI 130d9 $r14: $r14 .cfa: $rsp 16 +
STACK CFI 130db $r15: $r15 .cfa: $rsp 8 +
STACK CFI 130e0 $r12: .cfa -40 + ^ $r13: .cfa -32 + ^ $r14: .cfa -24 + ^ $r15: .cfa -16 + ^ $rbp: .cfa -48 + ^ $rbx: .cfa -56 + ^ .cfa: $rsp 80 +
STACK CFI 13131 .cfa: $rsp 56 +
STACK CFI 13132 $rbx: $rbx .cfa: $rsp 48 +
STACK CFI 13133 $rbp: $rbp .cfa: $rsp 40 +
STACK CFI 13135 $r12: $r12 .cfa: $rsp 32 +
STACK CFI 13137 $r13: $r13 .cfa: $rsp 24 +
STACK CFI 13139 $r14: $r14 .cfa: $rsp 16 +
STACK CFI 1313b $r15: $r15 .cfa: $rsp 8 +
STACK CFI 13140 $r12: .cfa -40 + ^ $r13: .cfa -32 + ^ $r14: .cfa -24 + ^ $r15: .cfa -16 + ^ $rbp: .cfa -48 + ^ $rbx: .cfa -56 + ^ .cfa: $rsp 80 +
STACK CFI 1325e .cfa: $rsp 56 +
STACK CFI 1325f $rbx: $rbx .cfa: $rsp 48 +
STACK CFI 13260 $rbp: $rbp .cfa: $rsp 40 +
STACK CFI 13262 $r12: $r12 .cfa: $rsp 32 +
STACK CFI 13264 $r13: $r13 .cfa: $rsp 24 +
STACK CFI 13266 $r14: $r14 .cfa: $rsp 16 +
STACK CFI 13268 $r15: $r15 .cfa: $rsp 8 +
STACK CFI 13270 $r12: .cfa -40 + ^ $r13: .cfa -32 + ^ $r14: .cfa -24 + ^ $r15: .cfa -16 + ^ $rbp: .cfa -48 + ^ $rbx: .cfa -56 + ^ .cfa: $rsp 80 +
STACK CFI INIT 132f0 14d .cfa: $rsp 8 + .ra: .cfa -8 + ^
STACK CFI 1333a $r15: .cfa -16 + ^ .cfa: $rsp 16 +
STACK CFI 1333c $r14: .cfa -24 + ^ .cfa: $rsp 24 +
STACK CFI 1333e $r13: .cfa -32 + ^ .cfa: $rsp 32 +
STACK CFI 13340 $r12: .cfa -40 + ^ .cfa: $rsp 40 +
STACK CFI 13341 $rbp: .cfa -48 + ^ .cfa: $rsp 48 +
STACK CFI 13342 $rbx: .cfa -56 + ^ .cfa: $rsp 56 +
STACK CFI 1334c .cfa: $rsp 64 +
STACK CFI 13409 .cfa: $rsp 56 +
STACK CFI 1340a $rbx: $rbx .cfa: $rsp 48 +
STACK CFI 1340b $rbp: $rbp .cfa: $rsp 40 +
STACK CFI 1340d $r12: $r12 .cfa: $rsp 32 +
STACK CFI 1340f $r13: $r13 .cfa: $rsp 24 +
STACK CFI 13411 $r14: $r14 .cfa: $rsp 16 +
STACK CFI 13413 $r15: $r15 .cfa: $rsp 8 +
STACK CFI 13418 $r12: .cfa -40 + ^ $r13: .cfa -32 + ^ $r14: .cfa -24 + ^ $r15: .cfa -16 + ^ $rbp: .cfa -48 + ^ $rbx: .cfa -56 + ^ .cfa: $rsp 64 +
STACK CFI INIT 12e50 f0 .cfa: $rsp 8 + .ra: .cfa -8 + ^
STACK CFI 12e52 $r12: .cfa -16 + ^ .cfa: $rsp 16 +
STACK CFI 12e53 $rbp: .cfa -24 + ^ .cfa: $rsp 24 +
STACK CFI 12e57 $rbx: .cfa -32 + ^ .cfa: $rsp 32 +
STACK CFI 12e5e .cfa: $rsp 64 +
STACK CFI 12f0d .cfa: $rsp 32 +
STACK CFI 12f0e .cfa: $rsp 24 +
STACK CFI 12f0f .cfa: $rsp 16 +
STACK CFI 12f11 .cfa: $rsp 8 +
STACK CFI 12f18 .cfa: $rsp 64 +
STACK CFI INIT 12f40 e8 .cfa: $rsp 8 + .ra: .cfa -8 + ^
STACK CFI 12f42 $r12: .cfa -16 + ^ .cfa: $rsp 16 +
STACK CFI 12f43 $rbp: .cfa -24 + ^ .cfa: $rsp 24 +
STACK CFI 12f47 $rbx: .cfa -32 + ^ .cfa: $rsp 32 +
STACK CFI 12f4e .cfa: $rsp 64 +
STACK CFI 12ffb .cfa: $rsp 32 +
STACK CFI 12ffc .cfa: $rsp 24 +
STACK CFI 12ffd .cfa: $rsp 16 +
STACK CFI 12fff .cfa: $rsp 8 +
STACK CFI 13000 .cfa: $rsp 64 +
STACK CFI INIT 13440 1f .cfa: $rsp 8 + .ra: .cfa -8 + ^
STACK CFI 1344b .cfa: $rsp 16 +
STACK CFI 1345e .cfa: $rsp 8 +
STACK CFI INIT 13460 5 .cfa: $rsp 8 + .ra: .cfa -8 + ^
STACK CFI INIT 13470 452 .cfa: $rsp 8 + .ra: .cfa -8 + ^
STACK CFI 13472 $r15: .cfa -16 + ^ .cfa: $rsp 16 +
STACK CFI 13474 $r14: .cfa -24 + ^ .cfa: $rsp 24 +
STACK CFI 13476 $r13: .cfa -32 + ^ .cfa: $rsp 32 +
STACK CFI 13478 $r12: .cfa -40 + ^ .cfa: $rsp 40 +
STACK CFI 13479 $rbp: .cfa -48 + ^ .cfa: $rsp 48 +
STACK CFI 1347a $rbx: .cfa -56 + ^ .cfa: $rsp 56 +
STACK CFI 1347e .cfa: $rsp 96 +
STACK CFI 134c7 .cfa: $rsp 56 +
STACK CFI 134ca .cfa: $rsp 48 +
STACK CFI 134cb .cfa: $rsp 40 +
STACK CFI 134cd .cfa: $rsp 32 +
STACK CFI 134cf .cfa: $rsp 24 +
STACK CFI 134d1 .cfa: $rsp 16 +
STACK CFI 134d3 .cfa: $rsp 8 +
STACK CFI 134d8 .cfa: $rsp 96 +
STACK CFI 135fe .cfa: $rsp 56 +
STACK CFI 135ff .cfa: $rsp 48 +
STACK CFI 13600 .cfa: $rsp 40 +
STACK CFI 13602 .cfa: $rsp 32 +
STACK CFI 13604 .cfa: $rsp 24 +
STACK CFI 13606 .cfa: $rsp 16 +
STACK CFI 13608 .cfa: $rsp 8 +
STACK CFI 13610 .cfa: $rsp 96 +
STACK CFI INIT 138d0 287 .cfa: $rsp 8 + .ra: .cfa -8 + ^
STACK CFI 138d5 $r14: .cfa -16 + ^ .cfa: $rsp 16 +
STACK CFI 138d7 $r13: .cfa -24 + ^ .cfa: $rsp 24 +
STACK CFI 138d9 $r12: .cfa -32 + ^ .cfa: $rsp 32 +
STACK CFI 138da $rbp: .cfa -40 + ^ .cfa: $rsp 40 +
STACK CFI 138db $rbx: .cfa -48 + ^ .cfa: $rsp 48 +
STACK CFI 1391a .cfa: $rsp 40 +
STACK CFI 1391d .cfa: $rsp 32 +
STACK CFI 1391f .cfa: $rsp 24 +
STACK CFI 13921 .cfa: $rsp 16 +
STACK CFI 13923 .cfa: $rsp 8 +
STACK CFI 13928 .cfa: $rsp 48 +
STACK CFI 139c9 .cfa: $rsp 40 +
STACK CFI 139ca .cfa: $rsp 32 +
STACK CFI 139cc .cfa: $rsp 24 +
STACK CFI 139ce .cfa: $rsp 16 +
STACK CFI 139d0 .cfa: $rsp 8 +
STACK CFI 139d8 .cfa: $rsp 48 +
STACK CFI INIT 13b60 135 .cfa: $rsp 8 + .ra: .cfa -8 + ^
STACK CFI 13b62 $r15: .cfa -16 + ^ .cfa: $rsp 16 +
STACK CFI 13b64 $r14: .cfa -24 + ^ .cfa: $rsp 24 +
STACK CFI 13b66 $r13: .cfa -32 + ^ .cfa: $rsp 32 +
STACK CFI 13b68 $r12: .cfa -40 + ^ .cfa: $rsp 40 +
STACK CFI 13b6c $rbp: .cfa -48 + ^ .cfa: $rsp 48 +
STACK CFI 13b6d $rbx: .cfa -56 + ^ .cfa: $rsp 56 +
STACK CFI 13b71 .cfa: $rsp 96 +
STACK CFI 13c5e .cfa: $rsp 56 +
STACK CFI 13c5f .cfa: $rsp 48 +
STACK CFI 13c60 .cfa: $rsp 40 +
STACK CFI 13c62 .cfa: $rsp 32 +
STACK CFI 13c64 .cfa: $rsp 24 +
STACK CFI 13c66 .cfa: $rsp 16 +
STACK CFI 13c68 .cfa: $rsp 8 +
STACK CFI 13c69 .cfa: $rsp 96 +
STACK CFI INIT 13ca0 e2 .cfa: $rsp 8 + .ra: .cfa -8 + ^
STACK CFI 13ca2 $r13: .cfa -16 + ^ .cfa: $rsp 16 +
STACK CFI 13ca4 $r12: .cfa -24 + ^ .cfa: $rsp 24 +
STACK CFI 13ca5 $rbp: .cfa -32 + ^ .cfa: $rsp 32 +
STACK CFI 13ca6 $rbx: .cfa -40 + ^ .cfa: $rsp 40 +
STACK CFI 13cae .cfa: $rsp 64 +
STACK CFI 13d10 .cfa: $rsp 40 +
STACK CFI 13d11 .cfa: $rsp 32 +
STACK CFI 13d12 .cfa: $rsp 24 +
STACK CFI 13d14 .cfa: $rsp 16 +
STACK CFI 13d16 .cfa: $rsp 8 +
STACK CFI 13d20 .cfa: $rsp 64 +
STACK CFI INIT 13d90 c7 .cfa: $rsp 8 + .ra: .cfa -8 + ^
STACK CFI 13d91 $rbx: .cfa -16 + ^ .cfa: $rsp 16 +
STACK CFI 13d98 .cfa: $rsp 48 +
STACK CFI 13e27 .cfa: $rsp 16 +
STACK CFI 13e28 .cfa: $rsp 8 +
STACK CFI 13e30 .cfa: $rsp 48 +
STACK CFI INIT 13e60 49 .cfa: $rsp 8 + .ra: .cfa -8 + ^
STACK CFI 13e61 $rbx: .cfa -16 + ^ .cfa: $rsp 16 +
STACK CFI 13e68 .cfa: $rsp 32 +
STACK CFI 13e9f .cfa: $rsp 16 +
STACK CFI 13ea3 .cfa: $rsp 8 +
STACK CFI 13ea4 .cfa: $rsp 32 +
STACK CFI INIT 13eb0 462 .cfa: $rsp 8 + .ra: .cfa -8 + ^
STACK CFI 13eb2 $r15: .cfa -16 + ^ .cfa: $rsp 16 +
STACK CFI 13eb4 $r14: .cfa -24 + ^ .cfa: $rsp 24 +
STACK CFI 13eb9 $r13: .cfa -32 + ^ .cfa: $rsp 32 +
STACK CFI 13ebb $r12: .cfa -40 + ^ .cfa: $rsp 40 +
STACK CFI 13ebc $rbp: .cfa -48 + ^ .cfa: $rsp 48 +
STACK CFI 13ebd $rbx: .cfa -56 + ^ .cfa: $rsp 56 +
STACK CFI 13ec9 .cfa: $rsp 144 +
STACK CFI 13f7f .cfa: $rsp 56 +
STACK CFI 13f80 .cfa: $rsp 48 +
STACK CFI 13f81 .cfa: $rsp 40 +
STACK CFI 13f83 .cfa: $rsp 32 +
STACK CFI 13f85 .cfa: $rsp 24 +
STACK CFI 13f87 .cfa: $rsp 16 +
STACK CFI 13f89 .cfa: $rsp 8 +
STACK CFI 13f90 .cfa: $rsp 144 +
STACK CFI 14029 .cfa: $rsp 152 +
STACK CFI 1402f .cfa: $rsp 160 +
STACK CFI 14046 .cfa: $rsp 152 +
STACK CFI 1404c .cfa: $rsp 144 +
STACK CFI INIT 14320 7c .cfa: $rsp 8 + .ra: .cfa -8 + ^
STACK CFI 14321 $rbp: .cfa -16 + ^ .cfa: $rsp 16 +
STACK CFI 14322 $rbx: .cfa -24 + ^ .cfa: $rsp 24 +
STACK CFI 1432b .cfa: $rsp 64 +
STACK CFI 1437a .cfa: $rsp 24 +
STACK CFI 1437b .cfa: $rsp 16 +
STACK CFI 1437c .cfa: $rsp 8 +
STACK CFI 14380 .cfa: $rsp 64 +
STACK CFI INIT 144a0 16 .cfa: $rsp 8 + .ra: .cfa -8 + ^
STACK CFI 144a4 .cfa: $rsp 16 +
STACK CFI 144af .cfa: $rsp 8 +
STACK CFI INIT 143a0 73 .cfa: $rsp 8 + .ra: .cfa -8 + ^
STACK CFI 143a1 $rbx: .cfa -16 + ^ .cfa: $rsp 16 +
STACK CFI 14412 .cfa: $rsp 8 +
STACK CFI INIT 14420 75 .cfa: $rsp 8 + .ra: .cfa -8 + ^
STACK CFI 14424 $rbx: .cfa -16 + ^ .cfa: $rsp 16 +
STACK CFI 14443 .cfa: $rsp 24 +
STACK CFI 14447 .cfa: $rsp 32 +
STACK CFI 1444c .cfa: $rsp 40 +
STACK CFI 14451 .cfa: $rsp 48 +
STACK CFI 14462 .cfa: $rsp 16 +
STACK CFI 14475 .cfa: $rsp 8 +
STACK CFI 14476 .cfa: $rsp 16 +
STACK CFI INIT 144c0 1e .cfa: $rsp 8 + .ra: .cfa -8 + ^
STACK CFI INIT 144e0 46 .cfa: $rsp 8 + .ra: .cfa -8 + ^
STACK CFI INIT 14530 56 .cfa: $rsp 8 + .ra: .cfa -8 + ^
STACK CFI INIT 14590 4c .cfa: $rsp 8 + .ra: .cfa -8 + ^
STACK CFI INIT 145e0 39 .cfa: $rsp 8 + .ra: .cfa -8 + ^
STACK CFI INIT 14620 3c .cfa: $rsp 8 + .ra: .cfa -8 + ^
STACK CFI INIT 14660 34 .cfa: $rsp 8 + .ra: .cfa -8 + ^
STACK CFI INIT 146a0 26 .cfa: $rsp 8 + .ra: .cfa -8 + ^
STACK CFI INIT 146d0 34 .cfa: $rsp 8 + .ra: .cfa -8 + ^
STACK CFI INIT 14710 7c .cfa: $rsp 8 + .ra: .cfa -8 + ^
STACK CFI INIT 14790 3a .cfa: $rsp 8 + .ra: .cfa -8 + ^
STACK CFI INIT 147d0 1f .cfa: $rsp 8 + .ra: .cfa -8 + ^
STACK CFI INIT 147f0 38 .cfa: $rsp 8 + .ra: .cfa -8 + ^
STACK CFI INIT 14830 3b .cfa: $rsp 8 + .ra: .cfa -8 + ^
STACK CFI 14836 $rbx: .cfa -16 + ^ .cfa: $rsp 16 +
STACK CFI 14853 $rbx: $rbx .cfa: $rsp 8 +
STACK CFI 14858 $rbx: .cfa -16 + ^ .cfa: $rsp 16 +
STACK CFI 14867 $rbx: $rbx .cfa: $rsp 8 +
STACK CFI INIT 14870 6c .cfa: $rsp 8 + .ra: .cfa -8 + ^
STACK CFI 14874 .cfa: $rsp 32 +
STACK CFI 148c8 .cfa: $rsp 8 +
STACK CFI 148d0 .cfa: $rsp 32 +
STACK CFI INIT 148e0 10 .cfa: $rsp 8 + .ra: .cfa -8 + ^
STACK CFI INIT 148f0 4b .cfa: $rsp 8 + .ra: .cfa -8 + ^
STACK CFI 148f1 $rbp: .cfa -16 + ^ .cfa: $rsp 16 +
STACK CFI 148f2 $rbx: .cfa -24 + ^ .cfa: $rsp 24 +
STACK CFI 148f9 .cfa: $rsp 32 +
STACK CFI 1492c .cfa: $rsp 24 +
STACK CFI 1492d .cfa: $rsp 16 +
STACK CFI 1492e .cfa: $rsp 8 +
STACK CFI 14930 .cfa: $rsp 32 +
STACK CFI INIT 14940 5 .cfa: $rsp 8 + .ra: .cfa -8 + ^
STACK CFI INIT 14950 1af .cfa: $rsp 8 + .ra: .cfa -8 + ^
STACK CFI 14952 $r15: .cfa -16 + ^ .cfa: $rsp 16 +
STACK CFI 14954 $r14: .cfa -24 + ^ .cfa: $rsp 24 +
STACK CFI 14956 $r13: .cfa -32 + ^ .cfa: $rsp 32 +
STACK CFI 14958 $r12: .cfa -40 + ^ .cfa: $rsp 40 +
STACK CFI 1495c $rbp: .cfa -48 + ^ .cfa: $rsp 48 +
STACK CFI 1495d $rbx: .cfa -56 + ^ .cfa: $rsp 56 +
STACK CFI 1496c .cfa: $rsp 224 +
STACK CFI 14a5d .cfa: $rsp 56 +
STACK CFI 14a5e .cfa: $rsp 48 +
STACK CFI 14a5f .cfa: $rsp 40 +
STACK CFI 14a61 .cfa: $rsp 32 +
STACK CFI 14a63 .cfa: $rsp 24 +
STACK CFI 14a65 .cfa: $rsp 16 +
STACK CFI 14a67 .cfa: $rsp 8 +
STACK CFI 14a70 .cfa: $rsp 224 +
STACK CFI INIT 14b00 14 .cfa: $rsp 8 + .ra: .cfa -8 + ^
STACK CFI INIT 14b20 40 .cfa: $rsp 8 + .ra: .cfa -8 + ^
STACK CFI 14b26 $rbx: .cfa -16 + ^ .cfa: $rsp 16 +
STACK CFI 14b41 .cfa: $rsp 8 +
STACK CFI 14b48 .cfa: $rsp 16 +
STACK CFI 14b5f .cfa: $rsp 8 +
STACK CFI INIT 14b60 2 .cfa: $rsp 8 + .ra: .cfa -8 + ^
STACK CFI INIT 14b70 213 .cfa: $rsp 8 + .ra: .cfa -8 + ^
STACK CFI 14b72 $r15: .cfa -16 + ^ .cfa: $rsp 16 +
STACK CFI 14b74 $r14: .cfa -24 + ^ .cfa: $rsp 24 +
STACK CFI 14b7b $r13: .cfa -32 + ^ .cfa: $rsp 32 +
STACK CFI 14b7d $r12: .cfa -40 + ^ .cfa: $rsp 40 +
STACK CFI 14b7e $rbp: .cfa -48 + ^ .cfa: $rsp 48 +
STACK CFI 14b7f $rbx: .cfa -56 + ^ .cfa: $rsp 56 +
STACK CFI 14b89 .cfa: $rsp 208 +
STACK CFI 14d17 .cfa: $rsp 56 +
STACK CFI 14d18 .cfa: $rsp 48 +
STACK CFI 14d19 .cfa: $rsp 40 +
STACK CFI 14d1b .cfa: $rsp 32 +
STACK CFI 14d1d .cfa: $rsp 24 +
STACK CFI 14d1f .cfa: $rsp 16 +
STACK CFI 14d21 .cfa: $rsp 8 +
STACK CFI 14d28 .cfa: $rsp 208 +
STACK CFI INIT 14d90 5 .cfa: $rsp 8 + .ra: .cfa -8 + ^
STACK CFI INIT 14da0 23 .cfa: $rsp 8 + .ra: .cfa -8 + ^
STACK CFI 14da5 $rbx: .cfa -16 + ^ .cfa: $rsp 16 +
STACK CFI 14dbf $rbx: $rbx .cfa: $rsp 8 +
STACK CFI INIT 14dd0 8 .cfa: $rsp 8 + .ra: .cfa -8 + ^
STACK CFI INIT 14de0 2fc .cfa: $rsp 8 + .ra: .cfa -8 + ^
STACK CFI INIT 150e0 44 .cfa: $rsp 8 + .ra: .cfa -8 + ^
STACK CFI 1510c .cfa: $rsp 16 +
STACK CFI INIT 15130 47 .cfa: $rsp 8 + .ra: .cfa -8 + ^
STACK CFI 1515f .cfa: $rsp 16 +
STACK CFI INIT 15180 8 .cfa: $rsp 8 + .ra: .cfa -8 + ^
STACK CFI INIT 15190 8 .cfa: $rsp 8 + .ra: .cfa -8 + ^
STACK CFI INIT 151a0 25c .cfa: $rsp 8 + .ra: .cfa -8 + ^
STACK CFI INIT 15400 c7 .cfa: $rsp 8 + .ra: .cfa -8 + ^
STACK CFI INIT 154d0 fd .cfa: $rsp 8 + .ra: .cfa -8 + ^
STACK CFI 154d1 $rbp: .cfa -16 + ^ .cfa: $rsp 16 +
STACK CFI 154d2 $rbx: .cfa -24 + ^ .cfa: $rsp 24 +
STACK CFI 15559 .cfa: $rsp 16 +
STACK CFI 1555a .cfa: $rsp 8 +
STACK CFI 15560 .cfa: $rsp 24 +
STACK CFI 155ba .cfa: $rsp 16 +
STACK CFI 155bb .cfa: $rsp 8 +
STACK CFI 155bc .cfa: $rsp 24 +
STACK CFI INIT 155d0 118 .cfa: $rsp 8 + .ra: .cfa -8 + ^
STACK CFI 155d5 $r14: .cfa -16 + ^ .cfa: $rsp 16 +
STACK CFI 155d7 $r13: .cfa -24 + ^ .cfa: $rsp 24 +
STACK CFI 155dc $r12: .cfa -32 + ^ .cfa: $rsp 32 +
STACK CFI 155dd $rbp: .cfa -40 + ^ .cfa: $rsp 40 +
STACK CFI 155e1 $rbx: .cfa -48 + ^ .cfa: $rsp 48 +
STACK CFI 15676 .cfa: $rsp 40 +
STACK CFI 15682 .cfa: $rsp 32 +
STACK CFI 15684 .cfa: $rsp 24 +
STACK CFI 15686 .cfa: $rsp 16 +
STACK CFI 15688 .cfa: $rsp 8 +
STACK CFI 15690 .cfa: $rsp 48 +
STACK CFI 156af .cfa: $rsp 40 +
STACK CFI 156b8 .cfa: $rsp 32 +
STACK CFI 156ba .cfa: $rsp 24 +
STACK CFI 156bc .cfa: $rsp 16 +
STACK CFI 156be .cfa: $rsp 8 +
STACK CFI 156c0 .cfa: $rsp 48 +
STACK CFI 156c1 .cfa: $rsp 40 +
STACK CFI 156cd .cfa: $rsp 32 +
STACK CFI 156cf .cfa: $rsp 24 +
STACK CFI 156d1 .cfa: $rsp 16 +
STACK CFI 156d3 .cfa: $rsp 8 +
STACK CFI 156d4 .cfa: $rsp 48 +
STACK CFI 156d5 .cfa: $rsp 40 +
STACK CFI 156e1 .cfa: $rsp 32 +
STACK CFI 156e3 .cfa: $rsp 24 +
STACK CFI 156e5 .cfa: $rsp 16 +
STACK CFI 156e7 .cfa: $rsp 8 +
STACK CFI INIT 156f0 1ff .cfa: $rsp 8 + .ra: .cfa -8 + ^
STACK CFI 156f2 $r13: .cfa -16 + ^ .cfa: $rsp 16 +
STACK CFI 156f4 $r12: .cfa -24 + ^ .cfa: $rsp 24 +
STACK CFI 156f5 $rbp: .cfa -32 + ^ .cfa: $rsp 32 +
STACK CFI 156f6 $rbx: .cfa -40 + ^ .cfa: $rsp 40 +
STACK CFI 15812 .cfa: $rsp 32 +
STACK CFI 15813 .cfa: $rsp 24 +
STACK CFI 15818 .cfa: $rsp 16 +
STACK CFI 1581a .cfa: $rsp 8 +
STACK CFI 15820 .cfa: $rsp 40 +
STACK CFI 15835 .cfa: $rsp 32 +
STACK CFI 15836 .cfa: $rsp 24 +
STACK CFI 15838 .cfa: $rsp 16 +
STACK CFI 1583a .cfa: $rsp 8 +
STACK CFI 15840 .cfa: $rsp 40 +
STACK CFI 15865 .cfa: $rsp 32 +
STACK CFI 15866 .cfa: $rsp 24 +
STACK CFI 15868 .cfa: $rsp 16 +
STACK CFI 1586a .cfa: $rsp 8 +
STACK CFI 15870 .cfa: $rsp 40 +
STACK CFI 15899 .cfa: $rsp 32 +
STACK CFI 1589a .cfa: $rsp 24 +
STACK CFI 1589c .cfa: $rsp 16 +
STACK CFI 1589e .cfa: $rsp 8 +
STACK CFI 1589f .cfa: $rsp 40 +
STACK CFI INIT 158f0 2b .cfa: $rsp 8 + .ra: .cfa -8 + ^
STACK CFI INIT 15920 26f .cfa: $rsp 8 + .ra: .cfa -8 + ^
STACK CFI 15922 $r15: .cfa -16 + ^ .cfa: $rsp 16 +
STACK CFI 15924 $r14: .cfa -24 + ^ .cfa: $rsp 24 +
STACK CFI 15926 $r13: .cfa -32 + ^ .cfa: $rsp 32 +
STACK CFI 15928 $r12: .cfa -40 + ^ .cfa: $rsp 40 +
STACK CFI 15929 $rbp: .cfa -48 + ^ .cfa: $rsp 48 +
STACK CFI 1592a $rbx: .cfa -56 + ^ .cfa: $rsp 56 +
STACK CFI 1592e .cfa: $rsp 80 +
STACK CFI 15a7f .cfa: $rsp 56 +
STACK CFI 15a80 .cfa: $rsp 48 +
STACK CFI 15a81 .cfa: $rsp 40 +
STACK CFI 15a83 .cfa: $rsp 32 +
STACK CFI 15a85 .cfa: $rsp 24 +
STACK CFI 15a87 .cfa: $rsp 16 +
STACK CFI 15a89 .cfa: $rsp 8 +
STACK CFI 15a90 .cfa: $rsp 80 +
STACK CFI INIT 15b90 19a .cfa: $rsp 8 + .ra: .cfa -8 + ^
STACK CFI 15b92 $r13: .cfa -16 + ^ .cfa: $rsp 16 +
STACK CFI 15b94 $r12: .cfa -24 + ^ .cfa: $rsp 24 +
STACK CFI 15b97 $rbp: .cfa -32 + ^ .cfa: $rsp 32 +
STACK CFI 15b98 $rbx: .cfa -40 + ^ .cfa: $rsp 40 +
STACK CFI 15c7d .cfa: $rsp 32 +
STACK CFI 15c7e .cfa: $rsp 24 +
STACK CFI 15c80 .cfa: $rsp 16 +
STACK CFI 15c82 .cfa: $rsp 8 +
STACK CFI 15c88 .cfa: $rsp 40 +
STACK CFI 15d0c .cfa: $rsp 32 +
STACK CFI 15d0d .cfa: $rsp 24 +
STACK CFI 15d0f .cfa: $rsp 16 +
STACK CFI 15d11 .cfa: $rsp 8 +
STACK CFI 15d12 .cfa: $rsp 40 +
STACK CFI INIT 15d30 287 .cfa: $rsp 8 + .ra: .cfa -8 + ^
STACK CFI 15d32 $r15: .cfa -16 + ^ .cfa: $rsp 16 +
STACK CFI 15d34 $r14: .cfa -24 + ^ .cfa: $rsp 24 +
STACK CFI 15d36 $r13: .cfa -32 + ^ .cfa: $rsp 32 +
STACK CFI 15d38 $r12: .cfa -40 + ^ .cfa: $rsp 40 +
STACK CFI 15d39 $rbp: .cfa -48 + ^ .cfa: $rsp 48 +
STACK CFI 15d3a $rbx: .cfa -56 + ^ .cfa: $rsp 56 +
STACK CFI 15d3e .cfa: $rsp 88 +
STACK CFI 15ec5 .cfa: $rsp 56 +
STACK CFI 15ec6 .cfa: $rsp 48 +
STACK CFI 15ec7 .cfa: $rsp 40 +
STACK CFI 15ec9 .cfa: $rsp 32 +
STACK CFI 15ecb .cfa: $rsp 24 +
STACK CFI 15ecd .cfa: $rsp 16 +
STACK CFI 15ecf .cfa: $rsp 8 +
STACK CFI 15ed0 .cfa: $rsp 88 +
STACK CFI INIT 15fc0 65 .cfa: $rsp 8 + .ra: .cfa -8 + ^
STACK CFI 15fc2 $r15: .cfa -16 + ^ .cfa: $rsp 16 +
STACK CFI 15fc4 $r14: .cfa -24 + ^ .cfa: $rsp 24 +
STACK CFI 15fc9 $r13: .cfa -32 + ^ .cfa: $rsp 32 +
STACK CFI 15fcb $r12: .cfa -40 + ^ .cfa: $rsp 40 +
STACK CFI 15fd3 $rbp: .cfa -48 + ^ .cfa: $rsp 48 +
STACK CFI 15fdb $rbx: .cfa -56 + ^ .cfa: $rsp 56 +
STACK CFI 15fe8 .cfa: $rsp 64 +
STACK CFI 1601a .cfa: $rsp 56 +
STACK CFI 1601b .cfa: $rsp 48 +
STACK CFI 1601c .cfa: $rsp 40 +
STACK CFI 1601e .cfa: $rsp 32 +
STACK CFI 16020 .cfa: $rsp 24 +
STACK CFI 16022 .cfa: $rsp 16 +
STACK CFI 16024 .cfa: $rsp 8 +
STACK CFI INIT 16030 2 .cfa: $rsp 8 + .ra: .cfa -8 + ^
