MODULE Linux x86_64 CFD67F2BBE95F53C3ED1D7617B0AE0F90 submarine_internal
INFO CODE_ID 2B7FD6CF95BE3CF53ED1D7617B0AE0F91F8C49A6
FUNC 1980 4a 0 google_breakpad::PageAllocator::FreeAll()
FUNC 19ca 20 0 google_breakpad::ProcCpuInfoReader::GetValueAndLen(unsigned long*)
FUNC 19ea 20 0 google_breakpad::TypedMDRVA<MDRawDirectory>::CopyIndex(unsigned int, MDRawDirectory*)
FUNC 1a0a 1d 0 google_breakpad::TypedMDRVA<MDRawDirectory>::CopyIndex(unsigned int, MDRawDirectory*)
FUNC 1a28 20 0 google_breakpad::TypedMDRVA<unsigned int>::CopyIndexAfterObject(unsigned int, void const*, unsigned long)
FUNC 1a48 20 0 MinidumpWriter::MinidumpWriter
FUNC 1a68 2c 0 MinidumpWriter::~MinidumpWriter
FUNC 1b96 17 0 dumpCallback
FUNC 1bad 1cc 0 _EQUAL()
FUNC 1d79 1cc 0 _0()
FUNC 1f45 1cc 0 _1()
FUNC 2111 1cc 0 _2()
FUNC 22dd 1cc 0 _3()
FUNC 24a9 1cc 0 _4()
FUNC 2675 1cc 0 _5()
FUNC 2841 1cc 0 _6()
FUNC 2a0d 1cc 0 _7()
FUNC 2bd9 1cc 0 _8()
FUNC 2da5 1cc 0 _9()
FUNC 2f71 1cc 0 _A()
FUNC 313d 1cc 0 _B()
FUNC 3309 1cc 0 _C()
FUNC 34d5 1cc 0 _D()
FUNC 36a1 1cc 0 _E()
FUNC 386d 1cc 0 _F()
FUNC 3a39 1cc 0 _G()
FUNC 3c05 1cc 0 _H()
FUNC 3dd1 1cc 0 _I()
FUNC 3f9d 1cc 0 _J()
FUNC 4169 1cc 0 _K()
FUNC 4335 1cc 0 _L()
FUNC 4501 1cc 0 _M()
FUNC 46cd 1cc 0 _N()
FUNC 4899 1cc 0 _O()
FUNC 4a65 1cc 0 _P()
FUNC 4c31 1cc 0 _Q()
FUNC 4dfd 1cc 0 _R()
FUNC 4fc9 1cc 0 _S()
FUNC 5195 1cc 0 _T()
FUNC 5361 1cc 0 _U()
FUNC 552d 1cc 0 _V()
FUNC 56f9 1cc 0 _W()
FUNC 58c5 1cc 0 _X()
FUNC 5a91 1cc 0 _Y()
FUNC 5c5d 1cc 0 _Z()
FUNC 5e29 1cc 0 _a()
FUNC 5ff5 1cc 0 _b()
FUNC 61c1 1cc 0 _c()
FUNC 638d 1cc 0 _d()
FUNC 6559 1cc 0 _e()
FUNC 6725 1cc 0 _f()
FUNC 68f1 1cc 0 _g()
FUNC 6abd 1cc 0 _h()
FUNC 6c89 1cc 0 _i()
FUNC 6e55 1cc 0 _j()
FUNC 7021 1cc 0 _k()
FUNC 71ed 1cc 0 _l()
FUNC 73b9 1cc 0 _m()
FUNC 7585 1cc 0 _n()
FUNC 7751 1cc 0 _o()
FUNC 791d 1cc 0 _p()
FUNC 7ae9 1cc 0 _q()
FUNC 7cb5 1cc 0 _r()
FUNC 7e81 1cc 0 _s()
FUNC 804d 1cc 0 _t()
FUNC 8219 1cc 0 _u()
FUNC 83e5 1cc 0 _v()
FUNC 85b1 1cc 0 _w()
FUNC 877d 1cc 0 _x()
FUNC 8949 1cc 0 _y()
FUNC 8b15 1cc 0 _z()
FUNC 8ce1 1cc 0 StartFlagProcessing()
FUNC 8ead 7 0 Execute()
FUNC 8eb4 133 0 main
FUNC 8fe8 3a 0 google_breakpad::MicrodumpExtraInfo::MicrodumpExtraInfo()
FUNC 9022 8d 0 google_breakpad::MinidumpDescriptor::MinidumpDescriptor(int)
FUNC 90b0 2f 0 google_breakpad::MinidumpDescriptor::~MinidumpDescriptor()
FUNC 90e0 14b 0 google_breakpad::ExceptionHandler::InstallHandlersLocked()
FUNC 9230 7c 0 google_breakpad::ExceptionHandler::RestoreHandlersLocked()
FUNC 92b0 341 0 google_breakpad::ExceptionHandler::~ExceptionHandler()
FUNC 9600 d1 0 google_breakpad::ExceptionHandler::SendContinueSignalToChild()
FUNC 96e0 4bc 0 google_breakpad::ExceptionHandler::GenerateDump(google_breakpad::ExceptionHandler::CrashContext*)
FUNC 9ba0 1da 0 google_breakpad::ExceptionHandler::HandleSignal(int, siginfo_t*, void*)
FUNC 9d80 1c1 0 google_breakpad::ExceptionHandler::SignalHandler(int, siginfo_t*, void*)
FUNC 9f50 7f 0 google_breakpad::ExceptionHandler::SimulateSignalDelivery(int)
FUNC 9fd0 e5 0 google_breakpad::ExceptionHandler::WaitForContinueSignal()
FUNC a0c0 8b 0 google_breakpad::ExceptionHandler::DoDump(int, void const*, unsigned long)
FUNC a150 28 0 google_breakpad::ExceptionHandler::ThreadEntry(void*)
FUNC a180 195 0 google_breakpad::ExceptionHandler::WriteMinidump()
FUNC a320 e3 0 google_breakpad::ExceptionHandler::AddMappingInfo(std::__cxx11::basic_string<char, std::char_traits<char>, std::allocator<char> > const&, unsigned char const*, unsigned long, unsigned long, unsigned long)
FUNC a410 91 0 google_breakpad::ExceptionHandler::RegisterAppMemory(void*, unsigned long)
FUNC a4b0 52 0 google_breakpad::ExceptionHandler::UnregisterAppMemory(void*)
FUNC a510 23d 0 google_breakpad::ExceptionHandler::WriteMinidumpForChild(int, int, std::__cxx11::basic_string<char, std::char_traits<char>, std::allocator<char> > const&, bool (*)(google_breakpad::MinidumpDescriptor const&, void*, bool), void*)
FUNC a750 396 0 google_breakpad::ExceptionHandler::ExceptionHandler(google_breakpad::MinidumpDescriptor const&, bool (*)(void*), bool (*)(google_breakpad::MinidumpDescriptor const&, void*, bool), void*, bool, int)
FUNC aaf0 27d 0 google_breakpad::ExceptionHandler::WriteMinidump(std::__cxx11::basic_string<char, std::char_traits<char>, std::allocator<char> > const&, bool (*)(google_breakpad::MinidumpDescriptor const&, void*, bool), void*)
FUNC ad70 ea 0 void std::vector<google_breakpad::ExceptionHandler*, std::allocator<google_breakpad::ExceptionHandler*> >::_M_emplace_back_aux<google_breakpad::ExceptionHandler*>(google_breakpad::ExceptionHandler*&&)
FUNC ae60 c2 0 void std::__cxx11::basic_string<char, std::char_traits<char>, std::allocator<char> >::_M_construct<char*>(char*, char*, std::forward_iterator_tag)
FUNC af30 a4 0 google_breakpad::MinidumpDescriptor::MinidumpDescriptor(google_breakpad::MinidumpDescriptor const&)
FUNC afe0 317 0 google_breakpad::MinidumpDescriptor::UpdatePath()
FUNC b300 a2 0 google_breakpad::MinidumpDescriptor::operator=(google_breakpad::MinidumpDescriptor const&)
FUNC b3b0 33 0 logger::write(char const*, unsigned long)
FUNC b3f0 1ab5 0 google_breakpad::WriteMicrodump(int, void const*, unsigned long, std::__cxx11::list<google_breakpad::MappingEntry, std::allocator<google_breakpad::MappingEntry> > const&, google_breakpad::MicrodumpExtraInfo const&)
FUNC ceb0 3ea 0 void std::vector<unsigned char, google_breakpad::PageStdAllocator<unsigned char> >::_M_range_insert<unsigned char const*>(__gnu_cxx::__normal_iterator<unsigned char*, std::vector<unsigned char, google_breakpad::PageStdAllocator<unsigned char> > >, unsigned char const*, unsigned char const*, std::forward_iterator_tag)
FUNC d2a0 6 0 google_breakpad::LinuxDumper::LateInit()
FUNC d2b0 835 0 google_breakpad::LinuxDumper::LinuxDumper(int, char const*)
FUNC daf0 67 0 google_breakpad::LinuxDumper::~LinuxDumper()
FUNC db60 12 0 google_breakpad::LinuxDumper::~LinuxDumper()
FUNC db80 4a 0 google_breakpad::LinuxDumper::GetMappingAbsolutePath(google_breakpad::MappingInfo const&, char*) const
FUNC dbd0 19f 0 ElfFileSoName
FUNC dd70 1a7 0 google_breakpad::LinuxDumper::HandleDeletedFileInMapping(char*) const
FUNC df20 e6 0 google_breakpad::LinuxDumper::GetMappingEffectiveNameAndPath(google_breakpad::MappingInfo const&, char*, unsigned long, char*, unsigned long)
FUNC e010 119 0 google_breakpad::LinuxDumper::ReadAuxv()
FUNC e130 32 0 google_breakpad::LinuxDumper::Init()
FUNC e170 4b 0 google_breakpad::LinuxDumper::FindMapping(void const*) const
FUNC e1c0 7d 0 google_breakpad::LinuxDumper::GetStackInfo(void const**, unsigned long*, unsigned long)
FUNC e240 53 0 google_breakpad::LinuxDumper::HandleDeletedFileInMapping(char*) const
FUNC e2a0 34b 0 google_breakpad::LinuxDumper::ElfFileIdentifierForMapping(google_breakpad::MappingInfo const&, bool, unsigned int, google_breakpad::wasteful_vector<unsigned char>&)
FUNC e5f0 930 0 google_breakpad::LinuxDumper::EnumerateMappings()
FUNC ef20 143 0 google_breakpad::PageAllocator::Alloc(unsigned long)
FUNC f070 288 0 std::vector<google_breakpad::MappingInfo*, google_breakpad::PageStdAllocator<google_breakpad::MappingInfo*> >::_M_default_append(unsigned long)
FUNC f300 3 0 google_breakpad::LinuxPtraceDumper::IsPostMortem() const
FUNC f310 187 0 google_breakpad::LinuxPtraceDumper::CopyFromProcess(void*, int, void const*, unsigned long)
FUNC f4a0 bb 0 google_breakpad::LinuxPtraceDumper::BuildProcPath(char*, int, char const*) const
FUNC f560 bc 0 google_breakpad::LinuxPtraceDumper::ThreadsResume()
FUNC f620 5fd 0 google_breakpad::LinuxPtraceDumper::EnumerateThreads()
FUNC fc20 51d 0 google_breakpad::LinuxPtraceDumper::GetThreadInfoByIndex(unsigned long, google_breakpad::ThreadInfo*)
FUNC 10140 27 0 google_breakpad::LinuxPtraceDumper::LinuxPtraceDumper(int)
FUNC 10170 251 0 google_breakpad::LinuxPtraceDumper::ThreadsSuspend()
FUNC 103d0 13 0 google_breakpad::LinuxPtraceDumper::~LinuxPtraceDumper()
FUNC 103f0 20 0 google_breakpad::LinuxPtraceDumper::~LinuxPtraceDumper()
FUNC 10410 288 0 std::vector<int, google_breakpad::PageStdAllocator<int> >::_M_default_append(unsigned long)
FUNC 106a0 e0e 0 MinidumpWriter::WriteThreadListStream
FUNC 114b0 218d 0 MinidumpWriter::Dump
FUNC 13640 343 0 google_breakpad::WriteMinidump(char const*, std::__cxx11::list<google_breakpad::MappingEntry, std::allocator<google_breakpad::MappingEntry> > const&, std::__cxx11::list<google_breakpad::AppMemory, std::allocator<google_breakpad::AppMemory> > const&, google_breakpad::LinuxDumper*)
FUNC 13990 496 0 google_breakpad::WriteMinidump(char const*, int, int)
FUNC 13e30 422 0 WriteMinidumpImpl
FUNC 14260 109 0 google_breakpad::WriteMinidump(char const*, int, void const*, unsigned long)
FUNC 14370 109 0 google_breakpad::WriteMinidump(int, int, void const*, unsigned long)
FUNC 14480 26 0 google_breakpad::WriteMinidump(char const*, int, void const*, unsigned long, std::__cxx11::list<google_breakpad::MappingEntry, std::allocator<google_breakpad::MappingEntry> > const&, std::__cxx11::list<google_breakpad::AppMemory, std::allocator<google_breakpad::AppMemory> > const&)
FUNC 144b0 25 0 google_breakpad::WriteMinidump(int, int, void const*, unsigned long, std::__cxx11::list<google_breakpad::MappingEntry, std::allocator<google_breakpad::MappingEntry> > const&, std::__cxx11::list<google_breakpad::AppMemory, std::allocator<google_breakpad::AppMemory> > const&)
FUNC 144e0 24 0 google_breakpad::WriteMinidump(char const*, long, int, void const*, unsigned long, std::__cxx11::list<google_breakpad::MappingEntry, std::allocator<google_breakpad::MappingEntry> > const&, std::__cxx11::list<google_breakpad::AppMemory, std::allocator<google_breakpad::AppMemory> > const&)
FUNC 14510 23 0 google_breakpad::WriteMinidump(int, long, int, void const*, unsigned long, std::__cxx11::list<google_breakpad::MappingEntry, std::allocator<google_breakpad::MappingEntry> > const&, std::__cxx11::list<google_breakpad::AppMemory, std::allocator<google_breakpad::AppMemory> > const&)
FUNC 14540 259 0 google_breakpad::ProcCpuInfoReader::GetNextField(char const**)
FUNC 147a0 257 0 std::vector<char, google_breakpad::PageStdAllocator<char> >::resize(unsigned long)
FUNC 14a00 250 0 void std::vector<MDMemoryDescriptor, google_breakpad::PageStdAllocator<MDMemoryDescriptor> >::_M_emplace_back_aux<MDMemoryDescriptor const&>(MDMemoryDescriptor const&)
FUNC 14c50 23 0 google_breakpad::TypedMDRVA<MDString>::CopyIndexAfterObject(unsigned int, void const*, unsigned long)
FUNC 14c80 1a 0 google_breakpad::MinidumpFileWriter::MinidumpFileWriter()
FUNC 14ca0 78 0 google_breakpad::MinidumpFileWriter::Open(char const*)
FUNC 14d20 2c 0 google_breakpad::MinidumpFileWriter::SetFile(int)
FUNC 14d50 5d 0 google_breakpad::MinidumpFileWriter::Close()
FUNC 14db0 15 0 google_breakpad::MinidumpFileWriter::~MinidumpFileWriter()
FUNC 14dd0 b6 0 google_breakpad::MinidumpFileWriter::Allocate(unsigned long)
FUNC 14e90 ff 0 google_breakpad::MinidumpFileWriter::Copy(unsigned int, void const*, long)
FUNC 14f90 f0 0 google_breakpad::MinidumpFileWriter::CopyStringToMDString(wchar_t const*, unsigned int, google_breakpad::TypedMDRVA<MDString>*)
FUNC 15080 ef 0 google_breakpad::MinidumpFileWriter::CopyStringToMDString(char const*, unsigned int, google_breakpad::TypedMDRVA<MDString>*)
FUNC 15170 41 0 google_breakpad::UntypedMDRVA::Allocate(unsigned long)
FUNC 151c0 89 0 google_breakpad::UntypedMDRVA::Copy(unsigned int, void const*, unsigned long)
FUNC 15250 df 0 google_breakpad::MinidumpFileWriter::WriteMemory(void const*, unsigned long, MDMemoryDescriptor*)
FUNC 15330 5 0 google_breakpad::MinidumpFileWriter::WriteString(wchar_t const*, unsigned int, MDLocationDescriptor*)
FUNC 15340 5 0 google_breakpad::MinidumpFileWriter::WriteString(char const*, unsigned int, MDLocationDescriptor*)
FUNC 15350 23a 0 bool google_breakpad::MinidumpFileWriter::WriteStringCore<wchar_t>(wchar_t const*, unsigned int, MDLocationDescriptor*)
FUNC 15590 23a 0 bool google_breakpad::MinidumpFileWriter::WriteStringCore<char>(char const*, unsigned int, MDLocationDescriptor*)
FUNC 157d0 c2 0 void std::__cxx11::basic_string<char, std::char_traits<char>, std::allocator<char> >::_M_construct<char const*>(char const*, char const*, std::forward_iterator_tag)
FUNC 158a0 b1 0 google_breakpad::UTF8ToUTF16Char(char const*, int, unsigned short*)
FUNC 15960 7b 0 google_breakpad::UTF32ToUTF16Char(wchar_t, unsigned short*)
FUNC 159e0 173 0 google_breakpad::UTF16ToUTF8[abi:cxx11](std::vector<unsigned short, std::allocator<unsigned short> > const&, bool)
FUNC 15b60 f0 0 google_breakpad::UTF32ToUTF16(wchar_t const*, std::vector<unsigned short, std::allocator<unsigned short> >*)
FUNC 15c50 e8 0 google_breakpad::UTF8ToUTF16(char const*, std::vector<unsigned short, std::allocator<unsigned short> >*)
FUNC 15d40 2bd 0 std::vector<unsigned short, std::allocator<unsigned short> >::_M_fill_insert(__gnu_cxx::__normal_iterator<unsigned short*, std::vector<unsigned short, std::allocator<unsigned short> > >, unsigned long, unsigned short const&)
FUNC 16000 14d 0 std::vector<unsigned short, std::allocator<unsigned short> >::_M_default_append(unsigned long)
FUNC 16150 1f 0 google_breakpad::IsValidElf(void const*)
FUNC 16170 5 0 google_breakpad::ElfClass(void const*)
FUNC 16180 452 0 google_breakpad::FindElfSection(void const*, char const*, unsigned int, void const**, unsigned long*, int*)
FUNC 165e0 287 0 google_breakpad::FindElfSegment(void const*, unsigned int, void const**, unsigned long*, int*)
FUNC 16870 135 0 google_breakpad::bytes_to_hex_string
FUNC 169b0 e2 0 google_breakpad::FileID::FileID(char const*)
FUNC 16aa0 c7 0 google_breakpad::FileID::ConvertIdentifierToUUIDString[abi:cxx11](google_breakpad::wasteful_vector<unsigned char> const&)
FUNC 16b70 49 0 google_breakpad::FileID::ConvertIdentifierToString[abi:cxx11](google_breakpad::wasteful_vector<unsigned char> const&)
FUNC 16bc0 462 0 google_breakpad::FileID::ElfFileIdentifierFromMappedFile(void const*, google_breakpad::wasteful_vector<unsigned char>&)
FUNC 17030 7c 0 google_breakpad::FileID::ElfFileIdentifier(google_breakpad::wasteful_vector<unsigned char>&)
FUNC 170b0 73 0 CreateGUID(MDGUID*)
FUNC 17130 75 0 GUIDToString(MDGUID const*, char*, int)
FUNC 171b0 16 0 GUIDGenerator::InitOnceImpl()
FUNC 171d0 1e 0 my_strlen
FUNC 171f0 46 0 my_strcmp
FUNC 17240 56 0 my_strncmp
FUNC 172a0 4c 0 my_strtoui
FUNC 172f0 39 0 my_uint_len
FUNC 17330 3c 0 my_uitos
FUNC 17370 34 0 my_strchr
FUNC 173b0 26 0 my_strrchr
FUNC 173e0 34 0 my_memchr
FUNC 17420 7c 0 my_read_hex_ptr
FUNC 174a0 3a 0 my_read_decimal_ptr
FUNC 174e0 1f 0 my_memset
FUNC 17500 38 0 my_strlcpy
FUNC 17540 3b 0 my_strlcat
FUNC 17580 6c 0 my_isspace
FUNC 175f0 10 0 google_breakpad::MemoryMappedFile::MemoryMappedFile()
FUNC 17600 4b 0 google_breakpad::MemoryMappedFile::Unmap()
FUNC 17650 5 0 google_breakpad::MemoryMappedFile::~MemoryMappedFile()
FUNC 17660 1af 0 google_breakpad::MemoryMappedFile::Map(char const*, unsigned long)
FUNC 17810 14 0 google_breakpad::MemoryMappedFile::MemoryMappedFile(char const*, unsigned long)
FUNC 17830 40 0 google_breakpad::SafeReadLink(char const*, char*, unsigned long)
FUNC 17870 2 0 CrashGenerationClientImpl::~CrashGenerationClientImpl
FUNC 17880 213 0 CrashGenerationClientImpl::RequestDump
FUNC 17aa0 5 0 CrashGenerationClientImpl::~CrashGenerationClientImpl
FUNC 17ab0 23 0 google_breakpad::CrashGenerationClient::TryCreate(int)
FUNC 17ae0 8 0 google_breakpad::ThreadInfo::GetInstructionPointer() const
FUNC 17af0 2fc 0 google_breakpad::ThreadInfo::FillCPUContext(MDRawContextAMD64*) const
FUNC 17df0 44 0 google_breakpad::ThreadInfo::GetGeneralPurposeRegisters(void**, unsigned long*)
FUNC 17e40 47 0 google_breakpad::ThreadInfo::GetFloatingPointRegisters(void**, unsigned long*)
FUNC 17e90 8 0 google_breakpad::UContextReader::GetStackPointer(ucontext const*)
FUNC 17ea0 8 0 google_breakpad::UContextReader::GetInstructionPointer(ucontext const*)
FUNC 17eb0 25c 0 google_breakpad::UContextReader::FillCPUContext(MDRawContextAMD64*, ucontext const*, _libc_fpstate const*)
FUNC 18110 c7 0 isLegalUTF8
FUNC 181e0 fd 0 ConvertUTF32toUTF16
FUNC 182e0 118 0 ConvertUTF16toUTF32
FUNC 18400 1ff 0 ConvertUTF16toUTF8
FUNC 18600 2b 0 isLegalUTF8Sequence
FUNC 18630 26f 0 ConvertUTF8toUTF16
FUNC 188a0 19a 0 ConvertUTF32toUTF8
FUNC 18a40 287 0 ConvertUTF8toUTF32
PUBLIC 15c8 0 _init
PUBLIC 1980 0 google_breakpad::PageAllocator::FreeAll() [clone .isra.7]
PUBLIC 19ca 0 google_breakpad::ProcCpuInfoReader::GetValueAndLen(unsigned long*) [clone .isra.19] [clone .part.20]
PUBLIC 19ea 0 google_breakpad::TypedMDRVA<MDRawDirectory>::CopyIndex(unsigned int, MDRawDirectory*) [clone .isra.31] [clone .part.32]
PUBLIC 1a0a 0 google_breakpad::TypedMDRVA<MDRawDirectory>::CopyIndex(unsigned int, MDRawDirectory*) [clone .isra.31]
PUBLIC 1a28 0 google_breakpad::TypedMDRVA<unsigned int>::CopyIndexAfterObject(unsigned int, void const*, unsigned long) [clone .isra.33] [clone .part.34]
PUBLIC 1a48 0 (anonymous namespace)::MinidumpWriter::MinidumpWriter(char const*, int, google_breakpad::ExceptionHandler::CrashContext const*, std::__cxx11::list<google_breakpad::MappingEntry, std::allocator<google_breakpad::MappingEntry> > const&, std::__cxx11::list<google_breakpad::AppMemory, std::allocator<google_breakpad::AppMemory> > const&, google_breakpad::LinuxDumper*) [clone .part.92]
PUBLIC 1a68 0 (anonymous namespace)::MinidumpWriter::~MinidumpWriter() [clone .constprop.118]
PUBLIC 1aa0 0 _start
PUBLIC 1ad0 0 deregister_tm_clones
PUBLIC 1b10 0 register_tm_clones
PUBLIC 1b50 0 __do_global_dtors_aux
PUBLIC 1b70 0 frame_dummy
PUBLIC 1b96 0 dumpCallback(google_breakpad::MinidumpDescriptor const&, void*, bool)
PUBLIC 1bad 0 _EQUAL()
PUBLIC 1d79 0 _0()
PUBLIC 1f45 0 _1()
PUBLIC 2111 0 _2()
PUBLIC 22dd 0 _3()
PUBLIC 24a9 0 _4()
PUBLIC 2675 0 _5()
PUBLIC 2841 0 _6()
PUBLIC 2a0d 0 _7()
PUBLIC 2bd9 0 _8()
PUBLIC 2da5 0 _9()
PUBLIC 2f71 0 _A()
PUBLIC 313d 0 _B()
PUBLIC 3309 0 _C()
PUBLIC 34d5 0 _D()
PUBLIC 36a1 0 _E()
PUBLIC 386d 0 _F()
PUBLIC 3a39 0 _G()
PUBLIC 3c05 0 _H()
PUBLIC 3dd1 0 _I()
PUBLIC 3f9d 0 _J()
PUBLIC 4169 0 _K()
PUBLIC 4335 0 _L()
PUBLIC 4501 0 _M()
PUBLIC 46cd 0 _N()
PUBLIC 4899 0 _O()
PUBLIC 4a65 0 _P()
PUBLIC 4c31 0 _Q()
PUBLIC 4dfd 0 _R()
PUBLIC 4fc9 0 _S()
PUBLIC 5195 0 _T()
PUBLIC 5361 0 _U()
PUBLIC 552d 0 _V()
PUBLIC 56f9 0 _W()
PUBLIC 58c5 0 _X()
PUBLIC 5a91 0 _Y()
PUBLIC 5c5d 0 _Z()
PUBLIC 5e29 0 _a()
PUBLIC 5ff5 0 _b()
PUBLIC 61c1 0 _c()
PUBLIC 638d 0 _d()
PUBLIC 6559 0 _e()
PUBLIC 6725 0 _f()
PUBLIC 68f1 0 _g()
PUBLIC 6abd 0 _h()
PUBLIC 6c89 0 _i()
PUBLIC 6e55 0 _j()
PUBLIC 7021 0 _k()
PUBLIC 71ed 0 _l()
PUBLIC 73b9 0 _m()
PUBLIC 7585 0 _n()
PUBLIC 7751 0 _o()
PUBLIC 791d 0 _p()
PUBLIC 7ae9 0 _q()
PUBLIC 7cb5 0 _r()
PUBLIC 7e81 0 _s()
PUBLIC 804d 0 _t()
PUBLIC 8219 0 _u()
PUBLIC 83e5 0 _v()
PUBLIC 85b1 0 _w()
PUBLIC 877d 0 _x()
PUBLIC 8949 0 _y()
PUBLIC 8b15 0 _z()
PUBLIC 8ce1 0 StartFlagProcessing()
PUBLIC 8ead 0 Execute()
PUBLIC 8eb4 0 main
PUBLIC 8fe8 0 google_breakpad::MicrodumpExtraInfo::MicrodumpExtraInfo()
PUBLIC 9022 0 google_breakpad::MinidumpDescriptor::MinidumpDescriptor(int)
PUBLIC 90b0 0 google_breakpad::MinidumpDescriptor::~MinidumpDescriptor()
PUBLIC 90e0 0 google_breakpad::ExceptionHandler::InstallHandlersLocked()
PUBLIC 9230 0 google_breakpad::ExceptionHandler::RestoreHandlersLocked()
PUBLIC 92b0 0 google_breakpad::ExceptionHandler::~ExceptionHandler()
PUBLIC 9600 0 google_breakpad::ExceptionHandler::SendContinueSignalToChild()
PUBLIC 96e0 0 google_breakpad::ExceptionHandler::GenerateDump(google_breakpad::ExceptionHandler::CrashContext*)
PUBLIC 9ba0 0 google_breakpad::ExceptionHandler::HandleSignal(int, siginfo_t*, void*)
PUBLIC 9d80 0 google_breakpad::ExceptionHandler::SignalHandler(int, siginfo_t*, void*)
PUBLIC 9f50 0 google_breakpad::ExceptionHandler::SimulateSignalDelivery(int)
PUBLIC 9fd0 0 google_breakpad::ExceptionHandler::WaitForContinueSignal()
PUBLIC a0c0 0 google_breakpad::ExceptionHandler::DoDump(int, void const*, unsigned long)
PUBLIC a150 0 google_breakpad::ExceptionHandler::ThreadEntry(void*)
PUBLIC a180 0 google_breakpad::ExceptionHandler::WriteMinidump()
PUBLIC a320 0 google_breakpad::ExceptionHandler::AddMappingInfo(std::__cxx11::basic_string<char, std::char_traits<char>, std::allocator<char> > const&, unsigned char const*, unsigned long, unsigned long, unsigned long)
PUBLIC a410 0 google_breakpad::ExceptionHandler::RegisterAppMemory(void*, unsigned long)
PUBLIC a4b0 0 google_breakpad::ExceptionHandler::UnregisterAppMemory(void*)
PUBLIC a510 0 google_breakpad::ExceptionHandler::WriteMinidumpForChild(int, int, std::__cxx11::basic_string<char, std::char_traits<char>, std::allocator<char> > const&, bool (*)(google_breakpad::MinidumpDescriptor const&, void*, bool), void*)
PUBLIC a750 0 google_breakpad::ExceptionHandler::ExceptionHandler(google_breakpad::MinidumpDescriptor const&, bool (*)(void*), bool (*)(google_breakpad::MinidumpDescriptor const&, void*, bool), void*, bool, int)
PUBLIC aaf0 0 google_breakpad::ExceptionHandler::WriteMinidump(std::__cxx11::basic_string<char, std::char_traits<char>, std::allocator<char> > const&, bool (*)(google_breakpad::MinidumpDescriptor const&, void*, bool), void*)
PUBLIC ad70 0 void std::vector<google_breakpad::ExceptionHandler*, std::allocator<google_breakpad::ExceptionHandler*> >::_M_emplace_back_aux<google_breakpad::ExceptionHandler*>(google_breakpad::ExceptionHandler*&&)
PUBLIC ae60 0 void std::__cxx11::basic_string<char, std::char_traits<char>, std::allocator<char> >::_M_construct<char*>(char*, char*, std::forward_iterator_tag) [clone .isra.16]
PUBLIC af30 0 google_breakpad::MinidumpDescriptor::MinidumpDescriptor(google_breakpad::MinidumpDescriptor const&)
PUBLIC afe0 0 google_breakpad::MinidumpDescriptor::UpdatePath()
PUBLIC b300 0 google_breakpad::MinidumpDescriptor::operator=(google_breakpad::MinidumpDescriptor const&)
PUBLIC b3b0 0 logger::write(char const*, unsigned long)
PUBLIC b3f0 0 google_breakpad::WriteMicrodump(int, void const*, unsigned long, std::__cxx11::list<google_breakpad::MappingEntry, std::allocator<google_breakpad::MappingEntry> > const&, google_breakpad::MicrodumpExtraInfo const&)
PUBLIC ceb0 0 void std::vector<unsigned char, google_breakpad::PageStdAllocator<unsigned char> >::_M_range_insert<unsigned char const*>(__gnu_cxx::__normal_iterator<unsigned char*, std::vector<unsigned char, google_breakpad::PageStdAllocator<unsigned char> > >, unsigned char const*, unsigned char const*, std::forward_iterator_tag)
PUBLIC d2a0 0 google_breakpad::LinuxDumper::LateInit()
PUBLIC d2b0 0 google_breakpad::LinuxDumper::LinuxDumper(int, char const*)
PUBLIC daf0 0 google_breakpad::LinuxDumper::~LinuxDumper()
PUBLIC db60 0 google_breakpad::LinuxDumper::~LinuxDumper()
PUBLIC db80 0 google_breakpad::LinuxDumper::GetMappingAbsolutePath(google_breakpad::MappingInfo const&, char*) const
PUBLIC dbd0 0 google_breakpad::(anonymous namespace)::ElfFileSoName(google_breakpad::LinuxDumper const&, google_breakpad::MappingInfo const&, char*, unsigned long) [clone .constprop.56]
PUBLIC dd70 0 google_breakpad::LinuxDumper::HandleDeletedFileInMapping(char*) const [clone .part.10] [clone .constprop.57]
PUBLIC df20 0 google_breakpad::LinuxDumper::GetMappingEffectiveNameAndPath(google_breakpad::MappingInfo const&, char*, unsigned long, char*, unsigned long)
PUBLIC e010 0 google_breakpad::LinuxDumper::ReadAuxv()
PUBLIC e130 0 google_breakpad::LinuxDumper::Init()
PUBLIC e170 0 google_breakpad::LinuxDumper::FindMapping(void const*) const
PUBLIC e1c0 0 google_breakpad::LinuxDumper::GetStackInfo(void const**, unsigned long*, unsigned long)
PUBLIC e240 0 google_breakpad::LinuxDumper::HandleDeletedFileInMapping(char*) const
PUBLIC e2a0 0 google_breakpad::LinuxDumper::ElfFileIdentifierForMapping(google_breakpad::MappingInfo const&, bool, unsigned int, google_breakpad::wasteful_vector<unsigned char>&)
PUBLIC e5f0 0 google_breakpad::LinuxDumper::EnumerateMappings()
PUBLIC ef20 0 google_breakpad::PageAllocator::Alloc(unsigned long)
PUBLIC f070 0 std::vector<google_breakpad::MappingInfo*, google_breakpad::PageStdAllocator<google_breakpad::MappingInfo*> >::_M_default_append(unsigned long)
PUBLIC f300 0 google_breakpad::LinuxPtraceDumper::IsPostMortem() const
PUBLIC f310 0 google_breakpad::LinuxPtraceDumper::CopyFromProcess(void*, int, void const*, unsigned long)
PUBLIC f4a0 0 google_breakpad::LinuxPtraceDumper::BuildProcPath(char*, int, char const*) const
PUBLIC f560 0 google_breakpad::LinuxPtraceDumper::ThreadsResume()
PUBLIC f620 0 google_breakpad::LinuxPtraceDumper::EnumerateThreads()
PUBLIC fc20 0 google_breakpad::LinuxPtraceDumper::GetThreadInfoByIndex(unsigned long, google_breakpad::ThreadInfo*)
PUBLIC 10140 0 google_breakpad::LinuxPtraceDumper::LinuxPtraceDumper(int)
PUBLIC 10170 0 google_breakpad::LinuxPtraceDumper::ThreadsSuspend()
PUBLIC 103d0 0 google_breakpad::LinuxPtraceDumper::~LinuxPtraceDumper()
PUBLIC 103f0 0 google_breakpad::LinuxPtraceDumper::~LinuxPtraceDumper()
PUBLIC 10410 0 std::vector<int, google_breakpad::PageStdAllocator<int> >::_M_default_append(unsigned long)
PUBLIC 106a0 0 (anonymous namespace)::MinidumpWriter::WriteThreadListStream(MDRawDirectory*) [clone .constprop.104]
PUBLIC 114b0 0 (anonymous namespace)::MinidumpWriter::Dump() [clone .constprop.103]
PUBLIC 13640 0 google_breakpad::WriteMinidump(char const*, std::__cxx11::list<google_breakpad::MappingEntry, std::allocator<google_breakpad::MappingEntry> > const&, std::__cxx11::list<google_breakpad::AppMemory, std::allocator<google_breakpad::AppMemory> > const&, google_breakpad::LinuxDumper*)
PUBLIC 13990 0 google_breakpad::WriteMinidump(char const*, int, int)
PUBLIC 13e30 0 (anonymous namespace)::WriteMinidumpImpl(char const*, int, long, int, void const*, unsigned long, std::__cxx11::list<google_breakpad::MappingEntry, std::allocator<google_breakpad::MappingEntry> > const&, std::__cxx11::list<google_breakpad::AppMemory, std::allocator<google_breakpad::AppMemory> > const&)
PUBLIC 14260 0 google_breakpad::WriteMinidump(char const*, int, void const*, unsigned long)
PUBLIC 14370 0 google_breakpad::WriteMinidump(int, int, void const*, unsigned long)
PUBLIC 14480 0 google_breakpad::WriteMinidump(char const*, int, void const*, unsigned long, std::__cxx11::list<google_breakpad::MappingEntry, std::allocator<google_breakpad::MappingEntry> > const&, std::__cxx11::list<google_breakpad::AppMemory, std::allocator<google_breakpad::AppMemory> > const&)
PUBLIC 144b0 0 google_breakpad::WriteMinidump(int, int, void const*, unsigned long, std::__cxx11::list<google_breakpad::MappingEntry, std::allocator<google_breakpad::MappingEntry> > const&, std::__cxx11::list<google_breakpad::AppMemory, std::allocator<google_breakpad::AppMemory> > const&)
PUBLIC 144e0 0 google_breakpad::WriteMinidump(char const*, long, int, void const*, unsigned long, std::__cxx11::list<google_breakpad::MappingEntry, std::allocator<google_breakpad::MappingEntry> > const&, std::__cxx11::list<google_breakpad::AppMemory, std::allocator<google_breakpad::AppMemory> > const&)
PUBLIC 14510 0 google_breakpad::WriteMinidump(int, long, int, void const*, unsigned long, std::__cxx11::list<google_breakpad::MappingEntry, std::allocator<google_breakpad::MappingEntry> > const&, std::__cxx11::list<google_breakpad::AppMemory, std::allocator<google_breakpad::AppMemory> > const&)
PUBLIC 14540 0 google_breakpad::ProcCpuInfoReader::GetNextField(char const**)
PUBLIC 147a0 0 std::vector<char, google_breakpad::PageStdAllocator<char> >::resize(unsigned long)
PUBLIC 14a00 0 void std::vector<MDMemoryDescriptor, google_breakpad::PageStdAllocator<MDMemoryDescriptor> >::_M_emplace_back_aux<MDMemoryDescriptor const&>(MDMemoryDescriptor const&)
PUBLIC 14c50 0 google_breakpad::TypedMDRVA<MDString>::CopyIndexAfterObject(unsigned int, void const*, unsigned long) [clone .isra.7] [clone .part.8]
PUBLIC 14c80 0 google_breakpad::MinidumpFileWriter::MinidumpFileWriter()
PUBLIC 14ca0 0 google_breakpad::MinidumpFileWriter::Open(char const*)
PUBLIC 14d20 0 google_breakpad::MinidumpFileWriter::SetFile(int)
PUBLIC 14d50 0 google_breakpad::MinidumpFileWriter::Close()
PUBLIC 14db0 0 google_breakpad::MinidumpFileWriter::~MinidumpFileWriter()
PUBLIC 14dd0 0 google_breakpad::MinidumpFileWriter::Allocate(unsigned long)
PUBLIC 14e90 0 google_breakpad::MinidumpFileWriter::Copy(unsigned int, void const*, long)
PUBLIC 14f90 0 google_breakpad::MinidumpFileWriter::CopyStringToMDString(wchar_t const*, unsigned int, google_breakpad::TypedMDRVA<MDString>*)
PUBLIC 15080 0 google_breakpad::MinidumpFileWriter::CopyStringToMDString(char const*, unsigned int, google_breakpad::TypedMDRVA<MDString>*)
PUBLIC 15170 0 google_breakpad::UntypedMDRVA::Allocate(unsigned long)
PUBLIC 151c0 0 google_breakpad::UntypedMDRVA::Copy(unsigned int, void const*, unsigned long)
PUBLIC 15250 0 google_breakpad::MinidumpFileWriter::WriteMemory(void const*, unsigned long, MDMemoryDescriptor*)
PUBLIC 15330 0 google_breakpad::MinidumpFileWriter::WriteString(wchar_t const*, unsigned int, MDLocationDescriptor*)
PUBLIC 15340 0 google_breakpad::MinidumpFileWriter::WriteString(char const*, unsigned int, MDLocationDescriptor*)
PUBLIC 15350 0 bool google_breakpad::MinidumpFileWriter::WriteStringCore<wchar_t>(wchar_t const*, unsigned int, MDLocationDescriptor*)
PUBLIC 15590 0 bool google_breakpad::MinidumpFileWriter::WriteStringCore<char>(char const*, unsigned int, MDLocationDescriptor*)
PUBLIC 157d0 0 void std::__cxx11::basic_string<char, std::char_traits<char>, std::allocator<char> >::_M_construct<char const*>(char const*, char const*, std::forward_iterator_tag) [clone .isra.34]
PUBLIC 158a0 0 google_breakpad::UTF8ToUTF16Char(char const*, int, unsigned short*)
PUBLIC 15960 0 google_breakpad::UTF32ToUTF16Char(wchar_t, unsigned short*)
PUBLIC 159e0 0 google_breakpad::UTF16ToUTF8[abi:cxx11](std::vector<unsigned short, std::allocator<unsigned short> > const&, bool)
PUBLIC 15b60 0 google_breakpad::UTF32ToUTF16(wchar_t const*, std::vector<unsigned short, std::allocator<unsigned short> >*)
PUBLIC 15c50 0 google_breakpad::UTF8ToUTF16(char const*, std::vector<unsigned short, std::allocator<unsigned short> >*)
PUBLIC 15d40 0 std::vector<unsigned short, std::allocator<unsigned short> >::_M_fill_insert(__gnu_cxx::__normal_iterator<unsigned short*, std::vector<unsigned short, std::allocator<unsigned short> > >, unsigned long, unsigned short const&)
PUBLIC 16000 0 std::vector<unsigned short, std::allocator<unsigned short> >::_M_default_append(unsigned long)
PUBLIC 16150 0 google_breakpad::IsValidElf(void const*)
PUBLIC 16170 0 google_breakpad::ElfClass(void const*)
PUBLIC 16180 0 google_breakpad::FindElfSection(void const*, char const*, unsigned int, void const**, unsigned long*, int*)
PUBLIC 165e0 0 google_breakpad::FindElfSegment(void const*, unsigned int, void const**, unsigned long*, int*)
PUBLIC 16870 0 google_breakpad::bytes_to_hex_string(unsigned char const*, unsigned long)
PUBLIC 169b0 0 google_breakpad::FileID::FileID(char const*)
PUBLIC 16aa0 0 google_breakpad::FileID::ConvertIdentifierToUUIDString[abi:cxx11](google_breakpad::wasteful_vector<unsigned char> const&)
PUBLIC 16b70 0 google_breakpad::FileID::ConvertIdentifierToString[abi:cxx11](google_breakpad::wasteful_vector<unsigned char> const&)
PUBLIC 16bc0 0 google_breakpad::FileID::ElfFileIdentifierFromMappedFile(void const*, google_breakpad::wasteful_vector<unsigned char>&)
PUBLIC 17030 0 google_breakpad::FileID::ElfFileIdentifier(google_breakpad::wasteful_vector<unsigned char>&)
PUBLIC 170b0 0 CreateGUID(MDGUID*)
PUBLIC 17130 0 GUIDToString(MDGUID const*, char*, int)
PUBLIC 171b0 0 GUIDGenerator::InitOnceImpl()
PUBLIC 171d0 0 my_strlen
PUBLIC 171f0 0 my_strcmp
PUBLIC 17240 0 my_strncmp
PUBLIC 172a0 0 my_strtoui
PUBLIC 172f0 0 my_uint_len
PUBLIC 17330 0 my_uitos
PUBLIC 17370 0 my_strchr
PUBLIC 173b0 0 my_strrchr
PUBLIC 173e0 0 my_memchr
PUBLIC 17420 0 my_read_hex_ptr
PUBLIC 174a0 0 my_read_decimal_ptr
PUBLIC 174e0 0 my_memset
PUBLIC 17500 0 my_strlcpy
PUBLIC 17540 0 my_strlcat
PUBLIC 17580 0 my_isspace
PUBLIC 175f0 0 google_breakpad::MemoryMappedFile::MemoryMappedFile()
PUBLIC 17600 0 google_breakpad::MemoryMappedFile::Unmap()
PUBLIC 17650 0 google_breakpad::MemoryMappedFile::~MemoryMappedFile()
PUBLIC 17660 0 google_breakpad::MemoryMappedFile::Map(char const*, unsigned long)
PUBLIC 17810 0 google_breakpad::MemoryMappedFile::MemoryMappedFile(char const*, unsigned long)
PUBLIC 17830 0 google_breakpad::SafeReadLink(char const*, char*, unsigned long)
PUBLIC 17870 0 google_breakpad::(anonymous namespace)::CrashGenerationClientImpl::~CrashGenerationClientImpl()
PUBLIC 17880 0 google_breakpad::(anonymous namespace)::CrashGenerationClientImpl::RequestDump(void const*, unsigned long)
PUBLIC 17aa0 0 google_breakpad::(anonymous namespace)::CrashGenerationClientImpl::~CrashGenerationClientImpl()
PUBLIC 17ab0 0 google_breakpad::CrashGenerationClient::TryCreate(int)
PUBLIC 17ae0 0 google_breakpad::ThreadInfo::GetInstructionPointer() const
PUBLIC 17af0 0 google_breakpad::ThreadInfo::FillCPUContext(MDRawContextAMD64*) const
PUBLIC 17df0 0 google_breakpad::ThreadInfo::GetGeneralPurposeRegisters(void**, unsigned long*)
PUBLIC 17e40 0 google_breakpad::ThreadInfo::GetFloatingPointRegisters(void**, unsigned long*)
PUBLIC 17e90 0 google_breakpad::UContextReader::GetStackPointer(ucontext const*)
PUBLIC 17ea0 0 google_breakpad::UContextReader::GetInstructionPointer(ucontext const*)
PUBLIC 17eb0 0 google_breakpad::UContextReader::FillCPUContext(MDRawContextAMD64*, ucontext const*, _libc_fpstate const*)
PUBLIC 18110 0 isLegalUTF8
PUBLIC 181e0 0 ConvertUTF32toUTF16
PUBLIC 182e0 0 ConvertUTF16toUTF32
PUBLIC 18400 0 ConvertUTF16toUTF8
PUBLIC 18600 0 isLegalUTF8Sequence
PUBLIC 18630 0 ConvertUTF8toUTF16
PUBLIC 188a0 0 ConvertUTF32toUTF8
PUBLIC 18a40 0 ConvertUTF8toUTF32
PUBLIC 18cd0 0 __libc_csu_init
PUBLIC 18d40 0 __libc_csu_fini
PUBLIC 18d44 0 _fini
STACK CFI INIT 1aa0 2a .cfa: $rsp 8 + .ra: .cfa -8 + ^
STACK CFI INIT 15f0 380 .cfa: $rsp 16 + .ra: .cfa -8 + ^
STACK CFI 15f6 .cfa: $rsp 24 +
STACK CFI INIT 8fe8 3a .cfa: $rsp 8 + .ra: .cfa -8 + ^
STACK CFI 8fe9 $rbp: .cfa -16 + ^ .cfa: $rsp 16 +
STACK CFI 8fec .cfa: $rbp 16 +
STACK CFI 9021 .cfa: $rsp 8 +
STACK CFI INIT 9022 8d .cfa: $rsp 8 + .ra: .cfa -8 + ^
STACK CFI 9023 $rbp: .cfa -16 + ^ .cfa: $rsp 16 +
STACK CFI 9026 .cfa: $rbp 16 +
STACK CFI 90ae .cfa: $rsp 8 +
STACK CFI INIT 1b96 17 .cfa: $rsp 8 + .ra: .cfa -8 + ^
STACK CFI 1b97 $rbp: .cfa -16 + ^ .cfa: $rsp 16 +
STACK CFI 1b9a .cfa: $rbp 16 +
STACK CFI 1bac .cfa: $rsp 8 +
STACK CFI INIT 1bad 1cc .cfa: $rsp 8 + .ra: .cfa -8 + ^
STACK CFI 1bae $rbp: .cfa -16 + ^ .cfa: $rsp 16 +
STACK CFI 1bb1 .cfa: $rbp 16 +
STACK CFI 1d78 .cfa: $rsp 8 +
STACK CFI INIT 1d79 1cc .cfa: $rsp 8 + .ra: .cfa -8 + ^
STACK CFI 1d7a $rbp: .cfa -16 + ^ .cfa: $rsp 16 +
STACK CFI 1d7d .cfa: $rbp 16 +
STACK CFI 1f44 .cfa: $rsp 8 +
STACK CFI INIT 1f45 1cc .cfa: $rsp 8 + .ra: .cfa -8 + ^
STACK CFI 1f46 $rbp: .cfa -16 + ^ .cfa: $rsp 16 +
STACK CFI 1f49 .cfa: $rbp 16 +
STACK CFI 2110 .cfa: $rsp 8 +
STACK CFI INIT 2111 1cc .cfa: $rsp 8 + .ra: .cfa -8 + ^
STACK CFI 2112 $rbp: .cfa -16 + ^ .cfa: $rsp 16 +
STACK CFI 2115 .cfa: $rbp 16 +
STACK CFI 22dc .cfa: $rsp 8 +
STACK CFI INIT 22dd 1cc .cfa: $rsp 8 + .ra: .cfa -8 + ^
STACK CFI 22de $rbp: .cfa -16 + ^ .cfa: $rsp 16 +
STACK CFI 22e1 .cfa: $rbp 16 +
STACK CFI 24a8 .cfa: $rsp 8 +
STACK CFI INIT 24a9 1cc .cfa: $rsp 8 + .ra: .cfa -8 + ^
STACK CFI 24aa $rbp: .cfa -16 + ^ .cfa: $rsp 16 +
STACK CFI 24ad .cfa: $rbp 16 +
STACK CFI 2674 .cfa: $rsp 8 +
STACK CFI INIT 2675 1cc .cfa: $rsp 8 + .ra: .cfa -8 + ^
STACK CFI 2676 $rbp: .cfa -16 + ^ .cfa: $rsp 16 +
STACK CFI 2679 .cfa: $rbp 16 +
STACK CFI 2840 .cfa: $rsp 8 +
STACK CFI INIT 2841 1cc .cfa: $rsp 8 + .ra: .cfa -8 + ^
STACK CFI 2842 $rbp: .cfa -16 + ^ .cfa: $rsp 16 +
STACK CFI 2845 .cfa: $rbp 16 +
STACK CFI 2a0c .cfa: $rsp 8 +
STACK CFI INIT 2a0d 1cc .cfa: $rsp 8 + .ra: .cfa -8 + ^
STACK CFI 2a0e $rbp: .cfa -16 + ^ .cfa: $rsp 16 +
STACK CFI 2a11 .cfa: $rbp 16 +
STACK CFI 2bd8 .cfa: $rsp 8 +
STACK CFI INIT 2bd9 1cc .cfa: $rsp 8 + .ra: .cfa -8 + ^
STACK CFI 2bda $rbp: .cfa -16 + ^ .cfa: $rsp 16 +
STACK CFI 2bdd .cfa: $rbp 16 +
STACK CFI 2da4 .cfa: $rsp 8 +
STACK CFI INIT 2da5 1cc .cfa: $rsp 8 + .ra: .cfa -8 + ^
STACK CFI 2da6 $rbp: .cfa -16 + ^ .cfa: $rsp 16 +
STACK CFI 2da9 .cfa: $rbp 16 +
STACK CFI 2f70 .cfa: $rsp 8 +
STACK CFI INIT 2f71 1cc .cfa: $rsp 8 + .ra: .cfa -8 + ^
STACK CFI 2f72 $rbp: .cfa -16 + ^ .cfa: $rsp 16 +
STACK CFI 2f75 .cfa: $rbp 16 +
STACK CFI 313c .cfa: $rsp 8 +
STACK CFI INIT 313d 1cc .cfa: $rsp 8 + .ra: .cfa -8 + ^
STACK CFI 313e $rbp: .cfa -16 + ^ .cfa: $rsp 16 +
STACK CFI 3141 .cfa: $rbp 16 +
STACK CFI 3308 .cfa: $rsp 8 +
STACK CFI INIT 3309 1cc .cfa: $rsp 8 + .ra: .cfa -8 + ^
STACK CFI 330a $rbp: .cfa -16 + ^ .cfa: $rsp 16 +
STACK CFI 330d .cfa: $rbp 16 +
STACK CFI 34d4 .cfa: $rsp 8 +
STACK CFI INIT 34d5 1cc .cfa: $rsp 8 + .ra: .cfa -8 + ^
STACK CFI 34d6 $rbp: .cfa -16 + ^ .cfa: $rsp 16 +
STACK CFI 34d9 .cfa: $rbp 16 +
STACK CFI 36a0 .cfa: $rsp 8 +
STACK CFI INIT 36a1 1cc .cfa: $rsp 8 + .ra: .cfa -8 + ^
STACK CFI 36a2 $rbp: .cfa -16 + ^ .cfa: $rsp 16 +
STACK CFI 36a5 .cfa: $rbp 16 +
STACK CFI 386c .cfa: $rsp 8 +
STACK CFI INIT 386d 1cc .cfa: $rsp 8 + .ra: .cfa -8 + ^
STACK CFI 386e $rbp: .cfa -16 + ^ .cfa: $rsp 16 +
STACK CFI 3871 .cfa: $rbp 16 +
STACK CFI 3a38 .cfa: $rsp 8 +
STACK CFI INIT 3a39 1cc .cfa: $rsp 8 + .ra: .cfa -8 + ^
STACK CFI 3a3a $rbp: .cfa -16 + ^ .cfa: $rsp 16 +
STACK CFI 3a3d .cfa: $rbp 16 +
STACK CFI 3c04 .cfa: $rsp 8 +
STACK CFI INIT 3c05 1cc .cfa: $rsp 8 + .ra: .cfa -8 + ^
STACK CFI 3c06 $rbp: .cfa -16 + ^ .cfa: $rsp 16 +
STACK CFI 3c09 .cfa: $rbp 16 +
STACK CFI 3dd0 .cfa: $rsp 8 +
STACK CFI INIT 3dd1 1cc .cfa: $rsp 8 + .ra: .cfa -8 + ^
STACK CFI 3dd2 $rbp: .cfa -16 + ^ .cfa: $rsp 16 +
STACK CFI 3dd5 .cfa: $rbp 16 +
STACK CFI 3f9c .cfa: $rsp 8 +
STACK CFI INIT 3f9d 1cc .cfa: $rsp 8 + .ra: .cfa -8 + ^
STACK CFI 3f9e $rbp: .cfa -16 + ^ .cfa: $rsp 16 +
STACK CFI 3fa1 .cfa: $rbp 16 +
STACK CFI 4168 .cfa: $rsp 8 +
STACK CFI INIT 4169 1cc .cfa: $rsp 8 + .ra: .cfa -8 + ^
STACK CFI 416a $rbp: .cfa -16 + ^ .cfa: $rsp 16 +
STACK CFI 416d .cfa: $rbp 16 +
STACK CFI 4334 .cfa: $rsp 8 +
STACK CFI INIT 4335 1cc .cfa: $rsp 8 + .ra: .cfa -8 + ^
STACK CFI 4336 $rbp: .cfa -16 + ^ .cfa: $rsp 16 +
STACK CFI 4339 .cfa: $rbp 16 +
STACK CFI 4500 .cfa: $rsp 8 +
STACK CFI INIT 4501 1cc .cfa: $rsp 8 + .ra: .cfa -8 + ^
STACK CFI 4502 $rbp: .cfa -16 + ^ .cfa: $rsp 16 +
STACK CFI 4505 .cfa: $rbp 16 +
STACK CFI 46cc .cfa: $rsp 8 +
STACK CFI INIT 46cd 1cc .cfa: $rsp 8 + .ra: .cfa -8 + ^
STACK CFI 46ce $rbp: .cfa -16 + ^ .cfa: $rsp 16 +
STACK CFI 46d1 .cfa: $rbp 16 +
STACK CFI 4898 .cfa: $rsp 8 +
STACK CFI INIT 4899 1cc .cfa: $rsp 8 + .ra: .cfa -8 + ^
STACK CFI 489a $rbp: .cfa -16 + ^ .cfa: $rsp 16 +
STACK CFI 489d .cfa: $rbp 16 +
STACK CFI 4a64 .cfa: $rsp 8 +
STACK CFI INIT 4a65 1cc .cfa: $rsp 8 + .ra: .cfa -8 + ^
STACK CFI 4a66 $rbp: .cfa -16 + ^ .cfa: $rsp 16 +
STACK CFI 4a69 .cfa: $rbp 16 +
STACK CFI 4c30 .cfa: $rsp 8 +
STACK CFI INIT 4c31 1cc .cfa: $rsp 8 + .ra: .cfa -8 + ^
STACK CFI 4c32 $rbp: .cfa -16 + ^ .cfa: $rsp 16 +
STACK CFI 4c35 .cfa: $rbp 16 +
STACK CFI 4dfc .cfa: $rsp 8 +
STACK CFI INIT 4dfd 1cc .cfa: $rsp 8 + .ra: .cfa -8 + ^
STACK CFI 4dfe $rbp: .cfa -16 + ^ .cfa: $rsp 16 +
STACK CFI 4e01 .cfa: $rbp 16 +
STACK CFI 4fc8 .cfa: $rsp 8 +
STACK CFI INIT 4fc9 1cc .cfa: $rsp 8 + .ra: .cfa -8 + ^
STACK CFI 4fca $rbp: .cfa -16 + ^ .cfa: $rsp 16 +
STACK CFI 4fcd .cfa: $rbp 16 +
STACK CFI 5194 .cfa: $rsp 8 +
STACK CFI INIT 5195 1cc .cfa: $rsp 8 + .ra: .cfa -8 + ^
STACK CFI 5196 $rbp: .cfa -16 + ^ .cfa: $rsp 16 +
STACK CFI 5199 .cfa: $rbp 16 +
STACK CFI 5360 .cfa: $rsp 8 +
STACK CFI INIT 5361 1cc .cfa: $rsp 8 + .ra: .cfa -8 + ^
STACK CFI 5362 $rbp: .cfa -16 + ^ .cfa: $rsp 16 +
STACK CFI 5365 .cfa: $rbp 16 +
STACK CFI 552c .cfa: $rsp 8 +
STACK CFI INIT 552d 1cc .cfa: $rsp 8 + .ra: .cfa -8 + ^
STACK CFI 552e $rbp: .cfa -16 + ^ .cfa: $rsp 16 +
STACK CFI 5531 .cfa: $rbp 16 +
STACK CFI 56f8 .cfa: $rsp 8 +
STACK CFI INIT 56f9 1cc .cfa: $rsp 8 + .ra: .cfa -8 + ^
STACK CFI 56fa $rbp: .cfa -16 + ^ .cfa: $rsp 16 +
STACK CFI 56fd .cfa: $rbp 16 +
STACK CFI 58c4 .cfa: $rsp 8 +
STACK CFI INIT 58c5 1cc .cfa: $rsp 8 + .ra: .cfa -8 + ^
STACK CFI 58c6 $rbp: .cfa -16 + ^ .cfa: $rsp 16 +
STACK CFI 58c9 .cfa: $rbp 16 +
STACK CFI 5a90 .cfa: $rsp 8 +
STACK CFI INIT 5a91 1cc .cfa: $rsp 8 + .ra: .cfa -8 + ^
STACK CFI 5a92 $rbp: .cfa -16 + ^ .cfa: $rsp 16 +
STACK CFI 5a95 .cfa: $rbp 16 +
STACK CFI 5c5c .cfa: $rsp 8 +
STACK CFI INIT 5c5d 1cc .cfa: $rsp 8 + .ra: .cfa -8 + ^
STACK CFI 5c5e $rbp: .cfa -16 + ^ .cfa: $rsp 16 +
STACK CFI 5c61 .cfa: $rbp 16 +
STACK CFI 5e28 .cfa: $rsp 8 +
STACK CFI INIT 5e29 1cc .cfa: $rsp 8 + .ra: .cfa -8 + ^
STACK CFI 5e2a $rbp: .cfa -16 + ^ .cfa: $rsp 16 +
STACK CFI 5e2d .cfa: $rbp 16 +
STACK CFI 5ff4 .cfa: $rsp 8 +
STACK CFI INIT 5ff5 1cc .cfa: $rsp 8 + .ra: .cfa -8 + ^
STACK CFI 5ff6 $rbp: .cfa -16 + ^ .cfa: $rsp 16 +
STACK CFI 5ff9 .cfa: $rbp 16 +
STACK CFI 61c0 .cfa: $rsp 8 +
STACK CFI INIT 61c1 1cc .cfa: $rsp 8 + .ra: .cfa -8 + ^
STACK CFI 61c2 $rbp: .cfa -16 + ^ .cfa: $rsp 16 +
STACK CFI 61c5 .cfa: $rbp 16 +
STACK CFI 638c .cfa: $rsp 8 +
STACK CFI INIT 638d 1cc .cfa: $rsp 8 + .ra: .cfa -8 + ^
STACK CFI 638e $rbp: .cfa -16 + ^ .cfa: $rsp 16 +
STACK CFI 6391 .cfa: $rbp 16 +
STACK CFI 6558 .cfa: $rsp 8 +
STACK CFI INIT 6559 1cc .cfa: $rsp 8 + .ra: .cfa -8 + ^
STACK CFI 655a $rbp: .cfa -16 + ^ .cfa: $rsp 16 +
STACK CFI 655d .cfa: $rbp 16 +
STACK CFI 6724 .cfa: $rsp 8 +
STACK CFI INIT 6725 1cc .cfa: $rsp 8 + .ra: .cfa -8 + ^
STACK CFI 6726 $rbp: .cfa -16 + ^ .cfa: $rsp 16 +
STACK CFI 6729 .cfa: $rbp 16 +
STACK CFI 68f0 .cfa: $rsp 8 +
STACK CFI INIT 68f1 1cc .cfa: $rsp 8 + .ra: .cfa -8 + ^
STACK CFI 68f2 $rbp: .cfa -16 + ^ .cfa: $rsp 16 +
STACK CFI 68f5 .cfa: $rbp 16 +
STACK CFI 6abc .cfa: $rsp 8 +
STACK CFI INIT 6abd 1cc .cfa: $rsp 8 + .ra: .cfa -8 + ^
STACK CFI 6abe $rbp: .cfa -16 + ^ .cfa: $rsp 16 +
STACK CFI 6ac1 .cfa: $rbp 16 +
STACK CFI 6c88 .cfa: $rsp 8 +
STACK CFI INIT 6c89 1cc .cfa: $rsp 8 + .ra: .cfa -8 + ^
STACK CFI 6c8a $rbp: .cfa -16 + ^ .cfa: $rsp 16 +
STACK CFI 6c8d .cfa: $rbp 16 +
STACK CFI 6e54 .cfa: $rsp 8 +
STACK CFI INIT 6e55 1cc .cfa: $rsp 8 + .ra: .cfa -8 + ^
STACK CFI 6e56 $rbp: .cfa -16 + ^ .cfa: $rsp 16 +
STACK CFI 6e59 .cfa: $rbp 16 +
STACK CFI 7020 .cfa: $rsp 8 +
STACK CFI INIT 7021 1cc .cfa: $rsp 8 + .ra: .cfa -8 + ^
STACK CFI 7022 $rbp: .cfa -16 + ^ .cfa: $rsp 16 +
STACK CFI 7025 .cfa: $rbp 16 +
STACK CFI 71ec .cfa: $rsp 8 +
STACK CFI INIT 71ed 1cc .cfa: $rsp 8 + .ra: .cfa -8 + ^
STACK CFI 71ee $rbp: .cfa -16 + ^ .cfa: $rsp 16 +
STACK CFI 71f1 .cfa: $rbp 16 +
STACK CFI 73b8 .cfa: $rsp 8 +
STACK CFI INIT 73b9 1cc .cfa: $rsp 8 + .ra: .cfa -8 + ^
STACK CFI 73ba $rbp: .cfa -16 + ^ .cfa: $rsp 16 +
STACK CFI 73bd .cfa: $rbp 16 +
STACK CFI 7584 .cfa: $rsp 8 +
STACK CFI INIT 7585 1cc .cfa: $rsp 8 + .ra: .cfa -8 + ^
STACK CFI 7586 $rbp: .cfa -16 + ^ .cfa: $rsp 16 +
STACK CFI 7589 .cfa: $rbp 16 +
STACK CFI 7750 .cfa: $rsp 8 +
STACK CFI INIT 7751 1cc .cfa: $rsp 8 + .ra: .cfa -8 + ^
STACK CFI 7752 $rbp: .cfa -16 + ^ .cfa: $rsp 16 +
STACK CFI 7755 .cfa: $rbp 16 +
STACK CFI 791c .cfa: $rsp 8 +
STACK CFI INIT 791d 1cc .cfa: $rsp 8 + .ra: .cfa -8 + ^
STACK CFI 791e $rbp: .cfa -16 + ^ .cfa: $rsp 16 +
STACK CFI 7921 .cfa: $rbp 16 +
STACK CFI 7ae8 .cfa: $rsp 8 +
STACK CFI INIT 7ae9 1cc .cfa: $rsp 8 + .ra: .cfa -8 + ^
STACK CFI 7aea $rbp: .cfa -16 + ^ .cfa: $rsp 16 +
STACK CFI 7aed .cfa: $rbp 16 +
STACK CFI 7cb4 .cfa: $rsp 8 +
STACK CFI INIT 7cb5 1cc .cfa: $rsp 8 + .ra: .cfa -8 + ^
STACK CFI 7cb6 $rbp: .cfa -16 + ^ .cfa: $rsp 16 +
STACK CFI 7cb9 .cfa: $rbp 16 +
STACK CFI 7e80 .cfa: $rsp 8 +
STACK CFI INIT 7e81 1cc .cfa: $rsp 8 + .ra: .cfa -8 + ^
STACK CFI 7e82 $rbp: .cfa -16 + ^ .cfa: $rsp 16 +
STACK CFI 7e85 .cfa: $rbp 16 +
STACK CFI 804c .cfa: $rsp 8 +
STACK CFI INIT 804d 1cc .cfa: $rsp 8 + .ra: .cfa -8 + ^
STACK CFI 804e $rbp: .cfa -16 + ^ .cfa: $rsp 16 +
STACK CFI 8051 .cfa: $rbp 16 +
STACK CFI 8218 .cfa: $rsp 8 +
STACK CFI INIT 8219 1cc .cfa: $rsp 8 + .ra: .cfa -8 + ^
STACK CFI 821a $rbp: .cfa -16 + ^ .cfa: $rsp 16 +
STACK CFI 821d .cfa: $rbp 16 +
STACK CFI 83e4 .cfa: $rsp 8 +
STACK CFI INIT 83e5 1cc .cfa: $rsp 8 + .ra: .cfa -8 + ^
STACK CFI 83e6 $rbp: .cfa -16 + ^ .cfa: $rsp 16 +
STACK CFI 83e9 .cfa: $rbp 16 +
STACK CFI 85b0 .cfa: $rsp 8 +
STACK CFI INIT 85b1 1cc .cfa: $rsp 8 + .ra: .cfa -8 + ^
STACK CFI 85b2 $rbp: .cfa -16 + ^ .cfa: $rsp 16 +
STACK CFI 85b5 .cfa: $rbp 16 +
STACK CFI 877c .cfa: $rsp 8 +
STACK CFI INIT 877d 1cc .cfa: $rsp 8 + .ra: .cfa -8 + ^
STACK CFI 877e $rbp: .cfa -16 + ^ .cfa: $rsp 16 +
STACK CFI 8781 .cfa: $rbp 16 +
STACK CFI 8948 .cfa: $rsp 8 +
STACK CFI INIT 8949 1cc .cfa: $rsp 8 + .ra: .cfa -8 + ^
STACK CFI 894a $rbp: .cfa -16 + ^ .cfa: $rsp 16 +
STACK CFI 894d .cfa: $rbp 16 +
STACK CFI 8b14 .cfa: $rsp 8 +
STACK CFI INIT 8b15 1cc .cfa: $rsp 8 + .ra: .cfa -8 + ^
STACK CFI 8b16 $rbp: .cfa -16 + ^ .cfa: $rsp 16 +
STACK CFI 8b19 .cfa: $rbp 16 +
STACK CFI 8ce0 .cfa: $rsp 8 +
STACK CFI INIT 8ce1 1cc .cfa: $rsp 8 + .ra: .cfa -8 + ^
STACK CFI 8ce2 $rbp: .cfa -16 + ^ .cfa: $rsp 16 +
STACK CFI 8ce5 .cfa: $rbp 16 +
STACK CFI 8eac .cfa: $rsp 8 +
STACK CFI INIT 8ead 7 .cfa: $rsp 8 + .ra: .cfa -8 + ^
STACK CFI 8eae $rbp: .cfa -16 + ^ .cfa: $rsp 16 +
STACK CFI 8eb1 .cfa: $rbp 16 +
STACK CFI 8eb3 .cfa: $rsp 8 +
STACK CFI INIT 90b0 2f .cfa: $rsp 8 + .ra: .cfa -8 + ^
STACK CFI 90b1 $rbp: .cfa -16 + ^ .cfa: $rsp 16 +
STACK CFI 90b4 .cfa: $rbp 16 +
STACK CFI 90de .cfa: $rsp 8 +
STACK CFI INIT 8eb4 133 .cfa: $rsp 8 + .ra: .cfa -8 + ^
STACK CFI 8eb5 $rbp: .cfa -16 + ^ .cfa: $rsp 16 +
STACK CFI 8eb8 .cfa: $rbp 16 +
STACK CFI 8ec0 $rbx: .cfa -24 + ^
STACK CFI 8fe6 .cfa: $rsp 8 +
STACK CFI INIT 90e0 14b .cfa: $rsp 8 + .ra: .cfa -8 + ^
STACK CFI 90e2 $r14: .cfa -16 + ^ .cfa: $rsp 16 +
STACK CFI 90e4 $r13: .cfa -24 + ^ .cfa: $rsp 24 +
STACK CFI 90e6 $r12: .cfa -32 + ^ .cfa: $rsp 32 +
STACK CFI 90e7 $rbp: .cfa -40 + ^ .cfa: $rsp 40 +
STACK CFI 90e8 $rbx: .cfa -48 + ^ .cfa: $rsp 48 +
STACK CFI 90ef .cfa: $rsp 208 +
STACK CFI 9180 .cfa: $rsp 48 +
STACK CFI 9181 .cfa: $rsp 40 +
STACK CFI 9182 .cfa: $rsp 32 +
STACK CFI 9184 .cfa: $rsp 24 +
STACK CFI 9186 .cfa: $rsp 16 +
STACK CFI 9188 .cfa: $rsp 8 +
STACK CFI 9190 .cfa: $rsp 208 +
STACK CFI INIT 9230 7c .cfa: $rsp 8 + .ra: .cfa -8 + ^
STACK CFI 923b $r13: .cfa -16 + ^ .cfa: $rsp 16 +
STACK CFI 923d $r12: .cfa -24 + ^ .cfa: $rsp 24 +
STACK CFI 9245 $rbp: .cfa -32 + ^ .cfa: $rsp 32 +
STACK CFI 9246 $rbx: .cfa -40 + ^ .cfa: $rsp 40 +
STACK CFI 925e .cfa: $rsp 48 +
STACK CFI 9291 .cfa: $rsp 40 +
STACK CFI 9292 $rbx: $rbx .cfa: $rsp 32 +
STACK CFI 9293 $rbp: $rbp .cfa: $rsp 24 +
STACK CFI 9295 $r12: $r12 .cfa: $rsp 16 +
STACK CFI 9297 $r13: $r13 .cfa: $rsp 8 +
STACK CFI 92a0 $r12: .cfa -24 + ^ $r13: .cfa -16 + ^ $rbp: .cfa -32 + ^ $rbx: .cfa -40 + ^ .cfa: $rsp 48 +
STACK CFI INIT 92b0 341 .cfa: $rsp 8 + .ra: .cfa -8 + ^
STACK CFI 92b2 $r12: .cfa -16 + ^ .cfa: $rsp 16 +
STACK CFI 92b3 $rbp: .cfa -24 + ^ .cfa: $rsp 24 +
STACK CFI 92b4 $rbx: .cfa -32 + ^ .cfa: $rsp 32 +
STACK CFI 92c2 .cfa: $rsp 96 +
STACK CFI 9473 .cfa: $rsp 32 +
STACK CFI 9474 .cfa: $rsp 24 +
STACK CFI 9475 .cfa: $rsp 16 +
STACK CFI 9477 .cfa: $rsp 8 +
STACK CFI 9480 .cfa: $rsp 96 +
STACK CFI INIT 9600 d1 .cfa: $rsp 8 + .ra: .cfa -8 + ^
STACK CFI 9602 $r15: .cfa -16 + ^ .cfa: $rsp 16 +
STACK CFI 9604 $r14: .cfa -24 + ^ .cfa: $rsp 24 +
STACK CFI 9609 $r13: .cfa -32 + ^ .cfa: $rsp 32 +
STACK CFI 960b $r12: .cfa -40 + ^ .cfa: $rsp 40 +
STACK CFI 9613 $rbp: .cfa -48 + ^ .cfa: $rsp 48 +
STACK CFI 9614 $rbx: .cfa -56 + ^ .cfa: $rsp 56 +
STACK CFI 9623 .cfa: $rsp 64 +
STACK CFI 964e .cfa: $rsp 56 +
STACK CFI 964f .cfa: $rsp 48 +
STACK CFI 9650 .cfa: $rsp 40 +
STACK CFI 9652 .cfa: $rsp 32 +
STACK CFI 9654 .cfa: $rsp 24 +
STACK CFI 9656 .cfa: $rsp 16 +
STACK CFI 9658 .cfa: $rsp 8 +
STACK CFI 9660 .cfa: $rsp 64 +
STACK CFI 96ac .cfa: $rsp 56 +
STACK CFI 96b9 .cfa: $rsp 48 +
STACK CFI 96ba .cfa: $rsp 40 +
STACK CFI 96bc .cfa: $rsp 32 +
STACK CFI 96be .cfa: $rsp 24 +
STACK CFI 96c0 .cfa: $rsp 16 +
STACK CFI 96c2 .cfa: $rsp 8 +
STACK CFI 96c7 .cfa: $rsp 64 +
STACK CFI INIT 96e0 4bc .cfa: $rsp 8 + .ra: .cfa -8 + ^
STACK CFI 96e2 $r15: .cfa -16 + ^ .cfa: $rsp 16 +
STACK CFI 96e4 $r14: .cfa -24 + ^ .cfa: $rsp 24 +
STACK CFI 96e6 $r13: .cfa -32 + ^ .cfa: $rsp 32 +
STACK CFI 96e8 $r12: .cfa -40 + ^ .cfa: $rsp 40 +
STACK CFI 96e9 $rbp: .cfa -48 + ^ .cfa: $rsp 48 +
STACK CFI 96ea $rbx: .cfa -56 + ^ .cfa: $rsp 56 +
STACK CFI 96f4 .cfa: $rsp 144 +
STACK CFI 9734 .cfa: $rsp 56 +
STACK CFI 9735 .cfa: $rsp 48 +
STACK CFI 9736 .cfa: $rsp 40 +
STACK CFI 9738 .cfa: $rsp 32 +
STACK CFI 973a .cfa: $rsp 24 +
STACK CFI 973c .cfa: $rsp 16 +
STACK CFI 973e .cfa: $rsp 8 +
STACK CFI 9740 .cfa: $rsp 144 +
STACK CFI INIT 9ba0 1da .cfa: $rsp 8 + .ra: .cfa -8 + ^
STACK CFI 9ba2 $r13: .cfa -16 + ^ .cfa: $rsp 16 +
STACK CFI 9ba4 $r12: .cfa -24 + ^ .cfa: $rsp 24 +
STACK CFI 9ba8 $rbp: .cfa -32 + ^ .cfa: $rsp 32 +
STACK CFI 9ba9 $rbx: .cfa -40 + ^ .cfa: $rsp 40 +
STACK CFI 9bb3 .cfa: $rsp 48 +
STACK CFI 9bc9 .cfa: $rsp 40 +
STACK CFI 9bca .cfa: $rsp 32 +
STACK CFI 9bcb .cfa: $rsp 24 +
STACK CFI 9bcd .cfa: $rsp 16 +
STACK CFI 9bcf .cfa: $rsp 8 +
STACK CFI 9bd0 .cfa: $rsp 48 +
STACK CFI 9d3d .cfa: $rsp 40 +
STACK CFI 9d48 .cfa: $rsp 32 +
STACK CFI 9d49 .cfa: $rsp 24 +
STACK CFI 9d4b .cfa: $rsp 16 +
STACK CFI 9d4d .cfa: $rsp 8 +
STACK CFI 9d58 .cfa: $rsp 48 +
STACK CFI INIT 9d80 1c1 .cfa: $rsp 8 + .ra: .cfa -8 + ^
STACK CFI 9d82 $r14: .cfa -16 + ^ .cfa: $rsp 16 +
STACK CFI 9d84 $r13: .cfa -24 + ^ .cfa: $rsp 24 +
STACK CFI 9d89 $r12: .cfa -32 + ^ .cfa: $rsp 32 +
STACK CFI 9d8a $rbp: .cfa -40 + ^ .cfa: $rsp 40 +
STACK CFI 9d8e $rbx: .cfa -48 + ^ .cfa: $rsp 48 +
STACK CFI 9d9f .cfa: $rsp 208 +
STACK CFI 9e7a .cfa: $rsp 48 +
STACK CFI 9e7b .cfa: $rsp 40 +
STACK CFI 9e7c .cfa: $rsp 32 +
STACK CFI 9e7e .cfa: $rsp 24 +
STACK CFI 9e80 .cfa: $rsp 16 +
STACK CFI 9e82 .cfa: $rsp 8 +
STACK CFI 9e88 .cfa: $rsp 208 +
STACK CFI INIT 9f50 7f .cfa: $rsp 8 + .ra: .cfa -8 + ^
STACK CFI 9f57 .cfa: $rsp 1104 +
STACK CFI 9fc9 .cfa: $rsp 8 +
STACK CFI 9fca .cfa: $rsp 1104 +
STACK CFI INIT 9fd0 e5 .cfa: $rsp 8 + .ra: .cfa -8 + ^
STACK CFI 9fd2 $r15: .cfa -16 + ^ .cfa: $rsp 16 +
STACK CFI 9fd4 $r14: .cfa -24 + ^ .cfa: $rsp 24 +
STACK CFI 9fd9 $r13: .cfa -32 + ^ .cfa: $rsp 32 +
STACK CFI 9fdb $r12: .cfa -40 + ^ .cfa: $rsp 40 +
STACK CFI 9fdf $rbp: .cfa -48 + ^ .cfa: $rsp 48 +
STACK CFI 9fe0 $rbx: .cfa -56 + ^ .cfa: $rsp 56 +
STACK CFI 9fe9 .cfa: $rsp 80 +
STACK CFI a03a .cfa: $rsp 56 +
STACK CFI a03b .cfa: $rsp 48 +
STACK CFI a03c .cfa: $rsp 40 +
STACK CFI a03e .cfa: $rsp 32 +
STACK CFI a040 .cfa: $rsp 24 +
STACK CFI a042 .cfa: $rsp 16 +
STACK CFI a044 .cfa: $rsp 8 +
STACK CFI a048 .cfa: $rsp 80 +
STACK CFI INIT a0c0 8b .cfa: $rsp 8 + .ra: .cfa -8 + ^
STACK CFI a0d6 .cfa: $rsp 16 +
STACK CFI a0f6 .cfa: $rsp 24 +
STACK CFI a0fc .cfa: $rsp 32 +
STACK CFI a109 .cfa: $rsp 24 +
STACK CFI a10a .cfa: $rsp 16 +
STACK CFI a10e .cfa: $rsp 8 +
STACK CFI a128 .cfa: $rsp 16 +
STACK CFI a133 .cfa: $rsp 24 +
STACK CFI a138 .cfa: $rsp 32 +
STACK CFI a145 .cfa: $rsp 24 +
STACK CFI a146 .cfa: $rsp 16 +
STACK CFI a14a .cfa: $rsp 8 +
STACK CFI INIT a150 28 .cfa: $rsp 8 + .ra: .cfa -8 + ^
STACK CFI a151 $rbx: .cfa -16 + ^ .cfa: $rsp 16 +
STACK CFI a177 .cfa: $rsp 8 +
STACK CFI INIT a180 195 .cfa: $rsp 8 + .ra: .cfa -8 + ^
STACK CFI a181 $rbx: .cfa -16 + ^ .cfa: $rsp 16 +
STACK CFI a188 .cfa: $rsp 1632 +
STACK CFI a21e .cfa: $rsp 16 +
STACK CFI a21f .cfa: $rsp 8 +
STACK CFI a220 .cfa: $rsp 1632 +
STACK CFI INIT a320 e3 .cfa: $rsp 8 + .ra: .cfa -8 + ^
STACK CFI a322 $r14: .cfa -16 + ^ .cfa: $rsp 16 +
STACK CFI a324 $r13: .cfa -24 + ^ .cfa: $rsp 24 +
STACK CFI a328 $rbp: .cfa -32 + ^ .cfa: $rsp 32 +
STACK CFI a329 $rbx: .cfa -40 + ^ .cfa: $rsp 40 +
STACK CFI a338 .cfa: $rsp 640 +
STACK CFI a3f7 .cfa: $rsp 40 +
STACK CFI a3f8 .cfa: $rsp 32 +
STACK CFI a3f9 .cfa: $rsp 24 +
STACK CFI a3fb .cfa: $rsp 16 +
STACK CFI a3fd .cfa: $rsp 8 +
STACK CFI a3fe .cfa: $rsp 640 +
STACK CFI INIT a410 91 .cfa: $rsp 8 + .ra: .cfa -8 + ^
STACK CFI a412 $r13: .cfa -16 + ^ .cfa: $rsp 16 +
STACK CFI a414 $r12: .cfa -24 + ^ .cfa: $rsp 24 +
STACK CFI a415 $rbp: .cfa -32 + ^ .cfa: $rsp 32 +
STACK CFI a416 $rbx: .cfa -40 + ^ .cfa: $rsp 40 +
STACK CFI a421 .cfa: $rsp 48 +
STACK CFI a44a .cfa: $rsp 40 +
STACK CFI a44b .cfa: $rsp 32 +
STACK CFI a44c .cfa: $rsp 24 +
STACK CFI a44e .cfa: $rsp 16 +
STACK CFI a450 .cfa: $rsp 8 +
STACK CFI a458 .cfa: $rsp 48 +
STACK CFI a49a .cfa: $rsp 40 +
STACK CFI a49b .cfa: $rsp 32 +
STACK CFI a49c .cfa: $rsp 24 +
STACK CFI a49e .cfa: $rsp 16 +
STACK CFI a4a0 .cfa: $rsp 8 +
STACK CFI INIT a4b0 52 .cfa: $rsp 8 + .ra: .cfa -8 + ^
STACK CFI a4b1 $rbx: .cfa -16 + ^ .cfa: $rsp 16 +
STACK CFI a4f2 .cfa: $rsp 8 +
STACK CFI a500 .cfa: $rsp 16 +
STACK CFI a501 .cfa: $rsp 8 +
STACK CFI INIT a510 23d .cfa: $rsp 8 + .ra: .cfa -8 + ^
STACK CFI a512 $r15: .cfa -16 + ^ .cfa: $rsp 16 +
STACK CFI a514 $r14: .cfa -24 + ^ .cfa: $rsp 24 +
STACK CFI a519 $r13: .cfa -32 + ^ .cfa: $rsp 32 +
STACK CFI a51b $r12: .cfa -40 + ^ .cfa: $rsp 40 +
STACK CFI a51f $rbp: .cfa -48 + ^ .cfa: $rsp 48 +
STACK CFI a520 $rbx: .cfa -56 + ^ .cfa: $rsp 56 +
STACK CFI a530 .cfa: $rsp 224 +
STACK CFI a692 .cfa: $rsp 56 +
STACK CFI a693 .cfa: $rsp 48 +
STACK CFI a694 .cfa: $rsp 40 +
STACK CFI a696 .cfa: $rsp 32 +
STACK CFI a698 .cfa: $rsp 24 +
STACK CFI a69a .cfa: $rsp 16 +
STACK CFI a69c .cfa: $rsp 8 +
STACK CFI a6a0 .cfa: $rsp 224 +
STACK CFI INIT ad70 ea .cfa: $rsp 8 + .ra: .cfa -8 + ^
STACK CFI ad72 $r15: .cfa -16 + ^ .cfa: $rsp 16 +
STACK CFI ad74 $r14: .cfa -24 + ^ .cfa: $rsp 24 +
STACK CFI ad79 $r13: .cfa -32 + ^ .cfa: $rsp 32 +
STACK CFI ad7b $r12: .cfa -40 + ^ .cfa: $rsp 40 +
STACK CFI ad7f $rbp: .cfa -48 + ^ .cfa: $rsp 48 +
STACK CFI ad80 $rbx: .cfa -56 + ^ .cfa: $rsp 56 +
STACK CFI ad84 .cfa: $rsp 64 +
STACK CFI ae0a .cfa: $rsp 56 +
STACK CFI ae0b .cfa: $rsp 48 +
STACK CFI ae0c .cfa: $rsp 40 +
STACK CFI ae0e .cfa: $rsp 32 +
STACK CFI ae10 .cfa: $rsp 24 +
STACK CFI ae12 .cfa: $rsp 16 +
STACK CFI ae14 .cfa: $rsp 8 +
STACK CFI ae18 .cfa: $rsp 64 +
STACK CFI INIT a750 396 .cfa: $rsp 8 + .ra: .cfa -8 + ^
STACK CFI a752 $r15: .cfa -16 + ^ .cfa: $rsp 16 +
STACK CFI a754 $r14: .cfa -24 + ^ .cfa: $rsp 24 +
STACK CFI a759 $r13: .cfa -32 + ^ .cfa: $rsp 32 +
STACK CFI a75f $r12: .cfa -40 + ^ .cfa: $rsp 40 +
STACK CFI a760 $rbp: .cfa -48 + ^ .cfa: $rsp 48 +
STACK CFI a761 $rbx: .cfa -56 + ^ .cfa: $rsp 56 +
STACK CFI a768 .cfa: $rsp 80 +
STACK CFI a8ae .cfa: $rsp 56 +
STACK CFI a8af .cfa: $rsp 48 +
STACK CFI a8b0 .cfa: $rsp 40 +
STACK CFI a8b2 .cfa: $rsp 32 +
STACK CFI a8b4 .cfa: $rsp 24 +
STACK CFI a8b6 .cfa: $rsp 16 +
STACK CFI a8b8 .cfa: $rsp 8 +
STACK CFI a8c0 .cfa: $rsp 80 +
STACK CFI INIT aaf0 27d .cfa: $rsp 8 + .ra: .cfa -8 + ^
STACK CFI aaf1 $rbp: .cfa -16 + ^ .cfa: $rsp 16 +
STACK CFI aaf4 .cfa: $rbp 16 +
STACK CFI aafc $r12: .cfa -48 + ^ $r13: .cfa -40 + ^ $r14: .cfa -32 + ^ $r15: .cfa -24 + ^
STACK CFI ab00 $rbx: .cfa -56 + ^
STACK CFI acb1 .cfa: $rsp 8 +
STACK CFI acb8 .cfa: $rbp 16 +
STACK CFI INIT ae60 c2 .cfa: $rsp 8 + .ra: .cfa -8 + ^
STACK CFI ae62 $r12: .cfa -16 + ^ .cfa: $rsp 16 +
STACK CFI ae63 $rbp: .cfa -24 + ^ .cfa: $rsp 24 +
STACK CFI ae67 $rbx: .cfa -32 + ^ .cfa: $rsp 32 +
STACK CFI ae6e .cfa: $rsp 48 +
STACK CFI aeda .cfa: $rsp 32 +
STACK CFI aedb .cfa: $rsp 24 +
STACK CFI aedc .cfa: $rsp 16 +
STACK CFI aede .cfa: $rsp 8 +
STACK CFI aee0 .cfa: $rsp 48 +
STACK CFI INIT af30 a4 .cfa: $rsp 8 + .ra: .cfa -8 + ^
STACK CFI af31 $rbp: .cfa -16 + ^ .cfa: $rsp 16 +
STACK CFI af32 $rbx: .cfa -24 + ^ .cfa: $rsp 24 +
STACK CFI af40 .cfa: $rsp 32 +
STACK CFI afb2 .cfa: $rsp 24 +
STACK CFI afb3 .cfa: $rsp 16 +
STACK CFI afb4 .cfa: $rsp 8 +
STACK CFI afb5 .cfa: $rsp 32 +
STACK CFI INIT afe0 317 .cfa: $rsp 8 + .ra: .cfa -8 + ^
STACK CFI afe2 $r13: .cfa -16 + ^ .cfa: $rsp 16 +
STACK CFI afe4 $r12: .cfa -24 + ^ .cfa: $rsp 24 +
STACK CFI afe5 $rbp: .cfa -32 + ^ .cfa: $rsp 32 +
STACK CFI afe6 $rbx: .cfa -40 + ^ .cfa: $rsp 40 +
STACK CFI afed .cfa: $rsp 208 +
STACK CFI b239 .cfa: $rsp 40 +
STACK CFI b23a .cfa: $rsp 32 +
STACK CFI b23b .cfa: $rsp 24 +
STACK CFI b23d .cfa: $rsp 16 +
STACK CFI b23f .cfa: $rsp 8 +
STACK CFI b240 .cfa: $rsp 208 +
STACK CFI INIT b300 a2 .cfa: $rsp 8 + .ra: .cfa -8 + ^
STACK CFI b301 $rbp: .cfa -16 + ^ .cfa: $rsp 16 +
STACK CFI b302 $rbx: .cfa -24 + ^ .cfa: $rsp 24 +
STACK CFI b306 .cfa: $rsp 32 +
STACK CFI b37d .cfa: $rsp 24 +
STACK CFI b381 .cfa: $rsp 16 +
STACK CFI b382 .cfa: $rsp 8 +
STACK CFI b383 .cfa: $rsp 32 +
STACK CFI INIT b3b0 33 .cfa: $rsp 8 + .ra: .cfa -8 + ^
STACK CFI b3bc $rbx: .cfa -16 + ^ .cfa: $rsp 16 +
STACK CFI b3e2 .cfa: $rsp 8 +
STACK CFI INIT ceb0 3ea .cfa: $rsp 8 + .ra: .cfa -8 + ^
STACK CFI cebb $r15: .cfa -16 + ^ .cfa: $rsp 16 +
STACK CFI cebd $r14: .cfa -24 + ^ .cfa: $rsp 24 +
STACK CFI cec2 $r13: .cfa -32 + ^ .cfa: $rsp 32 +
STACK CFI cec4 $r12: .cfa -40 + ^ .cfa: $rsp 40 +
STACK CFI cec8 $rbp: .cfa -48 + ^ .cfa: $rsp 48 +
STACK CFI cec9 $rbx: .cfa -56 + ^ .cfa: $rsp 56 +
STACK CFI ced9 .cfa: $rsp 96 +
STACK CFI cf4c .cfa: $rsp 56 +
STACK CFI cf4d $rbx: $rbx .cfa: $rsp 48 +
STACK CFI cf4e $rbp: $rbp .cfa: $rsp 40 +
STACK CFI cf50 $r12: $r12 .cfa: $rsp 32 +
STACK CFI cf52 $r13: $r13 .cfa: $rsp 24 +
STACK CFI cf54 $r14: $r14 .cfa: $rsp 16 +
STACK CFI cf56 $r15: $r15 .cfa: $rsp 8 +
STACK CFI cf60 $r12: .cfa -40 + ^ $r13: .cfa -32 + ^ $r14: .cfa -24 + ^ $r15: .cfa -16 + ^ $rbp: .cfa -48 + ^ $rbx: .cfa -56 + ^ .cfa: $rsp 96 +
STACK CFI cfd0 .cfa: $rsp 56 +
STACK CFI cfd7 $rbx: $rbx .cfa: $rsp 48 +
STACK CFI cfd8 $rbp: $rbp .cfa: $rsp 40 +
STACK CFI cfda $r12: $r12 .cfa: $rsp 32 +
STACK CFI cfdc $r13: $r13 .cfa: $rsp 24 +
STACK CFI cfde $r14: $r14 .cfa: $rsp 16 +
STACK CFI cfe0 $r15: $r15 .cfa: $rsp 8 +
STACK CFI cfe8 $r12: .cfa -40 + ^ $r13: .cfa -32 + ^ $r14: .cfa -24 + ^ $r15: .cfa -16 + ^ $rbp: .cfa -48 + ^ $rbx: .cfa -56 + ^ .cfa: $rsp 96 +
STACK CFI d0cd .cfa: $rsp 56 +
STACK CFI d0ce $rbx: $rbx .cfa: $rsp 48 +
STACK CFI d0cf $rbp: $rbp .cfa: $rsp 40 +
STACK CFI d0d1 $r12: $r12 .cfa: $rsp 32 +
STACK CFI d0d3 $r13: $r13 .cfa: $rsp 24 +
STACK CFI d0d5 $r14: $r14 .cfa: $rsp 16 +
STACK CFI d0d7 $r15: $r15 .cfa: $rsp 8 +
STACK CFI d0e0 $r12: .cfa -40 + ^ $r13: .cfa -32 + ^ $r14: .cfa -24 + ^ $r15: .cfa -16 + ^ $rbp: .cfa -48 + ^ $rbx: .cfa -56 + ^ .cfa: $rsp 96 +
STACK CFI INIT b3f0 1ab5 .cfa: $rsp 8 + .ra: .cfa -8 + ^
STACK CFI b3f1 $rbp: .cfa -16 + ^ .cfa: $rsp 16 +
STACK CFI b3f4 .cfa: $rbp 16 +
STACK CFI b3fc $r12: .cfa -48 + ^ $r13: .cfa -40 + ^ $r14: .cfa -32 + ^ $r15: .cfa -24 + ^
STACK CFI b400 $rbx: .cfa -56 + ^
STACK CFI b49a .cfa: $rsp 8 +
STACK CFI b49b .cfa: $rbp 16 +
STACK CFI INIT d2a0 6 .cfa: $rsp 8 + .ra: .cfa -8 + ^
STACK CFI INIT ef20 143 .cfa: $rsp 8 + .ra: .cfa -8 + ^
STACK CFI ef2b $r15: .cfa -16 + ^ .cfa: $rsp 16 +
STACK CFI ef2d $r14: .cfa -24 + ^ .cfa: $rsp 24 +
STACK CFI ef2f $r13: .cfa -32 + ^ .cfa: $rsp 32 +
STACK CFI ef31 $r12: .cfa -40 + ^ .cfa: $rsp 40 +
STACK CFI ef32 $rbp: .cfa -48 + ^ .cfa: $rsp 48 +
STACK CFI ef33 $rbx: .cfa -56 + ^ .cfa: $rsp 56 +
STACK CFI ef3a .cfa: $rsp 64 +
STACK CFI ef6c .cfa: $rsp 56 +
STACK CFI ef6d $rbx: $rbx .cfa: $rsp 48 +
STACK CFI ef6e $rbp: $rbp .cfa: $rsp 40 +
STACK CFI ef70 $r12: $r12 .cfa: $rsp 32 +
STACK CFI ef72 $r13: $r13 .cfa: $rsp 24 +
STACK CFI ef74 $r14: $r14 .cfa: $rsp 16 +
STACK CFI ef76 $r15: $r15 .cfa: $rsp 8 +
STACK CFI ef80 $r12: .cfa -40 + ^ $r13: .cfa -32 + ^ $r14: .cfa -24 + ^ $r15: .cfa -16 + ^ $rbp: .cfa -48 + ^ $rbx: .cfa -56 + ^ .cfa: $rsp 64 +
STACK CFI f02f .cfa: $rsp 56 +
STACK CFI f034 $rbx: $rbx .cfa: $rsp 48 +
STACK CFI f035 $rbp: $rbp .cfa: $rsp 40 +
STACK CFI f037 $r12: $r12 .cfa: $rsp 32 +
STACK CFI f039 $r13: $r13 .cfa: $rsp 24 +
STACK CFI f03b $r14: $r14 .cfa: $rsp 16 +
STACK CFI f03d $r15: $r15 .cfa: $rsp 8 +
STACK CFI f040 $r12: .cfa -40 + ^ $r13: .cfa -32 + ^ $r14: .cfa -24 + ^ $r15: .cfa -16 + ^ $rbp: .cfa -48 + ^ $rbx: .cfa -56 + ^ .cfa: $rsp 64 +
STACK CFI f054 .cfa: $rsp 56 +
STACK CFI f055 $rbx: $rbx .cfa: $rsp 48 +
STACK CFI f056 $rbp: $rbp .cfa: $rsp 40 +
STACK CFI f058 $r12: $r12 .cfa: $rsp 32 +
STACK CFI f05a $r13: $r13 .cfa: $rsp 24 +
STACK CFI f05c $r14: $r14 .cfa: $rsp 16 +
STACK CFI f05e $r15: $r15 .cfa: $rsp 8 +
STACK CFI INIT d2b0 835 .cfa: $rsp 8 + .ra: .cfa -8 + ^
STACK CFI d2b2 $r15: .cfa -16 + ^ .cfa: $rsp 16 +
STACK CFI d2b4 $r14: .cfa -24 + ^ .cfa: $rsp 24 +
STACK CFI d2bd $r13: .cfa -32 + ^ .cfa: $rsp 32 +
STACK CFI d2bf $r12: .cfa -40 + ^ .cfa: $rsp 40 +
STACK CFI d2c6 $rbp: .cfa -48 + ^ .cfa: $rsp 48 +
STACK CFI d2c7 $rbx: .cfa -56 + ^ .cfa: $rsp 56 +
STACK CFI d2d2 .cfa: $rsp 80 +
STACK CFI d525 .cfa: $rsp 56 +
STACK CFI d526 .cfa: $rsp 48 +
STACK CFI d527 .cfa: $rsp 40 +
STACK CFI d529 .cfa: $rsp 32 +
STACK CFI d52b .cfa: $rsp 24 +
STACK CFI d52d .cfa: $rsp 16 +
STACK CFI d52f .cfa: $rsp 8 +
STACK CFI d530 .cfa: $rsp 80 +
STACK CFI INIT daf0 67 .cfa: $rsp 8 + .ra: .cfa -8 + ^
STACK CFI daf2 $r13: .cfa -16 + ^ .cfa: $rsp 16 +
STACK CFI daf4 $r12: .cfa -24 + ^ .cfa: $rsp 24 +
STACK CFI daf8 $rbp: .cfa -32 + ^ .cfa: $rsp 32 +
STACK CFI daf9 $rbx: .cfa -40 + ^ .cfa: $rsp 40 +
STACK CFI db02 .cfa: $rsp 48 +
STACK CFI db50 .cfa: $rsp 40 +
STACK CFI db51 .cfa: $rsp 32 +
STACK CFI db52 .cfa: $rsp 24 +
STACK CFI db54 .cfa: $rsp 16 +
STACK CFI db56 .cfa: $rsp 8 +
STACK CFI INIT db60 12 .cfa: $rsp 8 + .ra: .cfa -8 + ^
STACK CFI db61 $rbx: .cfa -16 + ^ .cfa: $rsp 16 +
STACK CFI db6d .cfa: $rsp 8 +
STACK CFI INIT db80 4a .cfa: $rsp 8 + .ra: .cfa -8 + ^
STACK CFI db81 $rbp: .cfa -16 + ^ .cfa: $rsp 16 +
STACK CFI db82 $rbx: .cfa -24 + ^ .cfa: $rsp 24 +
STACK CFI db91 .cfa: $rsp 32 +
STACK CFI dbc5 .cfa: $rsp 24 +
STACK CFI dbc8 .cfa: $rsp 16 +
STACK CFI dbc9 .cfa: $rsp 8 +
STACK CFI INIT dbd0 19f .cfa: $rsp 8 + .ra: .cfa -8 + ^
STACK CFI dbd2 $r14: .cfa -16 + ^ .cfa: $rsp 16 +
STACK CFI dbd4 $r13: .cfa -24 + ^ .cfa: $rsp 24 +
STACK CFI dbd9 $r12: .cfa -32 + ^ .cfa: $rsp 32 +
STACK CFI dbda $rbp: .cfa -40 + ^ .cfa: $rsp 40 +
STACK CFI dbdf $rbx: .cfa -48 + ^ .cfa: $rsp 48 +
STACK CFI dbfb .cfa: $rsp 4224 +
STACK CFI dc39 .cfa: $rsp 48 +
STACK CFI dc3a .cfa: $rsp 40 +
STACK CFI dc3b .cfa: $rsp 32 +
STACK CFI dc3d .cfa: $rsp 24 +
STACK CFI dc3f .cfa: $rsp 16 +
STACK CFI dc41 .cfa: $rsp 8 +
STACK CFI dc48 .cfa: $rsp 4224 +
STACK CFI INIT dd70 1a7 .cfa: $rsp 8 + .ra: .cfa -8 + ^
STACK CFI dd72 $r14: .cfa -16 + ^ .cfa: $rsp 16 +
STACK CFI dd74 $r13: .cfa -24 + ^ .cfa: $rsp 24 +
STACK CFI dd7d $r12: .cfa -32 + ^ .cfa: $rsp 32 +
STACK CFI dd7e $rbp: .cfa -40 + ^ .cfa: $rsp 40 +
STACK CFI dd82 $rbx: .cfa -48 + ^ .cfa: $rsp 48 +
STACK CFI dd8c .cfa: $rsp 4992 +
STACK CFI ddd9 .cfa: $rsp 48 +
STACK CFI ddda .cfa: $rsp 40 +
STACK CFI dddb .cfa: $rsp 32 +
STACK CFI dddd .cfa: $rsp 24 +
STACK CFI dddf .cfa: $rsp 16 +
STACK CFI dde1 .cfa: $rsp 8 +
STACK CFI dde8 .cfa: $rsp 4992 +
STACK CFI INIT df20 e6 .cfa: $rsp 8 + .ra: .cfa -8 + ^
STACK CFI df22 $r15: .cfa -16 + ^ .cfa: $rsp 16 +
STACK CFI df24 $r14: .cfa -24 + ^ .cfa: $rsp 24 +
STACK CFI df29 $r13: .cfa -32 + ^ .cfa: $rsp 32 +
STACK CFI df2b $r12: .cfa -40 + ^ .cfa: $rsp 40 +
STACK CFI df2f $rbp: .cfa -48 + ^ .cfa: $rsp 48 +
STACK CFI df30 $rbx: .cfa -56 + ^ .cfa: $rsp 56 +
STACK CFI df41 .cfa: $rsp 64 +
STACK CFI df7b .cfa: $rsp 56 +
STACK CFI df82 .cfa: $rsp 48 +
STACK CFI df83 .cfa: $rsp 40 +
STACK CFI df85 .cfa: $rsp 32 +
STACK CFI df87 .cfa: $rsp 24 +
STACK CFI df89 .cfa: $rsp 16 +
STACK CFI df8b .cfa: $rsp 8 +
STACK CFI df90 .cfa: $rsp 64 +
STACK CFI dfc6 .cfa: $rsp 56 +
STACK CFI dfc7 .cfa: $rsp 48 +
STACK CFI dfc8 .cfa: $rsp 40 +
STACK CFI dfca .cfa: $rsp 32 +
STACK CFI dfcc .cfa: $rsp 24 +
STACK CFI dfce .cfa: $rsp 16 +
STACK CFI dfd0 .cfa: $rsp 8 +
STACK CFI dfd8 .cfa: $rsp 64 +
STACK CFI dfee .cfa: $rsp 56 +
STACK CFI dff8 .cfa: $rsp 48 +
STACK CFI dff9 .cfa: $rsp 40 +
STACK CFI dffb .cfa: $rsp 32 +
STACK CFI dffd .cfa: $rsp 24 +
STACK CFI dfff .cfa: $rsp 16 +
STACK CFI e001 .cfa: $rsp 8 +
STACK CFI INIT e010 119 .cfa: $rsp 8 + .ra: .cfa -8 + ^
STACK CFI e012 $r13: .cfa -16 + ^ .cfa: $rsp 16 +
STACK CFI e014 $r12: .cfa -24 + ^ .cfa: $rsp 24 +
STACK CFI e018 $rbp: .cfa -32 + ^ .cfa: $rsp 32 +
STACK CFI e019 $rbx: .cfa -40 + ^ .cfa: $rsp 40 +
STACK CFI e027 .cfa: $rsp 336 +
STACK CFI e0e9 .cfa: $rsp 40 +
STACK CFI e0ea .cfa: $rsp 32 +
STACK CFI e0eb .cfa: $rsp 24 +
STACK CFI e0ed .cfa: $rsp 16 +
STACK CFI e0ef .cfa: $rsp 8 +
STACK CFI e0f0 .cfa: $rsp 336 +
STACK CFI INIT e130 32 .cfa: $rsp 8 + .ra: .cfa -8 + ^
STACK CFI e131 $rbx: .cfa -16 + ^ .cfa: $rsp 16 +
STACK CFI e140 .cfa: $rsp 8 +
STACK CFI e148 .cfa: $rsp 16 +
STACK CFI e15c .cfa: $rsp 8 +
STACK CFI INIT e170 4b .cfa: $rsp 8 + .ra: .cfa -8 + ^
STACK CFI INIT e1c0 7d .cfa: $rsp 8 + .ra: .cfa -8 + ^
STACK CFI e1c2 $r13: .cfa -16 + ^ .cfa: $rsp 16 +
STACK CFI e1c4 $r12: .cfa -24 + ^ .cfa: $rsp 24 +
STACK CFI e1c8 $rbp: .cfa -32 + ^ .cfa: $rsp 32 +
STACK CFI e1c9 $rbx: .cfa -40 + ^ .cfa: $rsp 40 +
STACK CFI e1d6 .cfa: $rsp 48 +
STACK CFI e220 .cfa: $rsp 40 +
STACK CFI e221 .cfa: $rsp 32 +
STACK CFI e222 .cfa: $rsp 24 +
STACK CFI e224 .cfa: $rsp 16 +
STACK CFI e226 .cfa: $rsp 8 +
STACK CFI e230 .cfa: $rsp 48 +
STACK CFI e234 .cfa: $rsp 40 +
STACK CFI e237 .cfa: $rsp 32 +
STACK CFI e238 .cfa: $rsp 24 +
STACK CFI e23a .cfa: $rsp 16 +
STACK CFI e23c .cfa: $rsp 8 +
STACK CFI INIT e240 53 .cfa: $rsp 8 + .ra: .cfa -8 + ^
STACK CFI e241 $rbp: .cfa -16 + ^ .cfa: $rsp 16 +
STACK CFI e242 $rbx: .cfa -24 + ^ .cfa: $rsp 24 +
STACK CFI e24f .cfa: $rsp 32 +
STACK CFI e25e .cfa: $rsp 24 +
STACK CFI e261 .cfa: $rsp 16 +
STACK CFI e262 .cfa: $rsp 8 +
STACK CFI e268 .cfa: $rsp 32 +
STACK CFI e286 .cfa: $rsp 24 +
STACK CFI e28d .cfa: $rsp 16 +
STACK CFI e28e .cfa: $rsp 8 +
STACK CFI INIT e2a0 34b .cfa: $rsp 8 + .ra: .cfa -8 + ^
STACK CFI e2a2 $r15: .cfa -16 + ^ .cfa: $rsp 16 +
STACK CFI e2a4 $r14: .cfa -24 + ^ .cfa: $rsp 24 +
STACK CFI e2a9 $r13: .cfa -32 + ^ .cfa: $rsp 32 +
STACK CFI e2ab $r12: .cfa -40 + ^ .cfa: $rsp 40 +
STACK CFI e2af $rbp: .cfa -48 + ^ .cfa: $rsp 48 +
STACK CFI e2b0 $rbx: .cfa -56 + ^ .cfa: $rsp 56 +
STACK CFI e2bf .cfa: $rsp 4208 +
STACK CFI e333 .cfa: $rsp 56 +
STACK CFI e334 .cfa: $rsp 48 +
STACK CFI e335 .cfa: $rsp 40 +
STACK CFI e337 .cfa: $rsp 32 +
STACK CFI e339 .cfa: $rsp 24 +
STACK CFI e33b .cfa: $rsp 16 +
STACK CFI e33d .cfa: $rsp 8 +
STACK CFI e340 .cfa: $rsp 4208 +
STACK CFI INIT f070 288 .cfa: $rsp 8 + .ra: .cfa -8 + ^
STACK CFI f0c2 $r15: .cfa -16 + ^ .cfa: $rsp 16 +
STACK CFI f0c4 $r14: .cfa -24 + ^ .cfa: $rsp 24 +
STACK CFI f0c9 $r13: .cfa -32 + ^ .cfa: $rsp 32 +
STACK CFI f0cb $r12: .cfa -40 + ^ .cfa: $rsp 40 +
STACK CFI f0d6 $rbp: .cfa -48 + ^ .cfa: $rsp 48 +
STACK CFI f0d7 $rbx: .cfa -56 + ^ .cfa: $rsp 56 +
STACK CFI f0e4 .cfa: $rsp 80 +
STACK CFI f1aa .cfa: $rsp 56 +
STACK CFI f1ab $rbx: $rbx .cfa: $rsp 48 +
STACK CFI f1ac $rbp: $rbp .cfa: $rsp 40 +
STACK CFI f1ae $r12: $r12 .cfa: $rsp 32 +
STACK CFI f1b0 $r13: $r13 .cfa: $rsp 24 +
STACK CFI f1b2 $r14: $r14 .cfa: $rsp 16 +
STACK CFI f1b4 $r15: $r15 .cfa: $rsp 8 +
STACK CFI f1b6 $r12: .cfa -40 + ^ $r13: .cfa -32 + ^ $r14: .cfa -24 + ^ $r15: .cfa -16 + ^ $rbp: .cfa -48 + ^ $rbx: .cfa -56 + ^ .cfa: $rsp 80 +
STACK CFI INIT e5f0 930 .cfa: $rsp 8 + .ra: .cfa -8 + ^
STACK CFI e5f2 $r15: .cfa -16 + ^ .cfa: $rsp 16 +
STACK CFI e5f4 $r14: .cfa -24 + ^ .cfa: $rsp 24 +
STACK CFI e5fd $r13: .cfa -32 + ^ .cfa: $rsp 32 +
STACK CFI e5ff $r12: .cfa -40 + ^ .cfa: $rsp 40 +
STACK CFI e603 $rbp: .cfa -48 + ^ .cfa: $rsp 48 +
STACK CFI e604 $rbx: .cfa -56 + ^ .cfa: $rsp 56 +
STACK CFI e60b .cfa: $rsp 448 +
STACK CFI e7b0 .cfa: $rsp 56 +
STACK CFI e7b1 .cfa: $rsp 48 +
STACK CFI e7b2 .cfa: $rsp 40 +
STACK CFI e7b4 .cfa: $rsp 32 +
STACK CFI e7b6 .cfa: $rsp 24 +
STACK CFI e7b8 .cfa: $rsp 16 +
STACK CFI e7ba .cfa: $rsp 8 +
STACK CFI e7bb .cfa: $rsp 448 +
STACK CFI INIT f300 3 .cfa: $rsp 8 + .ra: .cfa -8 + ^
STACK CFI INIT f310 187 .cfa: $rsp 8 + .ra: .cfa -8 + ^
STACK CFI f312 $r15: .cfa -16 + ^ .cfa: $rsp 16 +
STACK CFI f314 $r14: .cfa -24 + ^ .cfa: $rsp 24 +
STACK CFI f316 $r13: .cfa -32 + ^ .cfa: $rsp 32 +
STACK CFI f318 $r12: .cfa -40 + ^ .cfa: $rsp 40 +
STACK CFI f319 $rbp: .cfa -48 + ^ .cfa: $rsp 48 +
STACK CFI f31a $rbx: .cfa -56 + ^ .cfa: $rsp 56 +
STACK CFI f31e .cfa: $rsp 112 +
STACK CFI f405 .cfa: $rsp 56 +
STACK CFI f406 .cfa: $rsp 48 +
STACK CFI f407 .cfa: $rsp 40 +
STACK CFI f409 .cfa: $rsp 32 +
STACK CFI f40b .cfa: $rsp 24 +
STACK CFI f40d .cfa: $rsp 16 +
STACK CFI f40f .cfa: $rsp 8 +
STACK CFI f410 .cfa: $rsp 112 +
STACK CFI INIT 103d0 13 .cfa: $rsp 8 + .ra: .cfa -8 + ^
STACK CFI INIT 103f0 20 .cfa: $rsp 8 + .ra: .cfa -8 + ^
STACK CFI 103f8 $rbx: .cfa -16 + ^ .cfa: $rsp 16 +
STACK CFI 1040b .cfa: $rsp 8 +
STACK CFI INIT f4a0 bb .cfa: $rsp 8 + .ra: .cfa -8 + ^
STACK CFI f4b8 $r15: .cfa -16 + ^ .cfa: $rsp 16 +
STACK CFI f4ba $r14: .cfa -24 + ^ .cfa: $rsp 24 +
STACK CFI f4bf $r13: .cfa -32 + ^ .cfa: $rsp 32 +
STACK CFI f4c1 $r12: .cfa -40 + ^ .cfa: $rsp 40 +
STACK CFI f4c5 $rbp: .cfa -48 + ^ .cfa: $rsp 48 +
STACK CFI f4c6 $rbx: .cfa -56 + ^ .cfa: $rsp 56 +
STACK CFI f4d0 .cfa: $rsp 64 +
STACK CFI f4e3 .cfa: $rsp 56 +
STACK CFI f4e4 $rbx: $rbx .cfa: $rsp 48 +
STACK CFI f4e5 $rbp: $rbp .cfa: $rsp 40 +
STACK CFI f4e7 $r12: $r12 .cfa: $rsp 32 +
STACK CFI f4e9 $r13: $r13 .cfa: $rsp 24 +
STACK CFI f4eb $r14: $r14 .cfa: $rsp 16 +
STACK CFI f4ed $r15: $r15 .cfa: $rsp 8 +
STACK CFI f4f8 $r12: .cfa -40 + ^ $r13: .cfa -32 + ^ $r14: .cfa -24 + ^ $r15: .cfa -16 + ^ $rbp: .cfa -48 + ^ $rbx: .cfa -56 + ^ .cfa: $rsp 64 +
STACK CFI INIT f560 bc .cfa: $rsp 8 + .ra: .cfa -8 + ^
STACK CFI f571 $r15: .cfa -16 + ^ .cfa: $rsp 16 +
STACK CFI f573 $r14: .cfa -24 + ^ .cfa: $rsp 24 +
STACK CFI f57b $r13: .cfa -32 + ^ .cfa: $rsp 32 +
STACK CFI f57d $r12: .cfa -40 + ^ .cfa: $rsp 40 +
STACK CFI f581 $rbp: .cfa -48 + ^ .cfa: $rsp 48 +
STACK CFI f582 $rbx: .cfa -56 + ^ .cfa: $rsp 56 +
STACK CFI f586 .cfa: $rsp 64 +
STACK CFI f60d .cfa: $rsp 56 +
STACK CFI f611 $rbx: $rbx .cfa: $rsp 48 +
STACK CFI f612 $rbp: $rbp .cfa: $rsp 40 +
STACK CFI f614 $r12: $r12 .cfa: $rsp 32 +
STACK CFI f616 $r13: $r13 .cfa: $rsp 24 +
STACK CFI f618 $r14: $r14 .cfa: $rsp 16 +
STACK CFI f61a $r15: $r15 .cfa: $rsp 8 +
STACK CFI INIT f620 5fd .cfa: $rsp 8 + .ra: .cfa -8 + ^
STACK CFI f622 $r15: .cfa -16 + ^ .cfa: $rsp 16 +
STACK CFI f624 $r14: .cfa -24 + ^ .cfa: $rsp 24 +
STACK CFI f62d $r13: .cfa -32 + ^ .cfa: $rsp 32 +
STACK CFI f62f $r12: .cfa -40 + ^ .cfa: $rsp 40 +
STACK CFI f633 $rbp: .cfa -48 + ^ .cfa: $rsp 48 +
STACK CFI f634 $rbx: .cfa -56 + ^ .cfa: $rsp 56 +
STACK CFI f63b .cfa: $rsp 416 +
STACK CFI f78f .cfa: $rsp 56 +
STACK CFI f790 .cfa: $rsp 48 +
STACK CFI f791 .cfa: $rsp 40 +
STACK CFI f793 .cfa: $rsp 32 +
STACK CFI f795 .cfa: $rsp 24 +
STACK CFI f797 .cfa: $rsp 16 +
STACK CFI f799 .cfa: $rsp 8 +
STACK CFI f7a0 .cfa: $rsp 416 +
STACK CFI INIT fc20 51d .cfa: $rsp 8 + .ra: .cfa -8 + ^
STACK CFI fc22 $r15: .cfa -16 + ^ .cfa: $rsp 16 +
STACK CFI fc24 $r14: .cfa -24 + ^ .cfa: $rsp 24 +
STACK CFI fc26 $r13: .cfa -32 + ^ .cfa: $rsp 32 +
STACK CFI fc28 $r12: .cfa -40 + ^ .cfa: $rsp 40 +
STACK CFI fc2c $rbp: .cfa -48 + ^ .cfa: $rsp 48 +
STACK CFI fc2d $rbx: .cfa -56 + ^ .cfa: $rsp 56 +
STACK CFI fc34 .cfa: $rsp 384 +
STACK CFI fe34 .cfa: $rsp 56 +
STACK CFI fe35 .cfa: $rsp 48 +
STACK CFI fe36 .cfa: $rsp 40 +
STACK CFI fe38 .cfa: $rsp 32 +
STACK CFI fe3a .cfa: $rsp 24 +
STACK CFI fe3c .cfa: $rsp 16 +
STACK CFI fe3e .cfa: $rsp 8 +
STACK CFI fe3f .cfa: $rsp 384 +
STACK CFI INIT 10140 27 .cfa: $rsp 8 + .ra: .cfa -8 + ^
STACK CFI 10141 $rbx: .cfa -16 + ^ .cfa: $rsp 16 +
STACK CFI 10166 .cfa: $rsp 8 +
STACK CFI INIT 10410 288 .cfa: $rsp 8 + .ra: .cfa -8 + ^
STACK CFI 10462 $r15: .cfa -16 + ^ .cfa: $rsp 16 +
STACK CFI 10464 $r14: .cfa -24 + ^ .cfa: $rsp 24 +
STACK CFI 10469 $r13: .cfa -32 + ^ .cfa: $rsp 32 +
STACK CFI 1046b $r12: .cfa -40 + ^ .cfa: $rsp 40 +
STACK CFI 10476 $rbp: .cfa -48 + ^ .cfa: $rsp 48 +
STACK CFI 10477 $rbx: .cfa -56 + ^ .cfa: $rsp 56 +
STACK CFI 10484 .cfa: $rsp 80 +
STACK CFI 10549 .cfa: $rsp 56 +
STACK CFI 1054a $rbx: $rbx .cfa: $rsp 48 +
STACK CFI 1054b $rbp: $rbp .cfa: $rsp 40 +
STACK CFI 1054d $r12: $r12 .cfa: $rsp 32 +
STACK CFI 1054f $r13: $r13 .cfa: $rsp 24 +
STACK CFI 10551 $r14: $r14 .cfa: $rsp 16 +
STACK CFI 10553 $r15: $r15 .cfa: $rsp 8 +
STACK CFI 10555 $r12: .cfa -40 + ^ $r13: .cfa -32 + ^ $r14: .cfa -24 + ^ $r15: .cfa -16 + ^ $rbp: .cfa -48 + ^ $rbx: .cfa -56 + ^ .cfa: $rsp 80 +
STACK CFI INIT 10170 251 .cfa: $rsp 8 + .ra: .cfa -8 + ^
STACK CFI 10172 $r15: .cfa -16 + ^ .cfa: $rsp 16 +
STACK CFI 10174 $r14: .cfa -24 + ^ .cfa: $rsp 24 +
STACK CFI 10176 $r13: .cfa -32 + ^ .cfa: $rsp 32 +
STACK CFI 10178 $r12: .cfa -40 + ^ .cfa: $rsp 40 +
STACK CFI 10179 $rbp: .cfa -48 + ^ .cfa: $rsp 48 +
STACK CFI 1017a $rbx: .cfa -56 + ^ .cfa: $rsp 56 +
STACK CFI 10181 .cfa: $rsp 304 +
STACK CFI 102f5 .cfa: $rsp 56 +
STACK CFI 102f6 .cfa: $rsp 48 +
STACK CFI 102f7 .cfa: $rsp 40 +
STACK CFI 102f9 .cfa: $rsp 32 +
STACK CFI 102fb .cfa: $rsp 24 +
STACK CFI 102fd .cfa: $rsp 16 +
STACK CFI 102ff .cfa: $rsp 8 +
STACK CFI 10300 .cfa: $rsp 304 +
STACK CFI INIT 1980 4a .cfa: $rsp 8 + .ra: .cfa -8 + ^
STACK CFI 1982 $r13: .cfa -16 + ^ .cfa: $rsp 16 +
STACK CFI 1984 $r12: .cfa -24 + ^ .cfa: $rsp 24 +
STACK CFI 1988 $rbp: .cfa -32 + ^ .cfa: $rsp 32 +
STACK CFI 1989 $rbx: .cfa -40 + ^ .cfa: $rsp 40 +
STACK CFI 198d .cfa: $rsp 48 +
STACK CFI 19c3 .cfa: $rsp 40 +
STACK CFI 19c4 .cfa: $rsp 32 +
STACK CFI 19c5 .cfa: $rsp 24 +
STACK CFI 19c7 .cfa: $rsp 16 +
STACK CFI 19c9 .cfa: $rsp 8 +
STACK CFI INIT 19ca 20 .cfa: $rsp 8 + .ra: .cfa -8 + ^
STACK CFI 19d2 .cfa: $rsp 16 +
STACK CFI INIT 19ea 20 .cfa: $rsp 8 + .ra: .cfa -8 + ^
STACK CFI 19f2 .cfa: $rsp 16 +
STACK CFI INIT 1a0a 1d .cfa: $rsp 8 + .ra: .cfa -8 + ^
STACK CFI 1a10 .cfa: $rsp 16 +
STACK CFI 1a15 .cfa: $rsp 8 +
STACK CFI INIT 1a28 20 .cfa: $rsp 8 + .ra: .cfa -8 + ^
STACK CFI 1a30 .cfa: $rsp 16 +
STACK CFI INIT 1a48 20 .cfa: $rsp 8 + .ra: .cfa -8 + ^
STACK CFI 1a50 .cfa: $rsp 16 +
STACK CFI INIT 1a68 2c .cfa: $rsp 8 + .ra: .cfa -8 + ^
STACK CFI 1a69 $rbp: .cfa -16 + ^ .cfa: $rsp 16 +
STACK CFI 1a6a $rbx: .cfa -24 + ^ .cfa: $rsp 24 +
STACK CFI 1a6f .cfa: $rsp 32 +
STACK CFI 1a8a .cfa: $rsp 24 +
STACK CFI 1a8e .cfa: $rsp 16 +
STACK CFI 1a8f .cfa: $rsp 8 +
STACK CFI INIT 14540 259 .cfa: $rsp 8 + .ra: .cfa -8 + ^
STACK CFI 14542 $r15: .cfa -16 + ^ .cfa: $rsp 16 +
STACK CFI 14544 $r14: .cfa -24 + ^ .cfa: $rsp 24 +
STACK CFI 1454a $r13: .cfa -32 + ^ .cfa: $rsp 32 +
STACK CFI 1454c $r12: .cfa -40 + ^ .cfa: $rsp 40 +
STACK CFI 14550 $rbp: .cfa -48 + ^ .cfa: $rsp 48 +
STACK CFI 14551 $rbx: .cfa -56 + ^ .cfa: $rsp 56 +
STACK CFI 14558 .cfa: $rsp 64 +
STACK CFI 145bd .cfa: $rsp 56 +
STACK CFI 145c0 .cfa: $rsp 48 +
STACK CFI 145c1 .cfa: $rsp 40 +
STACK CFI 145c3 .cfa: $rsp 32 +
STACK CFI 145c5 .cfa: $rsp 24 +
STACK CFI 145c7 .cfa: $rsp 16 +
STACK CFI 145c9 .cfa: $rsp 8 +
STACK CFI 145d0 .cfa: $rsp 64 +
STACK CFI 146a3 .cfa: $rsp 56 +
STACK CFI 146a4 .cfa: $rsp 48 +
STACK CFI 146aa .cfa: $rsp 40 +
STACK CFI 146ac .cfa: $rsp 32 +
STACK CFI 146ae .cfa: $rsp 24 +
STACK CFI 146b0 .cfa: $rsp 16 +
STACK CFI 146b2 .cfa: $rsp 8 +
STACK CFI 146b8 .cfa: $rsp 64 +
STACK CFI 1476d .cfa: $rsp 56 +
STACK CFI 14770 .cfa: $rsp 48 +
STACK CFI 14771 .cfa: $rsp 40 +
STACK CFI 14773 .cfa: $rsp 32 +
STACK CFI 14775 .cfa: $rsp 24 +
STACK CFI 14777 .cfa: $rsp 16 +
STACK CFI 14779 .cfa: $rsp 8 +
STACK CFI 1477a .cfa: $rsp 64 +
STACK CFI INIT 147a0 257 .cfa: $rsp 8 + .ra: .cfa -8 + ^
STACK CFI 147c2 $r15: .cfa -16 + ^ .cfa: $rsp 16 +
STACK CFI 147c4 $r14: .cfa -24 + ^ .cfa: $rsp 24 +
STACK CFI 147c6 $r13: .cfa -32 + ^ .cfa: $rsp 32 +
STACK CFI 147c8 $r12: .cfa -40 + ^ .cfa: $rsp 40 +
STACK CFI 147c9 $rbp: .cfa -48 + ^ .cfa: $rsp 48 +
STACK CFI 147ca $rbx: .cfa -56 + ^ .cfa: $rsp 56 +
STACK CFI 147d1 .cfa: $rsp 80 +
STACK CFI 14801 .cfa: $rsp 56 +
STACK CFI 14802 $rbx: $rbx .cfa: $rsp 48 +
STACK CFI 14803 $rbp: $rbp .cfa: $rsp 40 +
STACK CFI 14805 $r12: $r12 .cfa: $rsp 32 +
STACK CFI 14807 $r13: $r13 .cfa: $rsp 24 +
STACK CFI 14809 $r14: $r14 .cfa: $rsp 16 +
STACK CFI 1480b $r15: $r15 .cfa: $rsp 8 +
STACK CFI 14810 $r12: .cfa -40 + ^ $r13: .cfa -32 + ^ $r14: .cfa -24 + ^ $r15: .cfa -16 + ^ $rbp: .cfa -48 + ^ $rbx: .cfa -56 + ^ .cfa: $rsp 80 +
STACK CFI INIT 14a00 250 .cfa: $rsp 8 + .ra: .cfa -8 + ^
STACK CFI 14a02 $r15: .cfa -16 + ^ .cfa: $rsp 16 +
STACK CFI 14a04 $r14: .cfa -24 + ^ .cfa: $rsp 24 +
STACK CFI 14a06 $r13: .cfa -32 + ^ .cfa: $rsp 32 +
STACK CFI 14a08 $r12: .cfa -40 + ^ .cfa: $rsp 40 +
STACK CFI 14a0c $rbp: .cfa -48 + ^ .cfa: $rsp 48 +
STACK CFI 14a0d $rbx: .cfa -56 + ^ .cfa: $rsp 56 +
STACK CFI 14a14 .cfa: $rsp 80 +
STACK CFI 14ac0 .cfa: $rsp 56 +
STACK CFI 14ac1 .cfa: $rsp 48 +
STACK CFI 14ac2 .cfa: $rsp 40 +
STACK CFI 14ac4 .cfa: $rsp 32 +
STACK CFI 14ac6 .cfa: $rsp 24 +
STACK CFI 14ac8 .cfa: $rsp 16 +
STACK CFI 14aca .cfa: $rsp 8 +
STACK CFI 14ad0 .cfa: $rsp 80 +
STACK CFI INIT 106a0 e0e .cfa: $rsp 8 + .ra: .cfa -8 + ^
STACK CFI 106a2 $r15: .cfa -16 + ^ .cfa: $rsp 16 +
STACK CFI 106a4 $r14: .cfa -24 + ^ .cfa: $rsp 24 +
STACK CFI 106aa $r13: .cfa -32 + ^ .cfa: $rsp 32 +
STACK CFI 106ac $r12: .cfa -40 + ^ .cfa: $rsp 40 +
STACK CFI 106ad $rbp: .cfa -48 + ^ .cfa: $rsp 48 +
STACK CFI 106ae $rbx: .cfa -56 + ^ .cfa: $rsp 56 +
STACK CFI 106b5 .cfa: $rsp 2448 +
STACK CFI 10961 .cfa: $rsp 56 +
STACK CFI 10962 .cfa: $rsp 48 +
STACK CFI 10963 .cfa: $rsp 40 +
STACK CFI 10965 .cfa: $rsp 32 +
STACK CFI 10967 .cfa: $rsp 24 +
STACK CFI 10969 .cfa: $rsp 16 +
STACK CFI 1096b .cfa: $rsp 8 +
STACK CFI 10970 .cfa: $rsp 2448 +
STACK CFI INIT 114b0 218d .cfa: $rsp 8 + .ra: .cfa -8 + ^
STACK CFI 114b1 $rbp: .cfa -16 + ^ .cfa: $rsp 16 +
STACK CFI 114b9 .cfa: $rbp 16 +
STACK CFI 114c1 $r12: .cfa -48 + ^ $r13: .cfa -40 + ^ $r14: .cfa -32 + ^ $r15: .cfa -24 + ^
STACK CFI 114c6 $rbx: .cfa -56 + ^
STACK CFI 1160f .cfa: $rsp 8 +
STACK CFI 11610 .cfa: $rbp 16 +
STACK CFI INIT 13640 343 .cfa: $rsp 8 + .ra: .cfa -8 + ^
STACK CFI 13642 $r15: .cfa -16 + ^ .cfa: $rsp 16 +
STACK CFI 13644 $r14: .cfa -24 + ^ .cfa: $rsp 24 +
STACK CFI 13649 $r13: .cfa -32 + ^ .cfa: $rsp 32 +
STACK CFI 1364b $r12: .cfa -40 + ^ .cfa: $rsp 40 +
STACK CFI 1364f $rbp: .cfa -48 + ^ .cfa: $rsp 48 +
STACK CFI 13650 $rbx: .cfa -56 + ^ .cfa: $rsp 56 +
STACK CFI 13657 .cfa: $rsp 240 +
STACK CFI 137e5 .cfa: $rsp 56 +
STACK CFI 137e6 .cfa: $rsp 48 +
STACK CFI 137e7 .cfa: $rsp 40 +
STACK CFI 137e9 .cfa: $rsp 32 +
STACK CFI 137eb .cfa: $rsp 24 +
STACK CFI 137ed .cfa: $rsp 16 +
STACK CFI 137ef .cfa: $rsp 8 +
STACK CFI 137f0 .cfa: $rsp 240 +
STACK CFI INIT 13990 496 .cfa: $rsp 8 + .ra: .cfa -8 + ^
STACK CFI 13992 $r15: .cfa -16 + ^ .cfa: $rsp 16 +
STACK CFI 13994 $r14: .cfa -24 + ^ .cfa: $rsp 24 +
STACK CFI 13999 $r13: .cfa -32 + ^ .cfa: $rsp 32 +
STACK CFI 1399b $r12: .cfa -40 + ^ .cfa: $rsp 40 +
STACK CFI 1399c $rbp: .cfa -48 + ^ .cfa: $rsp 48 +
STACK CFI 1399d $rbx: .cfa -56 + ^ .cfa: $rsp 56 +
STACK CFI 139a6 .cfa: $rsp 544 +
STACK CFI 13c0f .cfa: $rsp 56 +
STACK CFI 13c10 .cfa: $rsp 48 +
STACK CFI 13c11 .cfa: $rsp 40 +
STACK CFI 13c13 .cfa: $rsp 32 +
STACK CFI 13c15 .cfa: $rsp 24 +
STACK CFI 13c17 .cfa: $rsp 16 +
STACK CFI 13c19 .cfa: $rsp 8 +
STACK CFI 13c1a .cfa: $rsp 544 +
STACK CFI INIT 13e30 422 .cfa: $rsp 8 + .ra: .cfa -8 + ^
STACK CFI 13e32 $r15: .cfa -16 + ^ .cfa: $rsp 16 +
STACK CFI 13e34 $r14: .cfa -24 + ^ .cfa: $rsp 24 +
STACK CFI 13e39 $r13: .cfa -32 + ^ .cfa: $rsp 32 +
STACK CFI 13e3b $r12: .cfa -40 + ^ .cfa: $rsp 40 +
STACK CFI 13e3f $rbp: .cfa -48 + ^ .cfa: $rsp 48 +
STACK CFI 13e40 $rbx: .cfa -56 + ^ .cfa: $rsp 56 +
STACK CFI 13e4e .cfa: $rsp 480 +
STACK CFI 13ee0 .cfa: $rsp 56 +
STACK CFI 13ee1 .cfa: $rsp 48 +
STACK CFI 13ee2 .cfa: $rsp 40 +
STACK CFI 13ee4 .cfa: $rsp 32 +
STACK CFI 13ee6 .cfa: $rsp 24 +
STACK CFI 13ee8 .cfa: $rsp 16 +
STACK CFI 13eea .cfa: $rsp 8 +
STACK CFI 13ef0 .cfa: $rsp 480 +
STACK CFI INIT 14260 109 .cfa: $rsp 8 + .ra: .cfa -8 + ^
STACK CFI 14261 $rbp: .cfa -16 + ^ .cfa: $rsp 16 +
STACK CFI 14278 .cfa: $rbp 16 +
STACK CFI 1427f $r12: .cfa -40 + ^ $r13: .cfa -32 + ^ $r14: .cfa -24 + ^ $rbx: .cfa -48 + ^
STACK CFI 14326 .cfa: $rsp 8 +
STACK CFI 14327 .cfa: $rbp 16 +
STACK CFI INIT 14370 109 .cfa: $rsp 8 + .ra: .cfa -8 + ^
STACK CFI 14371 $rbp: .cfa -16 + ^ .cfa: $rsp 16 +
STACK CFI 14385 .cfa: $rbp 16 +
STACK CFI 1438c $r12: .cfa -40 + ^ $r13: .cfa -32 + ^ $r14: .cfa -24 + ^ $rbx: .cfa -48 + ^
STACK CFI 14436 .cfa: $rsp 8 +
STACK CFI 14437 .cfa: $rbp 16 +
STACK CFI INIT 14480 26 .cfa: $rsp 8 + .ra: .cfa -8 + ^
STACK CFI 14484 .cfa: $rsp 16 +
STACK CFI 14486 .cfa: $rsp 24 +
STACK CFI 14488 .cfa: $rsp 32 +
STACK CFI 144a5 .cfa: $rsp 8 +
STACK CFI INIT 144b0 25 .cfa: $rsp 8 + .ra: .cfa -8 + ^
STACK CFI 144b4 .cfa: $rsp 16 +
STACK CFI 144b6 .cfa: $rsp 24 +
STACK CFI 144b8 .cfa: $rsp 32 +
STACK CFI 144d4 .cfa: $rsp 8 +
STACK CFI INIT 144e0 24 .cfa: $rsp 8 + .ra: .cfa -8 + ^
STACK CFI 144e4 .cfa: $rsp 16 +
STACK CFI 144e8 .cfa: $rsp 24 +
STACK CFI 144ea .cfa: $rsp 32 +
STACK CFI 14503 .cfa: $rsp 8 +
STACK CFI INIT 14510 23 .cfa: $rsp 8 + .ra: .cfa -8 + ^
STACK CFI 14514 .cfa: $rsp 16 +
STACK CFI 14518 .cfa: $rsp 24 +
STACK CFI 1451a .cfa: $rsp 32 +
STACK CFI 14532 .cfa: $rsp 8 +
STACK CFI INIT 14c50 23 .cfa: $rsp 8 + .ra: .cfa -8 + ^
STACK CFI 14c69 .cfa: $rsp 16 +
STACK CFI INIT 14c80 1a .cfa: $rsp 8 + .ra: .cfa -8 + ^
STACK CFI INIT 14ca0 78 .cfa: $rsp 8 + .ra: .cfa -8 + ^
STACK CFI 14ca2 $r12: .cfa -16 + ^ .cfa: $rsp 16 +
STACK CFI 14ca3 $rbp: .cfa -24 + ^ .cfa: $rsp 24 +
STACK CFI 14ca7 $rbx: .cfa -32 + ^ .cfa: $rsp 32 +
STACK CFI 14cdf .cfa: $rsp 24 +
STACK CFI 14ce0 .cfa: $rsp 16 +
STACK CFI 14ce2 .cfa: $rsp 8 +
STACK CFI 14ce8 .cfa: $rsp 32 +
STACK CFI 14cf5 .cfa: $rsp 24 +
STACK CFI 14cf6 .cfa: $rsp 16 +
STACK CFI 14cf8 .cfa: $rsp 8 +
STACK CFI 14cf9 .cfa: $rsp 32 +
STACK CFI INIT 14d20 2c .cfa: $rsp 8 + .ra: .cfa -8 + ^
STACK CFI 14d34 .cfa: $rsp 16 +
STACK CFI INIT 14d50 5d .cfa: $rsp 8 + .ra: .cfa -8 + ^
STACK CFI 14d52 $r12: .cfa -16 + ^ .cfa: $rsp 16 +
STACK CFI 14d56 $rbp: .cfa -24 + ^ .cfa: $rsp 24 +
STACK CFI 14d57 $rbx: .cfa -32 + ^ .cfa: $rsp 32 +
STACK CFI 14d9a .cfa: $rsp 24 +
STACK CFI 14d9b .cfa: $rsp 16 +
STACK CFI 14d9d .cfa: $rsp 8 +
STACK CFI 14da0 .cfa: $rsp 32 +
STACK CFI INIT 14db0 15 .cfa: $rsp 8 + .ra: .cfa -8 + ^
STACK CFI INIT 14dd0 b6 .cfa: $rsp 8 + .ra: .cfa -8 + ^
STACK CFI 14dd2 $r13: .cfa -16 + ^ .cfa: $rsp 16 +
STACK CFI 14dd4 $r12: .cfa -24 + ^ .cfa: $rsp 24 +
STACK CFI 14dd5 $rbp: .cfa -32 + ^ .cfa: $rsp 32 +
STACK CFI 14dd6 $rbx: .cfa -40 + ^ .cfa: $rsp 40 +
STACK CFI 14dda .cfa: $rsp 48 +
STACK CFI 14e0e .cfa: $rsp 40 +
STACK CFI 14e0f .cfa: $rsp 32 +
STACK CFI 14e10 .cfa: $rsp 24 +
STACK CFI 14e12 .cfa: $rsp 16 +
STACK CFI 14e14 .cfa: $rsp 8 +
STACK CFI 14e18 .cfa: $rsp 48 +
STACK CFI INIT 14e90 ff .cfa: $rsp 8 + .ra: .cfa -8 + ^
STACK CFI 14e91 $rbp: .cfa -16 + ^ .cfa: $rsp 16 +
STACK CFI 14e92 $rbx: .cfa -24 + ^ .cfa: $rsp 24 +
STACK CFI 14e96 .cfa: $rsp 32 +
STACK CFI 14f19 .cfa: $rsp 24 +
STACK CFI 14f1a .cfa: $rsp 16 +
STACK CFI 14f1b .cfa: $rsp 8 +
STACK CFI 14f20 .cfa: $rsp 32 +
STACK CFI 14f2d .cfa: $rsp 24 +
STACK CFI 14f30 .cfa: $rsp 16 +
STACK CFI 14f31 .cfa: $rsp 8 +
STACK CFI 14f32 .cfa: $rsp 32 +
STACK CFI INIT 14f90 f0 .cfa: $rsp 8 + .ra: .cfa -8 + ^
STACK CFI 14f92 $r15: .cfa -16 + ^ .cfa: $rsp 16 +
STACK CFI 14f94 $r14: .cfa -24 + ^ .cfa: $rsp 24 +
STACK CFI 14f96 $r13: .cfa -32 + ^ .cfa: $rsp 32 +
STACK CFI 14f98 $r12: .cfa -40 + ^ .cfa: $rsp 40 +
STACK CFI 14f99 $rbp: .cfa -48 + ^ .cfa: $rsp 48 +
STACK CFI 14f9a $rbx: .cfa -56 + ^ .cfa: $rsp 56 +
STACK CFI 14f9e .cfa: $rsp 80 +
STACK CFI 1504a .cfa: $rsp 56 +
STACK CFI 1504b .cfa: $rsp 48 +
STACK CFI 1504c .cfa: $rsp 40 +
STACK CFI 1504e .cfa: $rsp 32 +
STACK CFI 15050 .cfa: $rsp 24 +
STACK CFI 15052 .cfa: $rsp 16 +
STACK CFI 15054 .cfa: $rsp 8 +
STACK CFI 15055 .cfa: $rsp 80 +
STACK CFI INIT 15080 ef .cfa: $rsp 8 + .ra: .cfa -8 + ^
STACK CFI 15082 $r15: .cfa -16 + ^ .cfa: $rsp 16 +
STACK CFI 15084 $r14: .cfa -24 + ^ .cfa: $rsp 24 +
STACK CFI 15086 $r13: .cfa -32 + ^ .cfa: $rsp 32 +
STACK CFI 15088 $r12: .cfa -40 + ^ .cfa: $rsp 40 +
STACK CFI 15089 $rbp: .cfa -48 + ^ .cfa: $rsp 48 +
STACK CFI 1508a $rbx: .cfa -56 + ^ .cfa: $rsp 56 +
STACK CFI 1508e .cfa: $rsp 80 +
STACK CFI 15139 .cfa: $rsp 56 +
STACK CFI 1513a .cfa: $rsp 48 +
STACK CFI 1513b .cfa: $rsp 40 +
STACK CFI 1513d .cfa: $rsp 32 +
STACK CFI 1513f .cfa: $rsp 24 +
STACK CFI 15141 .cfa: $rsp 16 +
STACK CFI 15143 .cfa: $rsp 8 +
STACK CFI 15144 .cfa: $rsp 80 +
STACK CFI INIT 15170 41 .cfa: $rsp 8 + .ra: .cfa -8 + ^
STACK CFI 15171 $rbx: .cfa -16 + ^ .cfa: $rsp 16 +
STACK CFI 15191 .cfa: $rsp 8 +
STACK CFI 15192 .cfa: $rsp 16 +
STACK CFI INIT 151c0 89 .cfa: $rsp 8 + .ra: .cfa -8 + ^
STACK CFI 151c4 .cfa: $rsp 16 +
STACK CFI 151e7 .cfa: $rsp 8 +
STACK CFI 151ec .cfa: $rsp 16 +
STACK CFI INIT 15250 df .cfa: $rsp 8 + .ra: .cfa -8 + ^
STACK CFI 15252 $r12: .cfa -16 + ^ .cfa: $rsp 16 +
STACK CFI 15253 $rbp: .cfa -24 + ^ .cfa: $rsp 24 +
STACK CFI 15254 $rbx: .cfa -32 + ^ .cfa: $rsp 32 +
STACK CFI 15258 .cfa: $rsp 64 +
STACK CFI 152b5 .cfa: $rsp 32 +
STACK CFI 152b6 .cfa: $rsp 24 +
STACK CFI 152b7 .cfa: $rsp 16 +
STACK CFI 152b9 .cfa: $rsp 8 +
STACK CFI 152c0 .cfa: $rsp 64 +
STACK CFI INIT 15350 23a .cfa: $rsp 8 + .ra: .cfa -8 + ^
STACK CFI 15352 $r15: .cfa -16 + ^ .cfa: $rsp 16 +
STACK CFI 15354 $r14: .cfa -24 + ^ .cfa: $rsp 24 +
STACK CFI 15356 $r13: .cfa -32 + ^ .cfa: $rsp 32 +
STACK CFI 15358 $r12: .cfa -40 + ^ .cfa: $rsp 40 +
STACK CFI 15359 $rbp: .cfa -48 + ^ .cfa: $rsp 48 +
STACK CFI 1535a $rbx: .cfa -56 + ^ .cfa: $rsp 56 +
STACK CFI 1535e .cfa: $rsp 128 +
STACK CFI 15455 .cfa: $rsp 56 +
STACK CFI 15456 .cfa: $rsp 48 +
STACK CFI 15457 .cfa: $rsp 40 +
STACK CFI 15459 .cfa: $rsp 32 +
STACK CFI 1545b .cfa: $rsp 24 +
STACK CFI 1545d .cfa: $rsp 16 +
STACK CFI 1545f .cfa: $rsp 8 +
STACK CFI 15460 .cfa: $rsp 128 +
STACK CFI INIT 15330 5 .cfa: $rsp 8 + .ra: .cfa -8 + ^
STACK CFI INIT 15590 23a .cfa: $rsp 8 + .ra: .cfa -8 + ^
STACK CFI 15592 $r15: .cfa -16 + ^ .cfa: $rsp 16 +
STACK CFI 15594 $r14: .cfa -24 + ^ .cfa: $rsp 24 +
STACK CFI 15596 $r13: .cfa -32 + ^ .cfa: $rsp 32 +
STACK CFI 15598 $r12: .cfa -40 + ^ .cfa: $rsp 40 +
STACK CFI 15599 $rbp: .cfa -48 + ^ .cfa: $rsp 48 +
STACK CFI 1559a $rbx: .cfa -56 + ^ .cfa: $rsp 56 +
STACK CFI 1559e .cfa: $rsp 128 +
STACK CFI 1568c .cfa: $rsp 56 +
STACK CFI 1568d .cfa: $rsp 48 +
STACK CFI 1568e .cfa: $rsp 40 +
STACK CFI 15690 .cfa: $rsp 32 +
STACK CFI 15692 .cfa: $rsp 24 +
STACK CFI 15694 .cfa: $rsp 16 +
STACK CFI 15696 .cfa: $rsp 8 +
STACK CFI 156a0 .cfa: $rsp 128 +
STACK CFI INIT 15340 5 .cfa: $rsp 8 + .ra: .cfa -8 + ^
STACK CFI INIT 157d0 c2 .cfa: $rsp 8 + .ra: .cfa -8 + ^
STACK CFI 157d2 $r12: .cfa -16 + ^ .cfa: $rsp 16 +
STACK CFI 157d3 $rbp: .cfa -24 + ^ .cfa: $rsp 24 +
STACK CFI 157d7 $rbx: .cfa -32 + ^ .cfa: $rsp 32 +
STACK CFI 157de .cfa: $rsp 48 +
STACK CFI 1584a .cfa: $rsp 32 +
STACK CFI 1584b .cfa: $rsp 24 +
STACK CFI 1584c .cfa: $rsp 16 +
STACK CFI 1584e .cfa: $rsp 8 +
STACK CFI 15850 .cfa: $rsp 48 +
STACK CFI INIT 158a0 b1 .cfa: $rsp 8 + .ra: .cfa -8 + ^
STACK CFI 158a2 $r15: .cfa -16 + ^ .cfa: $rsp 16 +
STACK CFI 158a4 $r14: .cfa -24 + ^ .cfa: $rsp 24 +
STACK CFI 158a8 $r13: .cfa -32 + ^ .cfa: $rsp 32 +
STACK CFI 158aa $r12: .cfa -40 + ^ .cfa: $rsp 40 +
STACK CFI 158ae $rbp: .cfa -48 + ^ .cfa: $rsp 48 +
STACK CFI 158af $rbx: .cfa -56 + ^ .cfa: $rsp 56 +
STACK CFI 158c2 .cfa: $rsp 96 +
STACK CFI 15939 .cfa: $rsp 56 +
STACK CFI 1593a .cfa: $rsp 48 +
STACK CFI 1593b .cfa: $rsp 40 +
STACK CFI 1593d .cfa: $rsp 32 +
STACK CFI 1593f .cfa: $rsp 24 +
STACK CFI 15941 .cfa: $rsp 16 +
STACK CFI 15943 .cfa: $rsp 8 +
STACK CFI 15948 .cfa: $rsp 96 +
STACK CFI INIT 15960 7b .cfa: $rsp 8 + .ra: .cfa -8 + ^
STACK CFI 15961 $rbx: .cfa -16 + ^ .cfa: $rsp 16 +
STACK CFI 1596d .cfa: $rsp 64 +
STACK CFI 159d4 .cfa: $rsp 16 +
STACK CFI 159d5 .cfa: $rsp 8 +
STACK CFI 159d6 .cfa: $rsp 64 +
STACK CFI INIT 159e0 173 .cfa: $rsp 8 + .ra: .cfa -8 + ^
STACK CFI 159e2 $r14: .cfa -16 + ^ .cfa: $rsp 16 +
STACK CFI 159e4 $r13: .cfa -24 + ^ .cfa: $rsp 24 +
STACK CFI 159e6 $r12: .cfa -32 + ^ .cfa: $rsp 32 +
STACK CFI 159e7 $rbp: .cfa -40 + ^ .cfa: $rsp 40 +
STACK CFI 159ea $rbx: .cfa -48 + ^ .cfa: $rsp 48 +
STACK CFI 159f4 .cfa: $rsp 80 +
STACK CFI 15aff .cfa: $rsp 48 +
STACK CFI 15b00 .cfa: $rsp 40 +
STACK CFI 15b01 .cfa: $rsp 32 +
STACK CFI 15b03 .cfa: $rsp 24 +
STACK CFI 15b05 .cfa: $rsp 16 +
STACK CFI 15b07 .cfa: $rsp 8 +
STACK CFI 15b10 .cfa: $rsp 80 +
STACK CFI INIT 15d40 2bd .cfa: $rsp 8 + .ra: .cfa -8 + ^
STACK CFI 15d4b $r15: .cfa -16 + ^ .cfa: $rsp 16 +
STACK CFI 15d4d $r14: .cfa -24 + ^ .cfa: $rsp 24 +
STACK CFI 15d52 $r13: .cfa -32 + ^ .cfa: $rsp 32 +
STACK CFI 15d54 $r12: .cfa -40 + ^ .cfa: $rsp 40 +
STACK CFI 15d55 $rbp: .cfa -48 + ^ .cfa: $rsp 48 +
STACK CFI 15d56 $rbx: .cfa -56 + ^ .cfa: $rsp 56 +
STACK CFI 15d60 .cfa: $rsp 80 +
STACK CFI 15de1 .cfa: $rsp 56 +
STACK CFI 15de2 $rbx: $rbx .cfa: $rsp 48 +
STACK CFI 15de3 $rbp: $rbp .cfa: $rsp 40 +
STACK CFI 15de5 $r12: $r12 .cfa: $rsp 32 +
STACK CFI 15de7 $r13: $r13 .cfa: $rsp 24 +
STACK CFI 15de9 $r14: $r14 .cfa: $rsp 16 +
STACK CFI 15deb $r15: $r15 .cfa: $rsp 8 +
STACK CFI 15df0 $r12: .cfa -40 + ^ $r13: .cfa -32 + ^ $r14: .cfa -24 + ^ $r15: .cfa -16 + ^ $rbp: .cfa -48 + ^ $rbx: .cfa -56 + ^ .cfa: $rsp 80 +
STACK CFI 15e41 .cfa: $rsp 56 +
STACK CFI 15e42 $rbx: $rbx .cfa: $rsp 48 +
STACK CFI 15e43 $rbp: $rbp .cfa: $rsp 40 +
STACK CFI 15e45 $r12: $r12 .cfa: $rsp 32 +
STACK CFI 15e47 $r13: $r13 .cfa: $rsp 24 +
STACK CFI 15e49 $r14: $r14 .cfa: $rsp 16 +
STACK CFI 15e4b $r15: $r15 .cfa: $rsp 8 +
STACK CFI 15e50 $r12: .cfa -40 + ^ $r13: .cfa -32 + ^ $r14: .cfa -24 + ^ $r15: .cfa -16 + ^ $rbp: .cfa -48 + ^ $rbx: .cfa -56 + ^ .cfa: $rsp 80 +
STACK CFI 15f6e .cfa: $rsp 56 +
STACK CFI 15f6f $rbx: $rbx .cfa: $rsp 48 +
STACK CFI 15f70 $rbp: $rbp .cfa: $rsp 40 +
STACK CFI 15f72 $r12: $r12 .cfa: $rsp 32 +
STACK CFI 15f74 $r13: $r13 .cfa: $rsp 24 +
STACK CFI 15f76 $r14: $r14 .cfa: $rsp 16 +
STACK CFI 15f78 $r15: $r15 .cfa: $rsp 8 +
STACK CFI 15f80 $r12: .cfa -40 + ^ $r13: .cfa -32 + ^ $r14: .cfa -24 + ^ $r15: .cfa -16 + ^ $rbp: .cfa -48 + ^ $rbx: .cfa -56 + ^ .cfa: $rsp 80 +
STACK CFI INIT 16000 14d .cfa: $rsp 8 + .ra: .cfa -8 + ^
STACK CFI 1604a $r15: .cfa -16 + ^ .cfa: $rsp 16 +
STACK CFI 1604c $r14: .cfa -24 + ^ .cfa: $rsp 24 +
STACK CFI 1604e $r13: .cfa -32 + ^ .cfa: $rsp 32 +
STACK CFI 16050 $r12: .cfa -40 + ^ .cfa: $rsp 40 +
STACK CFI 16051 $rbp: .cfa -48 + ^ .cfa: $rsp 48 +
STACK CFI 16052 $rbx: .cfa -56 + ^ .cfa: $rsp 56 +
STACK CFI 1605c .cfa: $rsp 64 +
STACK CFI 16119 .cfa: $rsp 56 +
STACK CFI 1611a $rbx: $rbx .cfa: $rsp 48 +
STACK CFI 1611b $rbp: $rbp .cfa: $rsp 40 +
STACK CFI 1611d $r12: $r12 .cfa: $rsp 32 +
STACK CFI 1611f $r13: $r13 .cfa: $rsp 24 +
STACK CFI 16121 $r14: $r14 .cfa: $rsp 16 +
STACK CFI 16123 $r15: $r15 .cfa: $rsp 8 +
STACK CFI 16128 $r12: .cfa -40 + ^ $r13: .cfa -32 + ^ $r14: .cfa -24 + ^ $r15: .cfa -16 + ^ $rbp: .cfa -48 + ^ $rbx: .cfa -56 + ^ .cfa: $rsp 64 +
STACK CFI INIT 15b60 f0 .cfa: $rsp 8 + .ra: .cfa -8 + ^
STACK CFI 15b62 $r12: .cfa -16 + ^ .cfa: $rsp 16 +
STACK CFI 15b63 $rbp: .cfa -24 + ^ .cfa: $rsp 24 +
STACK CFI 15b67 $rbx: .cfa -32 + ^ .cfa: $rsp 32 +
STACK CFI 15b6e .cfa: $rsp 64 +
STACK CFI 15c1d .cfa: $rsp 32 +
STACK CFI 15c1e .cfa: $rsp 24 +
STACK CFI 15c1f .cfa: $rsp 16 +
STACK CFI 15c21 .cfa: $rsp 8 +
STACK CFI 15c28 .cfa: $rsp 64 +
STACK CFI INIT 15c50 e8 .cfa: $rsp 8 + .ra: .cfa -8 + ^
STACK CFI 15c52 $r12: .cfa -16 + ^ .cfa: $rsp 16 +
STACK CFI 15c53 $rbp: .cfa -24 + ^ .cfa: $rsp 24 +
STACK CFI 15c57 $rbx: .cfa -32 + ^ .cfa: $rsp 32 +
STACK CFI 15c5e .cfa: $rsp 64 +
STACK CFI 15d0b .cfa: $rsp 32 +
STACK CFI 15d0c .cfa: $rsp 24 +
STACK CFI 15d0d .cfa: $rsp 16 +
STACK CFI 15d0f .cfa: $rsp 8 +
STACK CFI 15d10 .cfa: $rsp 64 +
STACK CFI INIT 16150 1f .cfa: $rsp 8 + .ra: .cfa -8 + ^
STACK CFI 1615b .cfa: $rsp 16 +
STACK CFI 1616e .cfa: $rsp 8 +
STACK CFI INIT 16170 5 .cfa: $rsp 8 + .ra: .cfa -8 + ^
STACK CFI INIT 16180 452 .cfa: $rsp 8 + .ra: .cfa -8 + ^
STACK CFI 16182 $r15: .cfa -16 + ^ .cfa: $rsp 16 +
STACK CFI 16184 $r14: .cfa -24 + ^ .cfa: $rsp 24 +
STACK CFI 16186 $r13: .cfa -32 + ^ .cfa: $rsp 32 +
STACK CFI 16188 $r12: .cfa -40 + ^ .cfa: $rsp 40 +
STACK CFI 16189 $rbp: .cfa -48 + ^ .cfa: $rsp 48 +
STACK CFI 1618a $rbx: .cfa -56 + ^ .cfa: $rsp 56 +
STACK CFI 1618e .cfa: $rsp 96 +
STACK CFI 161d7 .cfa: $rsp 56 +
STACK CFI 161da .cfa: $rsp 48 +
STACK CFI 161db .cfa: $rsp 40 +
STACK CFI 161dd .cfa: $rsp 32 +
STACK CFI 161df .cfa: $rsp 24 +
STACK CFI 161e1 .cfa: $rsp 16 +
STACK CFI 161e3 .cfa: $rsp 8 +
STACK CFI 161e8 .cfa: $rsp 96 +
STACK CFI 1630e .cfa: $rsp 56 +
STACK CFI 1630f .cfa: $rsp 48 +
STACK CFI 16310 .cfa: $rsp 40 +
STACK CFI 16312 .cfa: $rsp 32 +
STACK CFI 16314 .cfa: $rsp 24 +
STACK CFI 16316 .cfa: $rsp 16 +
STACK CFI 16318 .cfa: $rsp 8 +
STACK CFI 16320 .cfa: $rsp 96 +
STACK CFI INIT 165e0 287 .cfa: $rsp 8 + .ra: .cfa -8 + ^
STACK CFI 165e5 $r14: .cfa -16 + ^ .cfa: $rsp 16 +
STACK CFI 165e7 $r13: .cfa -24 + ^ .cfa: $rsp 24 +
STACK CFI 165e9 $r12: .cfa -32 + ^ .cfa: $rsp 32 +
STACK CFI 165ea $rbp: .cfa -40 + ^ .cfa: $rsp 40 +
STACK CFI 165eb $rbx: .cfa -48 + ^ .cfa: $rsp 48 +
STACK CFI 1662a .cfa: $rsp 40 +
STACK CFI 1662d .cfa: $rsp 32 +
STACK CFI 1662f .cfa: $rsp 24 +
STACK CFI 16631 .cfa: $rsp 16 +
STACK CFI 16633 .cfa: $rsp 8 +
STACK CFI 16638 .cfa: $rsp 48 +
STACK CFI 166d9 .cfa: $rsp 40 +
STACK CFI 166da .cfa: $rsp 32 +
STACK CFI 166dc .cfa: $rsp 24 +
STACK CFI 166de .cfa: $rsp 16 +
STACK CFI 166e0 .cfa: $rsp 8 +
STACK CFI 166e8 .cfa: $rsp 48 +
STACK CFI INIT 16870 135 .cfa: $rsp 8 + .ra: .cfa -8 + ^
STACK CFI 16872 $r15: .cfa -16 + ^ .cfa: $rsp 16 +
STACK CFI 16874 $r14: .cfa -24 + ^ .cfa: $rsp 24 +
STACK CFI 16876 $r13: .cfa -32 + ^ .cfa: $rsp 32 +
STACK CFI 16878 $r12: .cfa -40 + ^ .cfa: $rsp 40 +
STACK CFI 1687c $rbp: .cfa -48 + ^ .cfa: $rsp 48 +
STACK CFI 1687d $rbx: .cfa -56 + ^ .cfa: $rsp 56 +
STACK CFI 16881 .cfa: $rsp 96 +
STACK CFI 1696e .cfa: $rsp 56 +
STACK CFI 1696f .cfa: $rsp 48 +
STACK CFI 16970 .cfa: $rsp 40 +
STACK CFI 16972 .cfa: $rsp 32 +
STACK CFI 16974 .cfa: $rsp 24 +
STACK CFI 16976 .cfa: $rsp 16 +
STACK CFI 16978 .cfa: $rsp 8 +
STACK CFI 16979 .cfa: $rsp 96 +
STACK CFI INIT 169b0 e2 .cfa: $rsp 8 + .ra: .cfa -8 + ^
STACK CFI 169b2 $r13: .cfa -16 + ^ .cfa: $rsp 16 +
STACK CFI 169b4 $r12: .cfa -24 + ^ .cfa: $rsp 24 +
STACK CFI 169b5 $rbp: .cfa -32 + ^ .cfa: $rsp 32 +
STACK CFI 169b6 $rbx: .cfa -40 + ^ .cfa: $rsp 40 +
STACK CFI 169be .cfa: $rsp 64 +
STACK CFI 16a20 .cfa: $rsp 40 +
STACK CFI 16a21 .cfa: $rsp 32 +
STACK CFI 16a22 .cfa: $rsp 24 +
STACK CFI 16a24 .cfa: $rsp 16 +
STACK CFI 16a26 .cfa: $rsp 8 +
STACK CFI 16a30 .cfa: $rsp 64 +
STACK CFI INIT 16aa0 c7 .cfa: $rsp 8 + .ra: .cfa -8 + ^
STACK CFI 16aa1 $rbx: .cfa -16 + ^ .cfa: $rsp 16 +
STACK CFI 16aa8 .cfa: $rsp 48 +
STACK CFI 16b37 .cfa: $rsp 16 +
STACK CFI 16b38 .cfa: $rsp 8 +
STACK CFI 16b40 .cfa: $rsp 48 +
STACK CFI INIT 16b70 49 .cfa: $rsp 8 + .ra: .cfa -8 + ^
STACK CFI 16b71 $rbx: .cfa -16 + ^ .cfa: $rsp 16 +
STACK CFI 16b78 .cfa: $rsp 32 +
STACK CFI 16baf .cfa: $rsp 16 +
STACK CFI 16bb3 .cfa: $rsp 8 +
STACK CFI 16bb4 .cfa: $rsp 32 +
STACK CFI INIT 16bc0 462 .cfa: $rsp 8 + .ra: .cfa -8 + ^
STACK CFI 16bc2 $r15: .cfa -16 + ^ .cfa: $rsp 16 +
STACK CFI 16bc4 $r14: .cfa -24 + ^ .cfa: $rsp 24 +
STACK CFI 16bc9 $r13: .cfa -32 + ^ .cfa: $rsp 32 +
STACK CFI 16bcb $r12: .cfa -40 + ^ .cfa: $rsp 40 +
STACK CFI 16bcc $rbp: .cfa -48 + ^ .cfa: $rsp 48 +
STACK CFI 16bcd $rbx: .cfa -56 + ^ .cfa: $rsp 56 +
STACK CFI 16bd9 .cfa: $rsp 144 +
STACK CFI 16c8f .cfa: $rsp 56 +
STACK CFI 16c90 .cfa: $rsp 48 +
STACK CFI 16c91 .cfa: $rsp 40 +
STACK CFI 16c93 .cfa: $rsp 32 +
STACK CFI 16c95 .cfa: $rsp 24 +
STACK CFI 16c97 .cfa: $rsp 16 +
STACK CFI 16c99 .cfa: $rsp 8 +
STACK CFI 16ca0 .cfa: $rsp 144 +
STACK CFI 16d39 .cfa: $rsp 152 +
STACK CFI 16d3f .cfa: $rsp 160 +
STACK CFI 16d56 .cfa: $rsp 152 +
STACK CFI 16d5c .cfa: $rsp 144 +
STACK CFI INIT 17030 7c .cfa: $rsp 8 + .ra: .cfa -8 + ^
STACK CFI 17031 $rbp: .cfa -16 + ^ .cfa: $rsp 16 +
STACK CFI 17032 $rbx: .cfa -24 + ^ .cfa: $rsp 24 +
STACK CFI 1703b .cfa: $rsp 64 +
STACK CFI 1708a .cfa: $rsp 24 +
STACK CFI 1708b .cfa: $rsp 16 +
STACK CFI 1708c .cfa: $rsp 8 +
STACK CFI 17090 .cfa: $rsp 64 +
STACK CFI INIT 171b0 16 .cfa: $rsp 8 + .ra: .cfa -8 + ^
STACK CFI 171b4 .cfa: $rsp 16 +
STACK CFI 171bf .cfa: $rsp 8 +
STACK CFI INIT 170b0 73 .cfa: $rsp 8 + .ra: .cfa -8 + ^
STACK CFI 170b1 $rbx: .cfa -16 + ^ .cfa: $rsp 16 +
STACK CFI 17122 .cfa: $rsp 8 +
STACK CFI INIT 17130 75 .cfa: $rsp 8 + .ra: .cfa -8 + ^
STACK CFI 17134 $rbx: .cfa -16 + ^ .cfa: $rsp 16 +
STACK CFI 17153 .cfa: $rsp 24 +
STACK CFI 17157 .cfa: $rsp 32 +
STACK CFI 1715c .cfa: $rsp 40 +
STACK CFI 17161 .cfa: $rsp 48 +
STACK CFI 17172 .cfa: $rsp 16 +
STACK CFI 17185 .cfa: $rsp 8 +
STACK CFI 17186 .cfa: $rsp 16 +
STACK CFI INIT 171d0 1e .cfa: $rsp 8 + .ra: .cfa -8 + ^
STACK CFI INIT 171f0 46 .cfa: $rsp 8 + .ra: .cfa -8 + ^
STACK CFI INIT 17240 56 .cfa: $rsp 8 + .ra: .cfa -8 + ^
STACK CFI INIT 172a0 4c .cfa: $rsp 8 + .ra: .cfa -8 + ^
STACK CFI INIT 172f0 39 .cfa: $rsp 8 + .ra: .cfa -8 + ^
STACK CFI INIT 17330 3c .cfa: $rsp 8 + .ra: .cfa -8 + ^
STACK CFI INIT 17370 34 .cfa: $rsp 8 + .ra: .cfa -8 + ^
STACK CFI INIT 173b0 26 .cfa: $rsp 8 + .ra: .cfa -8 + ^
STACK CFI INIT 173e0 34 .cfa: $rsp 8 + .ra: .cfa -8 + ^
STACK CFI INIT 17420 7c .cfa: $rsp 8 + .ra: .cfa -8 + ^
STACK CFI INIT 174a0 3a .cfa: $rsp 8 + .ra: .cfa -8 + ^
STACK CFI INIT 174e0 1f .cfa: $rsp 8 + .ra: .cfa -8 + ^
STACK CFI INIT 17500 38 .cfa: $rsp 8 + .ra: .cfa -8 + ^
STACK CFI INIT 17540 3b .cfa: $rsp 8 + .ra: .cfa -8 + ^
STACK CFI 17546 $rbx: .cfa -16 + ^ .cfa: $rsp 16 +
STACK CFI 17563 $rbx: $rbx .cfa: $rsp 8 +
STACK CFI 17568 $rbx: .cfa -16 + ^ .cfa: $rsp 16 +
STACK CFI 17577 $rbx: $rbx .cfa: $rsp 8 +
STACK CFI INIT 17580 6c .cfa: $rsp 8 + .ra: .cfa -8 + ^
STACK CFI 17584 .cfa: $rsp 32 +
STACK CFI 175d8 .cfa: $rsp 8 +
STACK CFI 175e0 .cfa: $rsp 32 +
STACK CFI INIT 175f0 10 .cfa: $rsp 8 + .ra: .cfa -8 + ^
STACK CFI INIT 17600 4b .cfa: $rsp 8 + .ra: .cfa -8 + ^
STACK CFI 17601 $rbp: .cfa -16 + ^ .cfa: $rsp 16 +
STACK CFI 17602 $rbx: .cfa -24 + ^ .cfa: $rsp 24 +
STACK CFI 17609 .cfa: $rsp 32 +
STACK CFI 1763c .cfa: $rsp 24 +
STACK CFI 1763d .cfa: $rsp 16 +
STACK CFI 1763e .cfa: $rsp 8 +
STACK CFI 17640 .cfa: $rsp 32 +
STACK CFI INIT 17650 5 .cfa: $rsp 8 + .ra: .cfa -8 + ^
STACK CFI INIT 17660 1af .cfa: $rsp 8 + .ra: .cfa -8 + ^
STACK CFI 17662 $r15: .cfa -16 + ^ .cfa: $rsp 16 +
STACK CFI 17664 $r14: .cfa -24 + ^ .cfa: $rsp 24 +
STACK CFI 17666 $r13: .cfa -32 + ^ .cfa: $rsp 32 +
STACK CFI 17668 $r12: .cfa -40 + ^ .cfa: $rsp 40 +
STACK CFI 1766c $rbp: .cfa -48 + ^ .cfa: $rsp 48 +
STACK CFI 1766d $rbx: .cfa -56 + ^ .cfa: $rsp 56 +
STACK CFI 1767c .cfa: $rsp 224 +
STACK CFI 1776d .cfa: $rsp 56 +
STACK CFI 1776e .cfa: $rsp 48 +
STACK CFI 1776f .cfa: $rsp 40 +
STACK CFI 17771 .cfa: $rsp 32 +
STACK CFI 17773 .cfa: $rsp 24 +
STACK CFI 17775 .cfa: $rsp 16 +
STACK CFI 17777 .cfa: $rsp 8 +
STACK CFI 17780 .cfa: $rsp 224 +
STACK CFI INIT 17810 14 .cfa: $rsp 8 + .ra: .cfa -8 + ^
STACK CFI INIT 17830 40 .cfa: $rsp 8 + .ra: .cfa -8 + ^
STACK CFI 17836 $rbx: .cfa -16 + ^ .cfa: $rsp 16 +
STACK CFI 17851 .cfa: $rsp 8 +
STACK CFI 17858 .cfa: $rsp 16 +
STACK CFI 1786f .cfa: $rsp 8 +
STACK CFI INIT 17870 2 .cfa: $rsp 8 + .ra: .cfa -8 + ^
STACK CFI INIT 17880 213 .cfa: $rsp 8 + .ra: .cfa -8 + ^
STACK CFI 17882 $r15: .cfa -16 + ^ .cfa: $rsp 16 +
STACK CFI 17884 $r14: .cfa -24 + ^ .cfa: $rsp 24 +
STACK CFI 1788b $r13: .cfa -32 + ^ .cfa: $rsp 32 +
STACK CFI 1788d $r12: .cfa -40 + ^ .cfa: $rsp 40 +
STACK CFI 1788e $rbp: .cfa -48 + ^ .cfa: $rsp 48 +
STACK CFI 1788f $rbx: .cfa -56 + ^ .cfa: $rsp 56 +
STACK CFI 17899 .cfa: $rsp 208 +
STACK CFI 17a27 .cfa: $rsp 56 +
STACK CFI 17a28 .cfa: $rsp 48 +
STACK CFI 17a29 .cfa: $rsp 40 +
STACK CFI 17a2b .cfa: $rsp 32 +
STACK CFI 17a2d .cfa: $rsp 24 +
STACK CFI 17a2f .cfa: $rsp 16 +
STACK CFI 17a31 .cfa: $rsp 8 +
STACK CFI 17a38 .cfa: $rsp 208 +
STACK CFI INIT 17aa0 5 .cfa: $rsp 8 + .ra: .cfa -8 + ^
STACK CFI INIT 17ab0 23 .cfa: $rsp 8 + .ra: .cfa -8 + ^
STACK CFI 17ab5 $rbx: .cfa -16 + ^ .cfa: $rsp 16 +
STACK CFI 17acf $rbx: $rbx .cfa: $rsp 8 +
STACK CFI INIT 17ae0 8 .cfa: $rsp 8 + .ra: .cfa -8 + ^
STACK CFI INIT 17af0 2fc .cfa: $rsp 8 + .ra: .cfa -8 + ^
STACK CFI INIT 17df0 44 .cfa: $rsp 8 + .ra: .cfa -8 + ^
STACK CFI 17e1c .cfa: $rsp 16 +
STACK CFI INIT 17e40 47 .cfa: $rsp 8 + .ra: .cfa -8 + ^
STACK CFI 17e6f .cfa: $rsp 16 +
STACK CFI INIT 17e90 8 .cfa: $rsp 8 + .ra: .cfa -8 + ^
STACK CFI INIT 17ea0 8 .cfa: $rsp 8 + .ra: .cfa -8 + ^
STACK CFI INIT 17eb0 25c .cfa: $rsp 8 + .ra: .cfa -8 + ^
STACK CFI INIT 18110 c7 .cfa: $rsp 8 + .ra: .cfa -8 + ^
STACK CFI INIT 181e0 fd .cfa: $rsp 8 + .ra: .cfa -8 + ^
STACK CFI 181e1 $rbp: .cfa -16 + ^ .cfa: $rsp 16 +
STACK CFI 181e2 $rbx: .cfa -24 + ^ .cfa: $rsp 24 +
STACK CFI 18269 .cfa: $rsp 16 +
STACK CFI 1826a .cfa: $rsp 8 +
STACK CFI 18270 .cfa: $rsp 24 +
STACK CFI 182ca .cfa: $rsp 16 +
STACK CFI 182cb .cfa: $rsp 8 +
STACK CFI 182cc .cfa: $rsp 24 +
STACK CFI INIT 182e0 118 .cfa: $rsp 8 + .ra: .cfa -8 + ^
STACK CFI 182e5 $r14: .cfa -16 + ^ .cfa: $rsp 16 +
STACK CFI 182e7 $r13: .cfa -24 + ^ .cfa: $rsp 24 +
STACK CFI 182ec $r12: .cfa -32 + ^ .cfa: $rsp 32 +
STACK CFI 182ed $rbp: .cfa -40 + ^ .cfa: $rsp 40 +
STACK CFI 182f1 $rbx: .cfa -48 + ^ .cfa: $rsp 48 +
STACK CFI 18386 .cfa: $rsp 40 +
STACK CFI 18392 .cfa: $rsp 32 +
STACK CFI 18394 .cfa: $rsp 24 +
STACK CFI 18396 .cfa: $rsp 16 +
STACK CFI 18398 .cfa: $rsp 8 +
STACK CFI 183a0 .cfa: $rsp 48 +
STACK CFI 183bf .cfa: $rsp 40 +
STACK CFI 183c8 .cfa: $rsp 32 +
STACK CFI 183ca .cfa: $rsp 24 +
STACK CFI 183cc .cfa: $rsp 16 +
STACK CFI 183ce .cfa: $rsp 8 +
STACK CFI 183d0 .cfa: $rsp 48 +
STACK CFI 183d1 .cfa: $rsp 40 +
STACK CFI 183dd .cfa: $rsp 32 +
STACK CFI 183df .cfa: $rsp 24 +
STACK CFI 183e1 .cfa: $rsp 16 +
STACK CFI 183e3 .cfa: $rsp 8 +
STACK CFI 183e4 .cfa: $rsp 48 +
STACK CFI 183e5 .cfa: $rsp 40 +
STACK CFI 183f1 .cfa: $rsp 32 +
STACK CFI 183f3 .cfa: $rsp 24 +
STACK CFI 183f5 .cfa: $rsp 16 +
STACK CFI 183f7 .cfa: $rsp 8 +
STACK CFI INIT 18400 1ff .cfa: $rsp 8 + .ra: .cfa -8 + ^
STACK CFI 18402 $r13: .cfa -16 + ^ .cfa: $rsp 16 +
STACK CFI 18404 $r12: .cfa -24 + ^ .cfa: $rsp 24 +
STACK CFI 18405 $rbp: .cfa -32 + ^ .cfa: $rsp 32 +
STACK CFI 18406 $rbx: .cfa -40 + ^ .cfa: $rsp 40 +
STACK CFI 18522 .cfa: $rsp 32 +
STACK CFI 18523 .cfa: $rsp 24 +
STACK CFI 18528 .cfa: $rsp 16 +
STACK CFI 1852a .cfa: $rsp 8 +
STACK CFI 18530 .cfa: $rsp 40 +
STACK CFI 18545 .cfa: $rsp 32 +
STACK CFI 18546 .cfa: $rsp 24 +
STACK CFI 18548 .cfa: $rsp 16 +
STACK CFI 1854a .cfa: $rsp 8 +
STACK CFI 18550 .cfa: $rsp 40 +
STACK CFI 18575 .cfa: $rsp 32 +
STACK CFI 18576 .cfa: $rsp 24 +
STACK CFI 18578 .cfa: $rsp 16 +
STACK CFI 1857a .cfa: $rsp 8 +
STACK CFI 18580 .cfa: $rsp 40 +
STACK CFI 185a9 .cfa: $rsp 32 +
STACK CFI 185aa .cfa: $rsp 24 +
STACK CFI 185ac .cfa: $rsp 16 +
STACK CFI 185ae .cfa: $rsp 8 +
STACK CFI 185af .cfa: $rsp 40 +
STACK CFI INIT 18600 2b .cfa: $rsp 8 + .ra: .cfa -8 + ^
STACK CFI INIT 18630 26f .cfa: $rsp 8 + .ra: .cfa -8 + ^
STACK CFI 18632 $r15: .cfa -16 + ^ .cfa: $rsp 16 +
STACK CFI 18634 $r14: .cfa -24 + ^ .cfa: $rsp 24 +
STACK CFI 18636 $r13: .cfa -32 + ^ .cfa: $rsp 32 +
STACK CFI 18638 $r12: .cfa -40 + ^ .cfa: $rsp 40 +
STACK CFI 18639 $rbp: .cfa -48 + ^ .cfa: $rsp 48 +
STACK CFI 1863a $rbx: .cfa -56 + ^ .cfa: $rsp 56 +
STACK CFI 1863e .cfa: $rsp 80 +
STACK CFI 1878f .cfa: $rsp 56 +
STACK CFI 18790 .cfa: $rsp 48 +
STACK CFI 18791 .cfa: $rsp 40 +
STACK CFI 18793 .cfa: $rsp 32 +
STACK CFI 18795 .cfa: $rsp 24 +
STACK CFI 18797 .cfa: $rsp 16 +
STACK CFI 18799 .cfa: $rsp 8 +
STACK CFI 187a0 .cfa: $rsp 80 +
STACK CFI INIT 188a0 19a .cfa: $rsp 8 + .ra: .cfa -8 + ^
STACK CFI 188a2 $r13: .cfa -16 + ^ .cfa: $rsp 16 +
STACK CFI 188a4 $r12: .cfa -24 + ^ .cfa: $rsp 24 +
STACK CFI 188a7 $rbp: .cfa -32 + ^ .cfa: $rsp 32 +
STACK CFI 188a8 $rbx: .cfa -40 + ^ .cfa: $rsp 40 +
STACK CFI 1898d .cfa: $rsp 32 +
STACK CFI 1898e .cfa: $rsp 24 +
STACK CFI 18990 .cfa: $rsp 16 +
STACK CFI 18992 .cfa: $rsp 8 +
STACK CFI 18998 .cfa: $rsp 40 +
STACK CFI 18a1c .cfa: $rsp 32 +
STACK CFI 18a1d .cfa: $rsp 24 +
STACK CFI 18a1f .cfa: $rsp 16 +
STACK CFI 18a21 .cfa: $rsp 8 +
STACK CFI 18a22 .cfa: $rsp 40 +
STACK CFI INIT 18a40 287 .cfa: $rsp 8 + .ra: .cfa -8 + ^
STACK CFI 18a42 $r15: .cfa -16 + ^ .cfa: $rsp 16 +
STACK CFI 18a44 $r14: .cfa -24 + ^ .cfa: $rsp 24 +
STACK CFI 18a46 $r13: .cfa -32 + ^ .cfa: $rsp 32 +
STACK CFI 18a48 $r12: .cfa -40 + ^ .cfa: $rsp 40 +
STACK CFI 18a49 $rbp: .cfa -48 + ^ .cfa: $rsp 48 +
STACK CFI 18a4a $rbx: .cfa -56 + ^ .cfa: $rsp 56 +
STACK CFI 18a4e .cfa: $rsp 88 +
STACK CFI 18bd5 .cfa: $rsp 56 +
STACK CFI 18bd6 .cfa: $rsp 48 +
STACK CFI 18bd7 .cfa: $rsp 40 +
STACK CFI 18bd9 .cfa: $rsp 32 +
STACK CFI 18bdb .cfa: $rsp 24 +
STACK CFI 18bdd .cfa: $rsp 16 +
STACK CFI 18bdf .cfa: $rsp 8 +
STACK CFI 18be0 .cfa: $rsp 88 +
STACK CFI INIT 18cd0 65 .cfa: $rsp 8 + .ra: .cfa -8 + ^
STACK CFI 18cd2 $r15: .cfa -16 + ^ .cfa: $rsp 16 +
STACK CFI 18cd4 $r14: .cfa -24 + ^ .cfa: $rsp 24 +
STACK CFI 18cd9 $r13: .cfa -32 + ^ .cfa: $rsp 32 +
STACK CFI 18cdb $r12: .cfa -40 + ^ .cfa: $rsp 40 +
STACK CFI 18ce3 $rbp: .cfa -48 + ^ .cfa: $rsp 48 +
STACK CFI 18ceb $rbx: .cfa -56 + ^ .cfa: $rsp 56 +
STACK CFI 18cf8 .cfa: $rsp 64 +
STACK CFI 18d2a .cfa: $rsp 56 +
STACK CFI 18d2b .cfa: $rsp 48 +
STACK CFI 18d2c .cfa: $rsp 40 +
STACK CFI 18d2e .cfa: $rsp 32 +
STACK CFI 18d30 .cfa: $rsp 24 +
STACK CFI 18d32 .cfa: $rsp 16 +
STACK CFI 18d34 .cfa: $rsp 8 +
STACK CFI INIT 18d40 2 .cfa: $rsp 8 + .ra: .cfa -8 + ^
