MODULE Linux x86_64 BD88A2BA8848F67277810F16645F2CF50 submarine_internal
INFO CODE_ID BAA288BD488872F677810F16645F2CF5084A8810
FUNC 1980 4a 0 google_breakpad::PageAllocator::FreeAll()
FUNC 19ca 20 0 google_breakpad::ProcCpuInfoReader::GetValueAndLen(unsigned long*)
FUNC 19ea 20 0 google_breakpad::TypedMDRVA<MDRawDirectory>::CopyIndex(unsigned int, MDRawDirectory*)
FUNC 1a0a 1d 0 google_breakpad::TypedMDRVA<MDRawDirectory>::CopyIndex(unsigned int, MDRawDirectory*)
FUNC 1a28 20 0 google_breakpad::TypedMDRVA<unsigned int>::CopyIndexAfterObject(unsigned int, void const*, unsigned long)
FUNC 1a48 20 0 MinidumpWriter::MinidumpWriter
FUNC 1a68 2c 0 MinidumpWriter::~MinidumpWriter
FUNC 1b96 17 0 dumpCallback
FUNC 1bad 1cc 0 _EQUAL()
FUNC 1d79 1cc 0 _0()
FUNC 1f45 1cc 0 _1()
FUNC 2111 1cc 0 _2()
FUNC 22dd 1cc 0 _3()
FUNC 24a9 1cc 0 _4()
FUNC 2675 1cc 0 _5()
FUNC 2841 1cc 0 _6()
FUNC 2a0d 1cc 0 _7()
FUNC 2bd9 1cc 0 _8()
FUNC 2da5 1cc 0 _9()
FUNC 2f71 1cc 0 _A()
FUNC 313d 1cc 0 _B()
FUNC 3309 1cc 0 _C()
FUNC 34d5 1cc 0 _D()
FUNC 36a1 1cc 0 _E()
FUNC 386d 1cc 0 _F()
FUNC 3a39 1cc 0 _G()
FUNC 3c05 1cc 0 _H()
FUNC 3dd1 1cc 0 _I()
FUNC 3f9d 1cc 0 _J()
FUNC 4169 1cc 0 _K()
FUNC 4335 1cc 0 _L()
FUNC 4501 1cc 0 _M()
FUNC 46cd 1cc 0 _N()
FUNC 4899 1cc 0 _O()
FUNC 4a65 1cc 0 _P()
FUNC 4c31 1cc 0 _Q()
FUNC 4dfd 1cc 0 _R()
FUNC 4fc9 1cc 0 _S()
FUNC 5195 1cc 0 _T()
FUNC 5361 1cc 0 _U()
FUNC 552d 1cc 0 _V()
FUNC 56f9 1cc 0 _W()
FUNC 58c5 1cc 0 _X()
FUNC 5a91 1cc 0 _Y()
FUNC 5c5d 1cc 0 _Z()
FUNC 5e29 1cc 0 _a()
FUNC 5ff5 1cc 0 _b()
FUNC 61c1 1cc 0 _c()
FUNC 638d 1cc 0 _d()
FUNC 6559 1cc 0 _e()
FUNC 6725 1cc 0 _f()
FUNC 68f1 1cc 0 _g()
FUNC 6abd 1cc 0 _h()
FUNC 6c89 1cc 0 _i()
FUNC 6e55 1cc 0 _j()
FUNC 7021 1cc 0 _k()
FUNC 71ed 1cc 0 _l()
FUNC 73b9 1cc 0 _m()
FUNC 7585 1cc 0 _n()
FUNC 7751 1cc 0 _o()
FUNC 791d 1cc 0 _p()
FUNC 7ae9 1cc 0 _q()
FUNC 7cb5 1cc 0 _r()
FUNC 7e81 1cc 0 _s()
FUNC 804d 1cc 0 _t()
FUNC 8219 1cc 0 _u()
FUNC 83e5 1cc 0 _v()
FUNC 85b1 1cc 0 _w()
FUNC 877d 1cc 0 _x()
FUNC 8949 1cc 0 _y()
FUNC 8b15 1cc 0 _z()
FUNC 8ce1 1cc 0 StartFlagProcessing()
FUNC 8ead 7 0 Execute()
FUNC 8eb4 133 0 main
FUNC 8fe8 3a 0 google_breakpad::MicrodumpExtraInfo::MicrodumpExtraInfo()
FUNC 9022 8d 0 google_breakpad::MinidumpDescriptor::MinidumpDescriptor(int)
FUNC 90b0 2f 0 google_breakpad::MinidumpDescriptor::~MinidumpDescriptor()
FUNC 90e0 14b 0 google_breakpad::ExceptionHandler::InstallHandlersLocked()
FUNC 9230 7c 0 google_breakpad::ExceptionHandler::RestoreHandlersLocked()
FUNC 92b0 341 0 google_breakpad::ExceptionHandler::~ExceptionHandler()
FUNC 9600 d1 0 google_breakpad::ExceptionHandler::SendContinueSignalToChild()
FUNC 96e0 4bc 0 google_breakpad::ExceptionHandler::GenerateDump(google_breakpad::ExceptionHandler::CrashContext*)
FUNC 9ba0 1da 0 google_breakpad::ExceptionHandler::HandleSignal(int, siginfo_t*, void*)
FUNC 9d80 1c1 0 google_breakpad::ExceptionHandler::SignalHandler(int, siginfo_t*, void*)
FUNC 9f50 7f 0 google_breakpad::ExceptionHandler::SimulateSignalDelivery(int)
FUNC 9fd0 e5 0 google_breakpad::ExceptionHandler::WaitForContinueSignal()
FUNC a0c0 8b 0 google_breakpad::ExceptionHandler::DoDump(int, void const*, unsigned long)
FUNC a150 28 0 google_breakpad::ExceptionHandler::ThreadEntry(void*)
FUNC a180 195 0 google_breakpad::ExceptionHandler::WriteMinidump()
FUNC a320 e3 0 google_breakpad::ExceptionHandler::AddMappingInfo(std::__cxx11::basic_string<char, std::char_traits<char>, std::allocator<char> > const&, unsigned char const*, unsigned long, unsigned long, unsigned long)
FUNC a410 91 0 google_breakpad::ExceptionHandler::RegisterAppMemory(void*, unsigned long)
FUNC a4b0 52 0 google_breakpad::ExceptionHandler::UnregisterAppMemory(void*)
FUNC a510 23d 0 google_breakpad::ExceptionHandler::WriteMinidumpForChild(int, int, std::__cxx11::basic_string<char, std::char_traits<char>, std::allocator<char> > const&, bool (*)(google_breakpad::MinidumpDescriptor const&, void*, bool), void*)
FUNC a750 396 0 google_breakpad::ExceptionHandler::ExceptionHandler(google_breakpad::MinidumpDescriptor const&, bool (*)(void*), bool (*)(google_breakpad::MinidumpDescriptor const&, void*, bool), void*, bool, int)
FUNC aaf0 27d 0 google_breakpad::ExceptionHandler::WriteMinidump(std::__cxx11::basic_string<char, std::char_traits<char>, std::allocator<char> > const&, bool (*)(google_breakpad::MinidumpDescriptor const&, void*, bool), void*)
FUNC ad70 ea 0 void std::vector<google_breakpad::ExceptionHandler*, std::allocator<google_breakpad::ExceptionHandler*> >::_M_emplace_back_aux<google_breakpad::ExceptionHandler*>(google_breakpad::ExceptionHandler*&&)
FUNC ae60 c2 0 void std::__cxx11::basic_string<char, std::char_traits<char>, std::allocator<char> >::_M_construct<char*>(char*, char*, std::forward_iterator_tag)
FUNC af30 a4 0 google_breakpad::MinidumpDescriptor::MinidumpDescriptor(google_breakpad::MinidumpDescriptor const&)
FUNC afe0 317 0 google_breakpad::MinidumpDescriptor::UpdatePath()
FUNC b300 a2 0 google_breakpad::MinidumpDescriptor::operator=(google_breakpad::MinidumpDescriptor const&)
FUNC b3b0 33 0 logger::write(char const*, unsigned long)
FUNC b3f0 1ab5 0 google_breakpad::WriteMicrodump(int, void const*, unsigned long, std::__cxx11::list<google_breakpad::MappingEntry, std::allocator<google_breakpad::MappingEntry> > const&, google_breakpad::MicrodumpExtraInfo const&)
FUNC ceb0 3ea 0 void std::vector<unsigned char, google_breakpad::PageStdAllocator<unsigned char> >::_M_range_insert<unsigned char const*>(__gnu_cxx::__normal_iterator<unsigned char*, std::vector<unsigned char, google_breakpad::PageStdAllocator<unsigned char> > >, unsigned char const*, unsigned char const*, std::forward_iterator_tag)
FUNC d2a0 6 0 google_breakpad::LinuxDumper::LateInit()
FUNC d2b0 835 0 google_breakpad::LinuxDumper::LinuxDumper(int, char const*)
FUNC daf0 67 0 google_breakpad::LinuxDumper::~LinuxDumper()
FUNC db60 12 0 google_breakpad::LinuxDumper::~LinuxDumper()
FUNC db80 4a 0 google_breakpad::LinuxDumper::GetMappingAbsolutePath(google_breakpad::MappingInfo const&, char*) const
FUNC dbd0 19f 0 ElfFileSoName
FUNC dd70 1a7 0 google_breakpad::LinuxDumper::HandleDeletedFileInMapping(char*) const
FUNC df20 e6 0 google_breakpad::LinuxDumper::GetMappingEffectiveNameAndPath(google_breakpad::MappingInfo const&, char*, unsigned long, char*, unsigned long)
FUNC e010 119 0 google_breakpad::LinuxDumper::ReadAuxv()
FUNC e130 32 0 google_breakpad::LinuxDumper::Init()
FUNC e170 4b 0 google_breakpad::LinuxDumper::FindMapping(void const*) const
FUNC e1c0 7d 0 google_breakpad::LinuxDumper::GetStackInfo(void const**, unsigned long*, unsigned long)
FUNC e240 53 0 google_breakpad::LinuxDumper::HandleDeletedFileInMapping(char*) const
FUNC e2a0 34b 0 google_breakpad::LinuxDumper::ElfFileIdentifierForMapping(google_breakpad::MappingInfo const&, bool, unsigned int, google_breakpad::wasteful_vector<unsigned char>&)
FUNC e5f0 930 0 google_breakpad::LinuxDumper::EnumerateMappings()
FUNC ef20 143 0 google_breakpad::PageAllocator::Alloc(unsigned long)
FUNC f070 288 0 std::vector<google_breakpad::MappingInfo*, google_breakpad::PageStdAllocator<google_breakpad::MappingInfo*> >::_M_default_append(unsigned long)
FUNC f300 3 0 google_breakpad::LinuxPtraceDumper::IsPostMortem() const
FUNC f310 187 0 google_breakpad::LinuxPtraceDumper::CopyFromProcess(void*, int, void const*, unsigned long)
FUNC f4a0 bb 0 google_breakpad::LinuxPtraceDumper::BuildProcPath(char*, int, char const*) const
FUNC f560 bc 0 google_breakpad::LinuxPtraceDumper::ThreadsResume()
FUNC f620 5fd 0 google_breakpad::LinuxPtraceDumper::EnumerateThreads()
FUNC fc20 51d 0 google_breakpad::LinuxPtraceDumper::GetThreadInfoByIndex(unsigned long, google_breakpad::ThreadInfo*)
FUNC 10140 27 0 google_breakpad::LinuxPtraceDumper::LinuxPtraceDumper(int)
FUNC 10170 251 0 google_breakpad::LinuxPtraceDumper::ThreadsSuspend()
FUNC 103d0 13 0 google_breakpad::LinuxPtraceDumper::~LinuxPtraceDumper()
FUNC 103f0 20 0 google_breakpad::LinuxPtraceDumper::~LinuxPtraceDumper()
FUNC 10410 288 0 std::vector<int, google_breakpad::PageStdAllocator<int> >::_M_default_append(unsigned long)
FUNC 106a0 e0e 0 MinidumpWriter::WriteThreadListStream
FUNC 114b0 2172 0 MinidumpWriter::Dump
FUNC 13630 343 0 google_breakpad::WriteMinidump(char const*, std::__cxx11::list<google_breakpad::MappingEntry, std::allocator<google_breakpad::MappingEntry> > const&, std::__cxx11::list<google_breakpad::AppMemory, std::allocator<google_breakpad::AppMemory> > const&, google_breakpad::LinuxDumper*)
FUNC 13980 496 0 google_breakpad::WriteMinidump(char const*, int, int)
FUNC 13e20 422 0 WriteMinidumpImpl
FUNC 14250 109 0 google_breakpad::WriteMinidump(char const*, int, void const*, unsigned long)
FUNC 14360 109 0 google_breakpad::WriteMinidump(int, int, void const*, unsigned long)
FUNC 14470 26 0 google_breakpad::WriteMinidump(char const*, int, void const*, unsigned long, std::__cxx11::list<google_breakpad::MappingEntry, std::allocator<google_breakpad::MappingEntry> > const&, std::__cxx11::list<google_breakpad::AppMemory, std::allocator<google_breakpad::AppMemory> > const&)
FUNC 144a0 25 0 google_breakpad::WriteMinidump(int, int, void const*, unsigned long, std::__cxx11::list<google_breakpad::MappingEntry, std::allocator<google_breakpad::MappingEntry> > const&, std::__cxx11::list<google_breakpad::AppMemory, std::allocator<google_breakpad::AppMemory> > const&)
FUNC 144d0 24 0 google_breakpad::WriteMinidump(char const*, long, int, void const*, unsigned long, std::__cxx11::list<google_breakpad::MappingEntry, std::allocator<google_breakpad::MappingEntry> > const&, std::__cxx11::list<google_breakpad::AppMemory, std::allocator<google_breakpad::AppMemory> > const&)
FUNC 14500 23 0 google_breakpad::WriteMinidump(int, long, int, void const*, unsigned long, std::__cxx11::list<google_breakpad::MappingEntry, std::allocator<google_breakpad::MappingEntry> > const&, std::__cxx11::list<google_breakpad::AppMemory, std::allocator<google_breakpad::AppMemory> > const&)
FUNC 14530 259 0 google_breakpad::ProcCpuInfoReader::GetNextField(char const**)
FUNC 14790 257 0 std::vector<char, google_breakpad::PageStdAllocator<char> >::resize(unsigned long)
FUNC 149f0 250 0 void std::vector<MDMemoryDescriptor, google_breakpad::PageStdAllocator<MDMemoryDescriptor> >::_M_emplace_back_aux<MDMemoryDescriptor const&>(MDMemoryDescriptor const&)
FUNC 14c40 23 0 google_breakpad::TypedMDRVA<MDString>::CopyIndexAfterObject(unsigned int, void const*, unsigned long)
FUNC 14c70 1a 0 google_breakpad::MinidumpFileWriter::MinidumpFileWriter()
FUNC 14c90 78 0 google_breakpad::MinidumpFileWriter::Open(char const*)
FUNC 14d10 2c 0 google_breakpad::MinidumpFileWriter::SetFile(int)
FUNC 14d40 5d 0 google_breakpad::MinidumpFileWriter::Close()
FUNC 14da0 15 0 google_breakpad::MinidumpFileWriter::~MinidumpFileWriter()
FUNC 14dc0 b6 0 google_breakpad::MinidumpFileWriter::Allocate(unsigned long)
FUNC 14e80 ff 0 google_breakpad::MinidumpFileWriter::Copy(unsigned int, void const*, long)
FUNC 14f80 f0 0 google_breakpad::MinidumpFileWriter::CopyStringToMDString(wchar_t const*, unsigned int, google_breakpad::TypedMDRVA<MDString>*)
FUNC 15070 ef 0 google_breakpad::MinidumpFileWriter::CopyStringToMDString(char const*, unsigned int, google_breakpad::TypedMDRVA<MDString>*)
FUNC 15160 41 0 google_breakpad::UntypedMDRVA::Allocate(unsigned long)
FUNC 151b0 89 0 google_breakpad::UntypedMDRVA::Copy(unsigned int, void const*, unsigned long)
FUNC 15240 df 0 google_breakpad::MinidumpFileWriter::WriteMemory(void const*, unsigned long, MDMemoryDescriptor*)
FUNC 15320 5 0 google_breakpad::MinidumpFileWriter::WriteString(wchar_t const*, unsigned int, MDLocationDescriptor*)
FUNC 15330 5 0 google_breakpad::MinidumpFileWriter::WriteString(char const*, unsigned int, MDLocationDescriptor*)
FUNC 15340 23a 0 bool google_breakpad::MinidumpFileWriter::WriteStringCore<wchar_t>(wchar_t const*, unsigned int, MDLocationDescriptor*)
FUNC 15580 23a 0 bool google_breakpad::MinidumpFileWriter::WriteStringCore<char>(char const*, unsigned int, MDLocationDescriptor*)
FUNC 157c0 c2 0 void std::__cxx11::basic_string<char, std::char_traits<char>, std::allocator<char> >::_M_construct<char const*>(char const*, char const*, std::forward_iterator_tag)
FUNC 15890 b1 0 google_breakpad::UTF8ToUTF16Char(char const*, int, unsigned short*)
FUNC 15950 7b 0 google_breakpad::UTF32ToUTF16Char(wchar_t, unsigned short*)
FUNC 159d0 173 0 google_breakpad::UTF16ToUTF8[abi:cxx11](std::vector<unsigned short, std::allocator<unsigned short> > const&, bool)
FUNC 15b50 f0 0 google_breakpad::UTF32ToUTF16(wchar_t const*, std::vector<unsigned short, std::allocator<unsigned short> >*)
FUNC 15c40 e8 0 google_breakpad::UTF8ToUTF16(char const*, std::vector<unsigned short, std::allocator<unsigned short> >*)
FUNC 15d30 2bd 0 std::vector<unsigned short, std::allocator<unsigned short> >::_M_fill_insert(__gnu_cxx::__normal_iterator<unsigned short*, std::vector<unsigned short, std::allocator<unsigned short> > >, unsigned long, unsigned short const&)
FUNC 15ff0 14d 0 std::vector<unsigned short, std::allocator<unsigned short> >::_M_default_append(unsigned long)
FUNC 16140 1f 0 google_breakpad::IsValidElf(void const*)
FUNC 16160 5 0 google_breakpad::ElfClass(void const*)
FUNC 16170 452 0 google_breakpad::FindElfSection(void const*, char const*, unsigned int, void const**, unsigned long*, int*)
FUNC 165d0 287 0 google_breakpad::FindElfSegment(void const*, unsigned int, void const**, unsigned long*, int*)
FUNC 16860 135 0 google_breakpad::bytes_to_hex_string
FUNC 169a0 e2 0 google_breakpad::FileID::FileID(char const*)
FUNC 16a90 c7 0 google_breakpad::FileID::ConvertIdentifierToUUIDString[abi:cxx11](google_breakpad::wasteful_vector<unsigned char> const&)
FUNC 16b60 49 0 google_breakpad::FileID::ConvertIdentifierToString[abi:cxx11](google_breakpad::wasteful_vector<unsigned char> const&)
FUNC 16bb0 462 0 google_breakpad::FileID::ElfFileIdentifierFromMappedFile(void const*, google_breakpad::wasteful_vector<unsigned char>&)
FUNC 17020 7c 0 google_breakpad::FileID::ElfFileIdentifier(google_breakpad::wasteful_vector<unsigned char>&)
FUNC 170a0 73 0 CreateGUID(MDGUID*)
FUNC 17120 75 0 GUIDToString(MDGUID const*, char*, int)
FUNC 171a0 16 0 GUIDGenerator::InitOnceImpl()
FUNC 171c0 1e 0 my_strlen
FUNC 171e0 46 0 my_strcmp
FUNC 17230 56 0 my_strncmp
FUNC 17290 4c 0 my_strtoui
FUNC 172e0 39 0 my_uint_len
FUNC 17320 3c 0 my_uitos
FUNC 17360 34 0 my_strchr
FUNC 173a0 26 0 my_strrchr
FUNC 173d0 34 0 my_memchr
FUNC 17410 7c 0 my_read_hex_ptr
FUNC 17490 3a 0 my_read_decimal_ptr
FUNC 174d0 1f 0 my_memset
FUNC 174f0 38 0 my_strlcpy
FUNC 17530 3b 0 my_strlcat
FUNC 17570 6c 0 my_isspace
FUNC 175e0 10 0 google_breakpad::MemoryMappedFile::MemoryMappedFile()
FUNC 175f0 4b 0 google_breakpad::MemoryMappedFile::Unmap()
FUNC 17640 5 0 google_breakpad::MemoryMappedFile::~MemoryMappedFile()
FUNC 17650 1af 0 google_breakpad::MemoryMappedFile::Map(char const*, unsigned long)
FUNC 17800 14 0 google_breakpad::MemoryMappedFile::MemoryMappedFile(char const*, unsigned long)
FUNC 17820 40 0 google_breakpad::SafeReadLink(char const*, char*, unsigned long)
FUNC 17860 2 0 CrashGenerationClientImpl::~CrashGenerationClientImpl
FUNC 17870 213 0 CrashGenerationClientImpl::RequestDump
FUNC 17a90 5 0 CrashGenerationClientImpl::~CrashGenerationClientImpl
FUNC 17aa0 23 0 google_breakpad::CrashGenerationClient::TryCreate(int)
FUNC 17ad0 8 0 google_breakpad::ThreadInfo::GetInstructionPointer() const
FUNC 17ae0 2fc 0 google_breakpad::ThreadInfo::FillCPUContext(MDRawContextAMD64*) const
FUNC 17de0 44 0 google_breakpad::ThreadInfo::GetGeneralPurposeRegisters(void**, unsigned long*)
FUNC 17e30 47 0 google_breakpad::ThreadInfo::GetFloatingPointRegisters(void**, unsigned long*)
FUNC 17e80 8 0 google_breakpad::UContextReader::GetStackPointer(ucontext const*)
FUNC 17e90 8 0 google_breakpad::UContextReader::GetInstructionPointer(ucontext const*)
FUNC 17ea0 25c 0 google_breakpad::UContextReader::FillCPUContext(MDRawContextAMD64*, ucontext const*, _libc_fpstate const*)
FUNC 18100 c7 0 isLegalUTF8
FUNC 181d0 fd 0 ConvertUTF32toUTF16
FUNC 182d0 118 0 ConvertUTF16toUTF32
FUNC 183f0 1ff 0 ConvertUTF16toUTF8
FUNC 185f0 2b 0 isLegalUTF8Sequence
FUNC 18620 26f 0 ConvertUTF8toUTF16
FUNC 18890 19a 0 ConvertUTF32toUTF8
FUNC 18a30 287 0 ConvertUTF8toUTF32
PUBLIC 15c8 0 _init
PUBLIC 1980 0 google_breakpad::PageAllocator::FreeAll() [clone .isra.7]
PUBLIC 19ca 0 google_breakpad::ProcCpuInfoReader::GetValueAndLen(unsigned long*) [clone .isra.19] [clone .part.20]
PUBLIC 19ea 0 google_breakpad::TypedMDRVA<MDRawDirectory>::CopyIndex(unsigned int, MDRawDirectory*) [clone .isra.31] [clone .part.32]
PUBLIC 1a0a 0 google_breakpad::TypedMDRVA<MDRawDirectory>::CopyIndex(unsigned int, MDRawDirectory*) [clone .isra.31]
PUBLIC 1a28 0 google_breakpad::TypedMDRVA<unsigned int>::CopyIndexAfterObject(unsigned int, void const*, unsigned long) [clone .isra.33] [clone .part.34]
PUBLIC 1a48 0 (anonymous namespace)::MinidumpWriter::MinidumpWriter(char const*, int, google_breakpad::ExceptionHandler::CrashContext const*, std::__cxx11::list<google_breakpad::MappingEntry, std::allocator<google_breakpad::MappingEntry> > const&, std::__cxx11::list<google_breakpad::AppMemory, std::allocator<google_breakpad::AppMemory> > const&, google_breakpad::LinuxDumper*) [clone .part.92]
PUBLIC 1a68 0 (anonymous namespace)::MinidumpWriter::~MinidumpWriter() [clone .constprop.118]
PUBLIC 1aa0 0 _start
PUBLIC 1ad0 0 deregister_tm_clones
PUBLIC 1b10 0 register_tm_clones
PUBLIC 1b50 0 __do_global_dtors_aux
PUBLIC 1b70 0 frame_dummy
PUBLIC 1b96 0 dumpCallback(google_breakpad::MinidumpDescriptor const&, void*, bool)
PUBLIC 1bad 0 _EQUAL()
PUBLIC 1d79 0 _0()
PUBLIC 1f45 0 _1()
PUBLIC 2111 0 _2()
PUBLIC 22dd 0 _3()
PUBLIC 24a9 0 _4()
PUBLIC 2675 0 _5()
PUBLIC 2841 0 _6()
PUBLIC 2a0d 0 _7()
PUBLIC 2bd9 0 _8()
PUBLIC 2da5 0 _9()
PUBLIC 2f71 0 _A()
PUBLIC 313d 0 _B()
PUBLIC 3309 0 _C()
PUBLIC 34d5 0 _D()
PUBLIC 36a1 0 _E()
PUBLIC 386d 0 _F()
PUBLIC 3a39 0 _G()
PUBLIC 3c05 0 _H()
PUBLIC 3dd1 0 _I()
PUBLIC 3f9d 0 _J()
PUBLIC 4169 0 _K()
PUBLIC 4335 0 _L()
PUBLIC 4501 0 _M()
PUBLIC 46cd 0 _N()
PUBLIC 4899 0 _O()
PUBLIC 4a65 0 _P()
PUBLIC 4c31 0 _Q()
PUBLIC 4dfd 0 _R()
PUBLIC 4fc9 0 _S()
PUBLIC 5195 0 _T()
PUBLIC 5361 0 _U()
PUBLIC 552d 0 _V()
PUBLIC 56f9 0 _W()
PUBLIC 58c5 0 _X()
PUBLIC 5a91 0 _Y()
PUBLIC 5c5d 0 _Z()
PUBLIC 5e29 0 _a()
PUBLIC 5ff5 0 _b()
PUBLIC 61c1 0 _c()
PUBLIC 638d 0 _d()
PUBLIC 6559 0 _e()
PUBLIC 6725 0 _f()
PUBLIC 68f1 0 _g()
PUBLIC 6abd 0 _h()
PUBLIC 6c89 0 _i()
PUBLIC 6e55 0 _j()
PUBLIC 7021 0 _k()
PUBLIC 71ed 0 _l()
PUBLIC 73b9 0 _m()
PUBLIC 7585 0 _n()
PUBLIC 7751 0 _o()
PUBLIC 791d 0 _p()
PUBLIC 7ae9 0 _q()
PUBLIC 7cb5 0 _r()
PUBLIC 7e81 0 _s()
PUBLIC 804d 0 _t()
PUBLIC 8219 0 _u()
PUBLIC 83e5 0 _v()
PUBLIC 85b1 0 _w()
PUBLIC 877d 0 _x()
PUBLIC 8949 0 _y()
PUBLIC 8b15 0 _z()
PUBLIC 8ce1 0 StartFlagProcessing()
PUBLIC 8ead 0 Execute()
PUBLIC 8eb4 0 main
PUBLIC 8fe8 0 google_breakpad::MicrodumpExtraInfo::MicrodumpExtraInfo()
PUBLIC 9022 0 google_breakpad::MinidumpDescriptor::MinidumpDescriptor(int)
PUBLIC 90b0 0 google_breakpad::MinidumpDescriptor::~MinidumpDescriptor()
PUBLIC 90e0 0 google_breakpad::ExceptionHandler::InstallHandlersLocked()
PUBLIC 9230 0 google_breakpad::ExceptionHandler::RestoreHandlersLocked()
PUBLIC 92b0 0 google_breakpad::ExceptionHandler::~ExceptionHandler()
PUBLIC 9600 0 google_breakpad::ExceptionHandler::SendContinueSignalToChild()
PUBLIC 96e0 0 google_breakpad::ExceptionHandler::GenerateDump(google_breakpad::ExceptionHandler::CrashContext*)
PUBLIC 9ba0 0 google_breakpad::ExceptionHandler::HandleSignal(int, siginfo_t*, void*)
PUBLIC 9d80 0 google_breakpad::ExceptionHandler::SignalHandler(int, siginfo_t*, void*)
PUBLIC 9f50 0 google_breakpad::ExceptionHandler::SimulateSignalDelivery(int)
PUBLIC 9fd0 0 google_breakpad::ExceptionHandler::WaitForContinueSignal()
PUBLIC a0c0 0 google_breakpad::ExceptionHandler::DoDump(int, void const*, unsigned long)
PUBLIC a150 0 google_breakpad::ExceptionHandler::ThreadEntry(void*)
PUBLIC a180 0 google_breakpad::ExceptionHandler::WriteMinidump()
PUBLIC a320 0 google_breakpad::ExceptionHandler::AddMappingInfo(std::__cxx11::basic_string<char, std::char_traits<char>, std::allocator<char> > const&, unsigned char const*, unsigned long, unsigned long, unsigned long)
PUBLIC a410 0 google_breakpad::ExceptionHandler::RegisterAppMemory(void*, unsigned long)
PUBLIC a4b0 0 google_breakpad::ExceptionHandler::UnregisterAppMemory(void*)
PUBLIC a510 0 google_breakpad::ExceptionHandler::WriteMinidumpForChild(int, int, std::__cxx11::basic_string<char, std::char_traits<char>, std::allocator<char> > const&, bool (*)(google_breakpad::MinidumpDescriptor const&, void*, bool), void*)
PUBLIC a750 0 google_breakpad::ExceptionHandler::ExceptionHandler(google_breakpad::MinidumpDescriptor const&, bool (*)(void*), bool (*)(google_breakpad::MinidumpDescriptor const&, void*, bool), void*, bool, int)
PUBLIC aaf0 0 google_breakpad::ExceptionHandler::WriteMinidump(std::__cxx11::basic_string<char, std::char_traits<char>, std::allocator<char> > const&, bool (*)(google_breakpad::MinidumpDescriptor const&, void*, bool), void*)
PUBLIC ad70 0 void std::vector<google_breakpad::ExceptionHandler*, std::allocator<google_breakpad::ExceptionHandler*> >::_M_emplace_back_aux<google_breakpad::ExceptionHandler*>(google_breakpad::ExceptionHandler*&&)
PUBLIC ae60 0 void std::__cxx11::basic_string<char, std::char_traits<char>, std::allocator<char> >::_M_construct<char*>(char*, char*, std::forward_iterator_tag) [clone .isra.16]
PUBLIC af30 0 google_breakpad::MinidumpDescriptor::MinidumpDescriptor(google_breakpad::MinidumpDescriptor const&)
PUBLIC afe0 0 google_breakpad::MinidumpDescriptor::UpdatePath()
PUBLIC b300 0 google_breakpad::MinidumpDescriptor::operator=(google_breakpad::MinidumpDescriptor const&)
PUBLIC b3b0 0 logger::write(char const*, unsigned long)
PUBLIC b3f0 0 google_breakpad::WriteMicrodump(int, void const*, unsigned long, std::__cxx11::list<google_breakpad::MappingEntry, std::allocator<google_breakpad::MappingEntry> > const&, google_breakpad::MicrodumpExtraInfo const&)
PUBLIC ceb0 0 void std::vector<unsigned char, google_breakpad::PageStdAllocator<unsigned char> >::_M_range_insert<unsigned char const*>(__gnu_cxx::__normal_iterator<unsigned char*, std::vector<unsigned char, google_breakpad::PageStdAllocator<unsigned char> > >, unsigned char const*, unsigned char const*, std::forward_iterator_tag)
PUBLIC d2a0 0 google_breakpad::LinuxDumper::LateInit()
PUBLIC d2b0 0 google_breakpad::LinuxDumper::LinuxDumper(int, char const*)
PUBLIC daf0 0 google_breakpad::LinuxDumper::~LinuxDumper()
PUBLIC db60 0 google_breakpad::LinuxDumper::~LinuxDumper()
PUBLIC db80 0 google_breakpad::LinuxDumper::GetMappingAbsolutePath(google_breakpad::MappingInfo const&, char*) const
PUBLIC dbd0 0 google_breakpad::(anonymous namespace)::ElfFileSoName(google_breakpad::LinuxDumper const&, google_breakpad::MappingInfo const&, char*, unsigned long) [clone .constprop.56]
PUBLIC dd70 0 google_breakpad::LinuxDumper::HandleDeletedFileInMapping(char*) const [clone .part.10] [clone .constprop.57]
PUBLIC df20 0 google_breakpad::LinuxDumper::GetMappingEffectiveNameAndPath(google_breakpad::MappingInfo const&, char*, unsigned long, char*, unsigned long)
PUBLIC e010 0 google_breakpad::LinuxDumper::ReadAuxv()
PUBLIC e130 0 google_breakpad::LinuxDumper::Init()
PUBLIC e170 0 google_breakpad::LinuxDumper::FindMapping(void const*) const
PUBLIC e1c0 0 google_breakpad::LinuxDumper::GetStackInfo(void const**, unsigned long*, unsigned long)
PUBLIC e240 0 google_breakpad::LinuxDumper::HandleDeletedFileInMapping(char*) const
PUBLIC e2a0 0 google_breakpad::LinuxDumper::ElfFileIdentifierForMapping(google_breakpad::MappingInfo const&, bool, unsigned int, google_breakpad::wasteful_vector<unsigned char>&)
PUBLIC e5f0 0 google_breakpad::LinuxDumper::EnumerateMappings()
PUBLIC ef20 0 google_breakpad::PageAllocator::Alloc(unsigned long)
PUBLIC f070 0 std::vector<google_breakpad::MappingInfo*, google_breakpad::PageStdAllocator<google_breakpad::MappingInfo*> >::_M_default_append(unsigned long)
PUBLIC f300 0 google_breakpad::LinuxPtraceDumper::IsPostMortem() const
PUBLIC f310 0 google_breakpad::LinuxPtraceDumper::CopyFromProcess(void*, int, void const*, unsigned long)
PUBLIC f4a0 0 google_breakpad::LinuxPtraceDumper::BuildProcPath(char*, int, char const*) const
PUBLIC f560 0 google_breakpad::LinuxPtraceDumper::ThreadsResume()
PUBLIC f620 0 google_breakpad::LinuxPtraceDumper::EnumerateThreads()
PUBLIC fc20 0 google_breakpad::LinuxPtraceDumper::GetThreadInfoByIndex(unsigned long, google_breakpad::ThreadInfo*)
PUBLIC 10140 0 google_breakpad::LinuxPtraceDumper::LinuxPtraceDumper(int)
PUBLIC 10170 0 google_breakpad::LinuxPtraceDumper::ThreadsSuspend()
PUBLIC 103d0 0 google_breakpad::LinuxPtraceDumper::~LinuxPtraceDumper()
PUBLIC 103f0 0 google_breakpad::LinuxPtraceDumper::~LinuxPtraceDumper()
PUBLIC 10410 0 std::vector<int, google_breakpad::PageStdAllocator<int> >::_M_default_append(unsigned long)
PUBLIC 106a0 0 (anonymous namespace)::MinidumpWriter::WriteThreadListStream(MDRawDirectory*) [clone .constprop.104]
PUBLIC 114b0 0 (anonymous namespace)::MinidumpWriter::Dump() [clone .constprop.103]
PUBLIC 13630 0 google_breakpad::WriteMinidump(char const*, std::__cxx11::list<google_breakpad::MappingEntry, std::allocator<google_breakpad::MappingEntry> > const&, std::__cxx11::list<google_breakpad::AppMemory, std::allocator<google_breakpad::AppMemory> > const&, google_breakpad::LinuxDumper*)
PUBLIC 13980 0 google_breakpad::WriteMinidump(char const*, int, int)
PUBLIC 13e20 0 (anonymous namespace)::WriteMinidumpImpl(char const*, int, long, int, void const*, unsigned long, std::__cxx11::list<google_breakpad::MappingEntry, std::allocator<google_breakpad::MappingEntry> > const&, std::__cxx11::list<google_breakpad::AppMemory, std::allocator<google_breakpad::AppMemory> > const&)
PUBLIC 14250 0 google_breakpad::WriteMinidump(char const*, int, void const*, unsigned long)
PUBLIC 14360 0 google_breakpad::WriteMinidump(int, int, void const*, unsigned long)
PUBLIC 14470 0 google_breakpad::WriteMinidump(char const*, int, void const*, unsigned long, std::__cxx11::list<google_breakpad::MappingEntry, std::allocator<google_breakpad::MappingEntry> > const&, std::__cxx11::list<google_breakpad::AppMemory, std::allocator<google_breakpad::AppMemory> > const&)
PUBLIC 144a0 0 google_breakpad::WriteMinidump(int, int, void const*, unsigned long, std::__cxx11::list<google_breakpad::MappingEntry, std::allocator<google_breakpad::MappingEntry> > const&, std::__cxx11::list<google_breakpad::AppMemory, std::allocator<google_breakpad::AppMemory> > const&)
PUBLIC 144d0 0 google_breakpad::WriteMinidump(char const*, long, int, void const*, unsigned long, std::__cxx11::list<google_breakpad::MappingEntry, std::allocator<google_breakpad::MappingEntry> > const&, std::__cxx11::list<google_breakpad::AppMemory, std::allocator<google_breakpad::AppMemory> > const&)
PUBLIC 14500 0 google_breakpad::WriteMinidump(int, long, int, void const*, unsigned long, std::__cxx11::list<google_breakpad::MappingEntry, std::allocator<google_breakpad::MappingEntry> > const&, std::__cxx11::list<google_breakpad::AppMemory, std::allocator<google_breakpad::AppMemory> > const&)
PUBLIC 14530 0 google_breakpad::ProcCpuInfoReader::GetNextField(char const**)
PUBLIC 14790 0 std::vector<char, google_breakpad::PageStdAllocator<char> >::resize(unsigned long)
PUBLIC 149f0 0 void std::vector<MDMemoryDescriptor, google_breakpad::PageStdAllocator<MDMemoryDescriptor> >::_M_emplace_back_aux<MDMemoryDescriptor const&>(MDMemoryDescriptor const&)
PUBLIC 14c40 0 google_breakpad::TypedMDRVA<MDString>::CopyIndexAfterObject(unsigned int, void const*, unsigned long) [clone .isra.7] [clone .part.8]
PUBLIC 14c70 0 google_breakpad::MinidumpFileWriter::MinidumpFileWriter()
PUBLIC 14c90 0 google_breakpad::MinidumpFileWriter::Open(char const*)
PUBLIC 14d10 0 google_breakpad::MinidumpFileWriter::SetFile(int)
PUBLIC 14d40 0 google_breakpad::MinidumpFileWriter::Close()
PUBLIC 14da0 0 google_breakpad::MinidumpFileWriter::~MinidumpFileWriter()
PUBLIC 14dc0 0 google_breakpad::MinidumpFileWriter::Allocate(unsigned long)
PUBLIC 14e80 0 google_breakpad::MinidumpFileWriter::Copy(unsigned int, void const*, long)
PUBLIC 14f80 0 google_breakpad::MinidumpFileWriter::CopyStringToMDString(wchar_t const*, unsigned int, google_breakpad::TypedMDRVA<MDString>*)
PUBLIC 15070 0 google_breakpad::MinidumpFileWriter::CopyStringToMDString(char const*, unsigned int, google_breakpad::TypedMDRVA<MDString>*)
PUBLIC 15160 0 google_breakpad::UntypedMDRVA::Allocate(unsigned long)
PUBLIC 151b0 0 google_breakpad::UntypedMDRVA::Copy(unsigned int, void const*, unsigned long)
PUBLIC 15240 0 google_breakpad::MinidumpFileWriter::WriteMemory(void const*, unsigned long, MDMemoryDescriptor*)
PUBLIC 15320 0 google_breakpad::MinidumpFileWriter::WriteString(wchar_t const*, unsigned int, MDLocationDescriptor*)
PUBLIC 15330 0 google_breakpad::MinidumpFileWriter::WriteString(char const*, unsigned int, MDLocationDescriptor*)
PUBLIC 15340 0 bool google_breakpad::MinidumpFileWriter::WriteStringCore<wchar_t>(wchar_t const*, unsigned int, MDLocationDescriptor*)
PUBLIC 15580 0 bool google_breakpad::MinidumpFileWriter::WriteStringCore<char>(char const*, unsigned int, MDLocationDescriptor*)
PUBLIC 157c0 0 void std::__cxx11::basic_string<char, std::char_traits<char>, std::allocator<char> >::_M_construct<char const*>(char const*, char const*, std::forward_iterator_tag) [clone .isra.34]
PUBLIC 15890 0 google_breakpad::UTF8ToUTF16Char(char const*, int, unsigned short*)
PUBLIC 15950 0 google_breakpad::UTF32ToUTF16Char(wchar_t, unsigned short*)
PUBLIC 159d0 0 google_breakpad::UTF16ToUTF8[abi:cxx11](std::vector<unsigned short, std::allocator<unsigned short> > const&, bool)
PUBLIC 15b50 0 google_breakpad::UTF32ToUTF16(wchar_t const*, std::vector<unsigned short, std::allocator<unsigned short> >*)
PUBLIC 15c40 0 google_breakpad::UTF8ToUTF16(char const*, std::vector<unsigned short, std::allocator<unsigned short> >*)
PUBLIC 15d30 0 std::vector<unsigned short, std::allocator<unsigned short> >::_M_fill_insert(__gnu_cxx::__normal_iterator<unsigned short*, std::vector<unsigned short, std::allocator<unsigned short> > >, unsigned long, unsigned short const&)
PUBLIC 15ff0 0 std::vector<unsigned short, std::allocator<unsigned short> >::_M_default_append(unsigned long)
PUBLIC 16140 0 google_breakpad::IsValidElf(void const*)
PUBLIC 16160 0 google_breakpad::ElfClass(void const*)
PUBLIC 16170 0 google_breakpad::FindElfSection(void const*, char const*, unsigned int, void const**, unsigned long*, int*)
PUBLIC 165d0 0 google_breakpad::FindElfSegment(void const*, unsigned int, void const**, unsigned long*, int*)
PUBLIC 16860 0 google_breakpad::bytes_to_hex_string(unsigned char const*, unsigned long)
PUBLIC 169a0 0 google_breakpad::FileID::FileID(char const*)
PUBLIC 16a90 0 google_breakpad::FileID::ConvertIdentifierToUUIDString[abi:cxx11](google_breakpad::wasteful_vector<unsigned char> const&)
PUBLIC 16b60 0 google_breakpad::FileID::ConvertIdentifierToString[abi:cxx11](google_breakpad::wasteful_vector<unsigned char> const&)
PUBLIC 16bb0 0 google_breakpad::FileID::ElfFileIdentifierFromMappedFile(void const*, google_breakpad::wasteful_vector<unsigned char>&)
PUBLIC 17020 0 google_breakpad::FileID::ElfFileIdentifier(google_breakpad::wasteful_vector<unsigned char>&)
PUBLIC 170a0 0 CreateGUID(MDGUID*)
PUBLIC 17120 0 GUIDToString(MDGUID const*, char*, int)
PUBLIC 171a0 0 GUIDGenerator::InitOnceImpl()
PUBLIC 171c0 0 my_strlen
PUBLIC 171e0 0 my_strcmp
PUBLIC 17230 0 my_strncmp
PUBLIC 17290 0 my_strtoui
PUBLIC 172e0 0 my_uint_len
PUBLIC 17320 0 my_uitos
PUBLIC 17360 0 my_strchr
PUBLIC 173a0 0 my_strrchr
PUBLIC 173d0 0 my_memchr
PUBLIC 17410 0 my_read_hex_ptr
PUBLIC 17490 0 my_read_decimal_ptr
PUBLIC 174d0 0 my_memset
PUBLIC 174f0 0 my_strlcpy
PUBLIC 17530 0 my_strlcat
PUBLIC 17570 0 my_isspace
PUBLIC 175e0 0 google_breakpad::MemoryMappedFile::MemoryMappedFile()
PUBLIC 175f0 0 google_breakpad::MemoryMappedFile::Unmap()
PUBLIC 17640 0 google_breakpad::MemoryMappedFile::~MemoryMappedFile()
PUBLIC 17650 0 google_breakpad::MemoryMappedFile::Map(char const*, unsigned long)
PUBLIC 17800 0 google_breakpad::MemoryMappedFile::MemoryMappedFile(char const*, unsigned long)
PUBLIC 17820 0 google_breakpad::SafeReadLink(char const*, char*, unsigned long)
PUBLIC 17860 0 google_breakpad::(anonymous namespace)::CrashGenerationClientImpl::~CrashGenerationClientImpl()
PUBLIC 17870 0 google_breakpad::(anonymous namespace)::CrashGenerationClientImpl::RequestDump(void const*, unsigned long)
PUBLIC 17a90 0 google_breakpad::(anonymous namespace)::CrashGenerationClientImpl::~CrashGenerationClientImpl()
PUBLIC 17aa0 0 google_breakpad::CrashGenerationClient::TryCreate(int)
PUBLIC 17ad0 0 google_breakpad::ThreadInfo::GetInstructionPointer() const
PUBLIC 17ae0 0 google_breakpad::ThreadInfo::FillCPUContext(MDRawContextAMD64*) const
PUBLIC 17de0 0 google_breakpad::ThreadInfo::GetGeneralPurposeRegisters(void**, unsigned long*)
PUBLIC 17e30 0 google_breakpad::ThreadInfo::GetFloatingPointRegisters(void**, unsigned long*)
PUBLIC 17e80 0 google_breakpad::UContextReader::GetStackPointer(ucontext const*)
PUBLIC 17e90 0 google_breakpad::UContextReader::GetInstructionPointer(ucontext const*)
PUBLIC 17ea0 0 google_breakpad::UContextReader::FillCPUContext(MDRawContextAMD64*, ucontext const*, _libc_fpstate const*)
PUBLIC 18100 0 isLegalUTF8
PUBLIC 181d0 0 ConvertUTF32toUTF16
PUBLIC 182d0 0 ConvertUTF16toUTF32
PUBLIC 183f0 0 ConvertUTF16toUTF8
PUBLIC 185f0 0 isLegalUTF8Sequence
PUBLIC 18620 0 ConvertUTF8toUTF16
PUBLIC 18890 0 ConvertUTF32toUTF8
PUBLIC 18a30 0 ConvertUTF8toUTF32
PUBLIC 18cc0 0 __libc_csu_init
PUBLIC 18d30 0 __libc_csu_fini
PUBLIC 18d34 0 _fini
STACK CFI INIT 1aa0 2a .cfa: $rsp 8 + .ra: .cfa -8 + ^
STACK CFI INIT 15f0 380 .cfa: $rsp 16 + .ra: .cfa -8 + ^
STACK CFI 15f6 .cfa: $rsp 24 +
STACK CFI INIT 8fe8 3a .cfa: $rsp 8 + .ra: .cfa -8 + ^
STACK CFI 8fe9 $rbp: .cfa -16 + ^ .cfa: $rsp 16 +
STACK CFI 8fec .cfa: $rbp 16 +
STACK CFI 9021 .cfa: $rsp 8 +
STACK CFI INIT 9022 8d .cfa: $rsp 8 + .ra: .cfa -8 + ^
STACK CFI 9023 $rbp: .cfa -16 + ^ .cfa: $rsp 16 +
STACK CFI 9026 .cfa: $rbp 16 +
STACK CFI 90ae .cfa: $rsp 8 +
STACK CFI INIT 1b96 17 .cfa: $rsp 8 + .ra: .cfa -8 + ^
STACK CFI 1b97 $rbp: .cfa -16 + ^ .cfa: $rsp 16 +
STACK CFI 1b9a .cfa: $rbp 16 +
STACK CFI 1bac .cfa: $rsp 8 +
STACK CFI INIT 1bad 1cc .cfa: $rsp 8 + .ra: .cfa -8 + ^
STACK CFI 1bae $rbp: .cfa -16 + ^ .cfa: $rsp 16 +
STACK CFI 1bb1 .cfa: $rbp 16 +
STACK CFI 1d78 .cfa: $rsp 8 +
STACK CFI INIT 1d79 1cc .cfa: $rsp 8 + .ra: .cfa -8 + ^
STACK CFI 1d7a $rbp: .cfa -16 + ^ .cfa: $rsp 16 +
STACK CFI 1d7d .cfa: $rbp 16 +
STACK CFI 1f44 .cfa: $rsp 8 +
STACK CFI INIT 1f45 1cc .cfa: $rsp 8 + .ra: .cfa -8 + ^
STACK CFI 1f46 $rbp: .cfa -16 + ^ .cfa: $rsp 16 +
STACK CFI 1f49 .cfa: $rbp 16 +
STACK CFI 2110 .cfa: $rsp 8 +
STACK CFI INIT 2111 1cc .cfa: $rsp 8 + .ra: .cfa -8 + ^
STACK CFI 2112 $rbp: .cfa -16 + ^ .cfa: $rsp 16 +
STACK CFI 2115 .cfa: $rbp 16 +
STACK CFI 22dc .cfa: $rsp 8 +
STACK CFI INIT 22dd 1cc .cfa: $rsp 8 + .ra: .cfa -8 + ^
STACK CFI 22de $rbp: .cfa -16 + ^ .cfa: $rsp 16 +
STACK CFI 22e1 .cfa: $rbp 16 +
STACK CFI 24a8 .cfa: $rsp 8 +
STACK CFI INIT 24a9 1cc .cfa: $rsp 8 + .ra: .cfa -8 + ^
STACK CFI 24aa $rbp: .cfa -16 + ^ .cfa: $rsp 16 +
STACK CFI 24ad .cfa: $rbp 16 +
STACK CFI 2674 .cfa: $rsp 8 +
STACK CFI INIT 2675 1cc .cfa: $rsp 8 + .ra: .cfa -8 + ^
STACK CFI 2676 $rbp: .cfa -16 + ^ .cfa: $rsp 16 +
STACK CFI 2679 .cfa: $rbp 16 +
STACK CFI 2840 .cfa: $rsp 8 +
STACK CFI INIT 2841 1cc .cfa: $rsp 8 + .ra: .cfa -8 + ^
STACK CFI 2842 $rbp: .cfa -16 + ^ .cfa: $rsp 16 +
STACK CFI 2845 .cfa: $rbp 16 +
STACK CFI 2a0c .cfa: $rsp 8 +
STACK CFI INIT 2a0d 1cc .cfa: $rsp 8 + .ra: .cfa -8 + ^
STACK CFI 2a0e $rbp: .cfa -16 + ^ .cfa: $rsp 16 +
STACK CFI 2a11 .cfa: $rbp 16 +
STACK CFI 2bd8 .cfa: $rsp 8 +
STACK CFI INIT 2bd9 1cc .cfa: $rsp 8 + .ra: .cfa -8 + ^
STACK CFI 2bda $rbp: .cfa -16 + ^ .cfa: $rsp 16 +
STACK CFI 2bdd .cfa: $rbp 16 +
STACK CFI 2da4 .cfa: $rsp 8 +
STACK CFI INIT 2da5 1cc .cfa: $rsp 8 + .ra: .cfa -8 + ^
STACK CFI 2da6 $rbp: .cfa -16 + ^ .cfa: $rsp 16 +
STACK CFI 2da9 .cfa: $rbp 16 +
STACK CFI 2f70 .cfa: $rsp 8 +
STACK CFI INIT 2f71 1cc .cfa: $rsp 8 + .ra: .cfa -8 + ^
STACK CFI 2f72 $rbp: .cfa -16 + ^ .cfa: $rsp 16 +
STACK CFI 2f75 .cfa: $rbp 16 +
STACK CFI 313c .cfa: $rsp 8 +
STACK CFI INIT 313d 1cc .cfa: $rsp 8 + .ra: .cfa -8 + ^
STACK CFI 313e $rbp: .cfa -16 + ^ .cfa: $rsp 16 +
STACK CFI 3141 .cfa: $rbp 16 +
STACK CFI 3308 .cfa: $rsp 8 +
STACK CFI INIT 3309 1cc .cfa: $rsp 8 + .ra: .cfa -8 + ^
STACK CFI 330a $rbp: .cfa -16 + ^ .cfa: $rsp 16 +
STACK CFI 330d .cfa: $rbp 16 +
STACK CFI 34d4 .cfa: $rsp 8 +
STACK CFI INIT 34d5 1cc .cfa: $rsp 8 + .ra: .cfa -8 + ^
STACK CFI 34d6 $rbp: .cfa -16 + ^ .cfa: $rsp 16 +
STACK CFI 34d9 .cfa: $rbp 16 +
STACK CFI 36a0 .cfa: $rsp 8 +
STACK CFI INIT 36a1 1cc .cfa: $rsp 8 + .ra: .cfa -8 + ^
STACK CFI 36a2 $rbp: .cfa -16 + ^ .cfa: $rsp 16 +
STACK CFI 36a5 .cfa: $rbp 16 +
STACK CFI 386c .cfa: $rsp 8 +
STACK CFI INIT 386d 1cc .cfa: $rsp 8 + .ra: .cfa -8 + ^
STACK CFI 386e $rbp: .cfa -16 + ^ .cfa: $rsp 16 +
STACK CFI 3871 .cfa: $rbp 16 +
STACK CFI 3a38 .cfa: $rsp 8 +
STACK CFI INIT 3a39 1cc .cfa: $rsp 8 + .ra: .cfa -8 + ^
STACK CFI 3a3a $rbp: .cfa -16 + ^ .cfa: $rsp 16 +
STACK CFI 3a3d .cfa: $rbp 16 +
STACK CFI 3c04 .cfa: $rsp 8 +
STACK CFI INIT 3c05 1cc .cfa: $rsp 8 + .ra: .cfa -8 + ^
STACK CFI 3c06 $rbp: .cfa -16 + ^ .cfa: $rsp 16 +
STACK CFI 3c09 .cfa: $rbp 16 +
STACK CFI 3dd0 .cfa: $rsp 8 +
STACK CFI INIT 3dd1 1cc .cfa: $rsp 8 + .ra: .cfa -8 + ^
STACK CFI 3dd2 $rbp: .cfa -16 + ^ .cfa: $rsp 16 +
STACK CFI 3dd5 .cfa: $rbp 16 +
STACK CFI 3f9c .cfa: $rsp 8 +
STACK CFI INIT 3f9d 1cc .cfa: $rsp 8 + .ra: .cfa -8 + ^
STACK CFI 3f9e $rbp: .cfa -16 + ^ .cfa: $rsp 16 +
STACK CFI 3fa1 .cfa: $rbp 16 +
STACK CFI 4168 .cfa: $rsp 8 +
STACK CFI INIT 4169 1cc .cfa: $rsp 8 + .ra: .cfa -8 + ^
STACK CFI 416a $rbp: .cfa -16 + ^ .cfa: $rsp 16 +
STACK CFI 416d .cfa: $rbp 16 +
STACK CFI 4334 .cfa: $rsp 8 +
STACK CFI INIT 4335 1cc .cfa: $rsp 8 + .ra: .cfa -8 + ^
STACK CFI 4336 $rbp: .cfa -16 + ^ .cfa: $rsp 16 +
STACK CFI 4339 .cfa: $rbp 16 +
STACK CFI 4500 .cfa: $rsp 8 +
STACK CFI INIT 4501 1cc .cfa: $rsp 8 + .ra: .cfa -8 + ^
STACK CFI 4502 $rbp: .cfa -16 + ^ .cfa: $rsp 16 +
STACK CFI 4505 .cfa: $rbp 16 +
STACK CFI 46cc .cfa: $rsp 8 +
STACK CFI INIT 46cd 1cc .cfa: $rsp 8 + .ra: .cfa -8 + ^
STACK CFI 46ce $rbp: .cfa -16 + ^ .cfa: $rsp 16 +
STACK CFI 46d1 .cfa: $rbp 16 +
STACK CFI 4898 .cfa: $rsp 8 +
STACK CFI INIT 4899 1cc .cfa: $rsp 8 + .ra: .cfa -8 + ^
STACK CFI 489a $rbp: .cfa -16 + ^ .cfa: $rsp 16 +
STACK CFI 489d .cfa: $rbp 16 +
STACK CFI 4a64 .cfa: $rsp 8 +
STACK CFI INIT 4a65 1cc .cfa: $rsp 8 + .ra: .cfa -8 + ^
STACK CFI 4a66 $rbp: .cfa -16 + ^ .cfa: $rsp 16 +
STACK CFI 4a69 .cfa: $rbp 16 +
STACK CFI 4c30 .cfa: $rsp 8 +
STACK CFI INIT 4c31 1cc .cfa: $rsp 8 + .ra: .cfa -8 + ^
STACK CFI 4c32 $rbp: .cfa -16 + ^ .cfa: $rsp 16 +
STACK CFI 4c35 .cfa: $rbp 16 +
STACK CFI 4dfc .cfa: $rsp 8 +
STACK CFI INIT 4dfd 1cc .cfa: $rsp 8 + .ra: .cfa -8 + ^
STACK CFI 4dfe $rbp: .cfa -16 + ^ .cfa: $rsp 16 +
STACK CFI 4e01 .cfa: $rbp 16 +
STACK CFI 4fc8 .cfa: $rsp 8 +
STACK CFI INIT 4fc9 1cc .cfa: $rsp 8 + .ra: .cfa -8 + ^
STACK CFI 4fca $rbp: .cfa -16 + ^ .cfa: $rsp 16 +
STACK CFI 4fcd .cfa: $rbp 16 +
STACK CFI 5194 .cfa: $rsp 8 +
STACK CFI INIT 5195 1cc .cfa: $rsp 8 + .ra: .cfa -8 + ^
STACK CFI 5196 $rbp: .cfa -16 + ^ .cfa: $rsp 16 +
STACK CFI 5199 .cfa: $rbp 16 +
STACK CFI 5360 .cfa: $rsp 8 +
STACK CFI INIT 5361 1cc .cfa: $rsp 8 + .ra: .cfa -8 + ^
STACK CFI 5362 $rbp: .cfa -16 + ^ .cfa: $rsp 16 +
STACK CFI 5365 .cfa: $rbp 16 +
STACK CFI 552c .cfa: $rsp 8 +
STACK CFI INIT 552d 1cc .cfa: $rsp 8 + .ra: .cfa -8 + ^
STACK CFI 552e $rbp: .cfa -16 + ^ .cfa: $rsp 16 +
STACK CFI 5531 .cfa: $rbp 16 +
STACK CFI 56f8 .cfa: $rsp 8 +
STACK CFI INIT 56f9 1cc .cfa: $rsp 8 + .ra: .cfa -8 + ^
STACK CFI 56fa $rbp: .cfa -16 + ^ .cfa: $rsp 16 +
STACK CFI 56fd .cfa: $rbp 16 +
STACK CFI 58c4 .cfa: $rsp 8 +
STACK CFI INIT 58c5 1cc .cfa: $rsp 8 + .ra: .cfa -8 + ^
STACK CFI 58c6 $rbp: .cfa -16 + ^ .cfa: $rsp 16 +
STACK CFI 58c9 .cfa: $rbp 16 +
STACK CFI 5a90 .cfa: $rsp 8 +
STACK CFI INIT 5a91 1cc .cfa: $rsp 8 + .ra: .cfa -8 + ^
STACK CFI 5a92 $rbp: .cfa -16 + ^ .cfa: $rsp 16 +
STACK CFI 5a95 .cfa: $rbp 16 +
STACK CFI 5c5c .cfa: $rsp 8 +
STACK CFI INIT 5c5d 1cc .cfa: $rsp 8 + .ra: .cfa -8 + ^
STACK CFI 5c5e $rbp: .cfa -16 + ^ .cfa: $rsp 16 +
STACK CFI 5c61 .cfa: $rbp 16 +
STACK CFI 5e28 .cfa: $rsp 8 +
STACK CFI INIT 5e29 1cc .cfa: $rsp 8 + .ra: .cfa -8 + ^
STACK CFI 5e2a $rbp: .cfa -16 + ^ .cfa: $rsp 16 +
STACK CFI 5e2d .cfa: $rbp 16 +
STACK CFI 5ff4 .cfa: $rsp 8 +
STACK CFI INIT 5ff5 1cc .cfa: $rsp 8 + .ra: .cfa -8 + ^
STACK CFI 5ff6 $rbp: .cfa -16 + ^ .cfa: $rsp 16 +
STACK CFI 5ff9 .cfa: $rbp 16 +
STACK CFI 61c0 .cfa: $rsp 8 +
STACK CFI INIT 61c1 1cc .cfa: $rsp 8 + .ra: .cfa -8 + ^
STACK CFI 61c2 $rbp: .cfa -16 + ^ .cfa: $rsp 16 +
STACK CFI 61c5 .cfa: $rbp 16 +
STACK CFI 638c .cfa: $rsp 8 +
STACK CFI INIT 638d 1cc .cfa: $rsp 8 + .ra: .cfa -8 + ^
STACK CFI 638e $rbp: .cfa -16 + ^ .cfa: $rsp 16 +
STACK CFI 6391 .cfa: $rbp 16 +
STACK CFI 6558 .cfa: $rsp 8 +
STACK CFI INIT 6559 1cc .cfa: $rsp 8 + .ra: .cfa -8 + ^
STACK CFI 655a $rbp: .cfa -16 + ^ .cfa: $rsp 16 +
STACK CFI 655d .cfa: $rbp 16 +
STACK CFI 6724 .cfa: $rsp 8 +
STACK CFI INIT 6725 1cc .cfa: $rsp 8 + .ra: .cfa -8 + ^
STACK CFI 6726 $rbp: .cfa -16 + ^ .cfa: $rsp 16 +
STACK CFI 6729 .cfa: $rbp 16 +
STACK CFI 68f0 .cfa: $rsp 8 +
STACK CFI INIT 68f1 1cc .cfa: $rsp 8 + .ra: .cfa -8 + ^
STACK CFI 68f2 $rbp: .cfa -16 + ^ .cfa: $rsp 16 +
STACK CFI 68f5 .cfa: $rbp 16 +
STACK CFI 6abc .cfa: $rsp 8 +
STACK CFI INIT 6abd 1cc .cfa: $rsp 8 + .ra: .cfa -8 + ^
STACK CFI 6abe $rbp: .cfa -16 + ^ .cfa: $rsp 16 +
STACK CFI 6ac1 .cfa: $rbp 16 +
STACK CFI 6c88 .cfa: $rsp 8 +
STACK CFI INIT 6c89 1cc .cfa: $rsp 8 + .ra: .cfa -8 + ^
STACK CFI 6c8a $rbp: .cfa -16 + ^ .cfa: $rsp 16 +
STACK CFI 6c8d .cfa: $rbp 16 +
STACK CFI 6e54 .cfa: $rsp 8 +
STACK CFI INIT 6e55 1cc .cfa: $rsp 8 + .ra: .cfa -8 + ^
STACK CFI 6e56 $rbp: .cfa -16 + ^ .cfa: $rsp 16 +
STACK CFI 6e59 .cfa: $rbp 16 +
STACK CFI 7020 .cfa: $rsp 8 +
STACK CFI INIT 7021 1cc .cfa: $rsp 8 + .ra: .cfa -8 + ^
STACK CFI 7022 $rbp: .cfa -16 + ^ .cfa: $rsp 16 +
STACK CFI 7025 .cfa: $rbp 16 +
STACK CFI 71ec .cfa: $rsp 8 +
STACK CFI INIT 71ed 1cc .cfa: $rsp 8 + .ra: .cfa -8 + ^
STACK CFI 71ee $rbp: .cfa -16 + ^ .cfa: $rsp 16 +
STACK CFI 71f1 .cfa: $rbp 16 +
STACK CFI 73b8 .cfa: $rsp 8 +
STACK CFI INIT 73b9 1cc .cfa: $rsp 8 + .ra: .cfa -8 + ^
STACK CFI 73ba $rbp: .cfa -16 + ^ .cfa: $rsp 16 +
STACK CFI 73bd .cfa: $rbp 16 +
STACK CFI 7584 .cfa: $rsp 8 +
STACK CFI INIT 7585 1cc .cfa: $rsp 8 + .ra: .cfa -8 + ^
STACK CFI 7586 $rbp: .cfa -16 + ^ .cfa: $rsp 16 +
STACK CFI 7589 .cfa: $rbp 16 +
STACK CFI 7750 .cfa: $rsp 8 +
STACK CFI INIT 7751 1cc .cfa: $rsp 8 + .ra: .cfa -8 + ^
STACK CFI 7752 $rbp: .cfa -16 + ^ .cfa: $rsp 16 +
STACK CFI 7755 .cfa: $rbp 16 +
STACK CFI 791c .cfa: $rsp 8 +
STACK CFI INIT 791d 1cc .cfa: $rsp 8 + .ra: .cfa -8 + ^
STACK CFI 791e $rbp: .cfa -16 + ^ .cfa: $rsp 16 +
STACK CFI 7921 .cfa: $rbp 16 +
STACK CFI 7ae8 .cfa: $rsp 8 +
STACK CFI INIT 7ae9 1cc .cfa: $rsp 8 + .ra: .cfa -8 + ^
STACK CFI 7aea $rbp: .cfa -16 + ^ .cfa: $rsp 16 +
STACK CFI 7aed .cfa: $rbp 16 +
STACK CFI 7cb4 .cfa: $rsp 8 +
STACK CFI INIT 7cb5 1cc .cfa: $rsp 8 + .ra: .cfa -8 + ^
STACK CFI 7cb6 $rbp: .cfa -16 + ^ .cfa: $rsp 16 +
STACK CFI 7cb9 .cfa: $rbp 16 +
STACK CFI 7e80 .cfa: $rsp 8 +
STACK CFI INIT 7e81 1cc .cfa: $rsp 8 + .ra: .cfa -8 + ^
STACK CFI 7e82 $rbp: .cfa -16 + ^ .cfa: $rsp 16 +
STACK CFI 7e85 .cfa: $rbp 16 +
STACK CFI 804c .cfa: $rsp 8 +
STACK CFI INIT 804d 1cc .cfa: $rsp 8 + .ra: .cfa -8 + ^
STACK CFI 804e $rbp: .cfa -16 + ^ .cfa: $rsp 16 +
STACK CFI 8051 .cfa: $rbp 16 +
STACK CFI 8218 .cfa: $rsp 8 +
STACK CFI INIT 8219 1cc .cfa: $rsp 8 + .ra: .cfa -8 + ^
STACK CFI 821a $rbp: .cfa -16 + ^ .cfa: $rsp 16 +
STACK CFI 821d .cfa: $rbp 16 +
STACK CFI 83e4 .cfa: $rsp 8 +
STACK CFI INIT 83e5 1cc .cfa: $rsp 8 + .ra: .cfa -8 + ^
STACK CFI 83e6 $rbp: .cfa -16 + ^ .cfa: $rsp 16 +
STACK CFI 83e9 .cfa: $rbp 16 +
STACK CFI 85b0 .cfa: $rsp 8 +
STACK CFI INIT 85b1 1cc .cfa: $rsp 8 + .ra: .cfa -8 + ^
STACK CFI 85b2 $rbp: .cfa -16 + ^ .cfa: $rsp 16 +
STACK CFI 85b5 .cfa: $rbp 16 +
STACK CFI 877c .cfa: $rsp 8 +
STACK CFI INIT 877d 1cc .cfa: $rsp 8 + .ra: .cfa -8 + ^
STACK CFI 877e $rbp: .cfa -16 + ^ .cfa: $rsp 16 +
STACK CFI 8781 .cfa: $rbp 16 +
STACK CFI 8948 .cfa: $rsp 8 +
STACK CFI INIT 8949 1cc .cfa: $rsp 8 + .ra: .cfa -8 + ^
STACK CFI 894a $rbp: .cfa -16 + ^ .cfa: $rsp 16 +
STACK CFI 894d .cfa: $rbp 16 +
STACK CFI 8b14 .cfa: $rsp 8 +
STACK CFI INIT 8b15 1cc .cfa: $rsp 8 + .ra: .cfa -8 + ^
STACK CFI 8b16 $rbp: .cfa -16 + ^ .cfa: $rsp 16 +
STACK CFI 8b19 .cfa: $rbp 16 +
STACK CFI 8ce0 .cfa: $rsp 8 +
STACK CFI INIT 8ce1 1cc .cfa: $rsp 8 + .ra: .cfa -8 + ^
STACK CFI 8ce2 $rbp: .cfa -16 + ^ .cfa: $rsp 16 +
STACK CFI 8ce5 .cfa: $rbp 16 +
STACK CFI 8eac .cfa: $rsp 8 +
STACK CFI INIT 8ead 7 .cfa: $rsp 8 + .ra: .cfa -8 + ^
STACK CFI 8eae $rbp: .cfa -16 + ^ .cfa: $rsp 16 +
STACK CFI 8eb1 .cfa: $rbp 16 +
STACK CFI 8eb3 .cfa: $rsp 8 +
STACK CFI INIT 90b0 2f .cfa: $rsp 8 + .ra: .cfa -8 + ^
STACK CFI 90b1 $rbp: .cfa -16 + ^ .cfa: $rsp 16 +
STACK CFI 90b4 .cfa: $rbp 16 +
STACK CFI 90de .cfa: $rsp 8 +
STACK CFI INIT 8eb4 133 .cfa: $rsp 8 + .ra: .cfa -8 + ^
STACK CFI 8eb5 $rbp: .cfa -16 + ^ .cfa: $rsp 16 +
STACK CFI 8eb8 .cfa: $rbp 16 +
STACK CFI 8ec0 $rbx: .cfa -24 + ^
STACK CFI 8fe6 .cfa: $rsp 8 +
STACK CFI INIT 90e0 14b .cfa: $rsp 8 + .ra: .cfa -8 + ^
STACK CFI 90e2 $r14: .cfa -16 + ^ .cfa: $rsp 16 +
STACK CFI 90e4 $r13: .cfa -24 + ^ .cfa: $rsp 24 +
STACK CFI 90e6 $r12: .cfa -32 + ^ .cfa: $rsp 32 +
STACK CFI 90e7 $rbp: .cfa -40 + ^ .cfa: $rsp 40 +
STACK CFI 90e8 $rbx: .cfa -48 + ^ .cfa: $rsp 48 +
STACK CFI 90ef .cfa: $rsp 208 +
STACK CFI 9180 .cfa: $rsp 48 +
STACK CFI 9181 .cfa: $rsp 40 +
STACK CFI 9182 .cfa: $rsp 32 +
STACK CFI 9184 .cfa: $rsp 24 +
STACK CFI 9186 .cfa: $rsp 16 +
STACK CFI 9188 .cfa: $rsp 8 +
STACK CFI 9190 .cfa: $rsp 208 +
STACK CFI INIT 9230 7c .cfa: $rsp 8 + .ra: .cfa -8 + ^
STACK CFI 923b $r13: .cfa -16 + ^ .cfa: $rsp 16 +
STACK CFI 923d $r12: .cfa -24 + ^ .cfa: $rsp 24 +
STACK CFI 9245 $rbp: .cfa -32 + ^ .cfa: $rsp 32 +
STACK CFI 9246 $rbx: .cfa -40 + ^ .cfa: $rsp 40 +
STACK CFI 925e .cfa: $rsp 48 +
STACK CFI 9291 .cfa: $rsp 40 +
STACK CFI 9292 $rbx: $rbx .cfa: $rsp 32 +
STACK CFI 9293 $rbp: $rbp .cfa: $rsp 24 +
STACK CFI 9295 $r12: $r12 .cfa: $rsp 16 +
STACK CFI 9297 $r13: $r13 .cfa: $rsp 8 +
STACK CFI 92a0 $r12: .cfa -24 + ^ $r13: .cfa -16 + ^ $rbp: .cfa -32 + ^ $rbx: .cfa -40 + ^ .cfa: $rsp 48 +
STACK CFI INIT 92b0 341 .cfa: $rsp 8 + .ra: .cfa -8 + ^
STACK CFI 92b2 $r12: .cfa -16 + ^ .cfa: $rsp 16 +
STACK CFI 92b3 $rbp: .cfa -24 + ^ .cfa: $rsp 24 +
STACK CFI 92b4 $rbx: .cfa -32 + ^ .cfa: $rsp 32 +
STACK CFI 92c2 .cfa: $rsp 96 +
STACK CFI 9473 .cfa: $rsp 32 +
STACK CFI 9474 .cfa: $rsp 24 +
STACK CFI 9475 .cfa: $rsp 16 +
STACK CFI 9477 .cfa: $rsp 8 +
STACK CFI 9480 .cfa: $rsp 96 +
STACK CFI INIT 9600 d1 .cfa: $rsp 8 + .ra: .cfa -8 + ^
STACK CFI 9602 $r15: .cfa -16 + ^ .cfa: $rsp 16 +
STACK CFI 9604 $r14: .cfa -24 + ^ .cfa: $rsp 24 +
STACK CFI 9609 $r13: .cfa -32 + ^ .cfa: $rsp 32 +
STACK CFI 960b $r12: .cfa -40 + ^ .cfa: $rsp 40 +
STACK CFI 9613 $rbp: .cfa -48 + ^ .cfa: $rsp 48 +
STACK CFI 9614 $rbx: .cfa -56 + ^ .cfa: $rsp 56 +
STACK CFI 9623 .cfa: $rsp 64 +
STACK CFI 964e .cfa: $rsp 56 +
STACK CFI 964f .cfa: $rsp 48 +
STACK CFI 9650 .cfa: $rsp 40 +
STACK CFI 9652 .cfa: $rsp 32 +
STACK CFI 9654 .cfa: $rsp 24 +
STACK CFI 9656 .cfa: $rsp 16 +
STACK CFI 9658 .cfa: $rsp 8 +
STACK CFI 9660 .cfa: $rsp 64 +
STACK CFI 96ac .cfa: $rsp 56 +
STACK CFI 96b9 .cfa: $rsp 48 +
STACK CFI 96ba .cfa: $rsp 40 +
STACK CFI 96bc .cfa: $rsp 32 +
STACK CFI 96be .cfa: $rsp 24 +
STACK CFI 96c0 .cfa: $rsp 16 +
STACK CFI 96c2 .cfa: $rsp 8 +
STACK CFI 96c7 .cfa: $rsp 64 +
STACK CFI INIT 96e0 4bc .cfa: $rsp 8 + .ra: .cfa -8 + ^
STACK CFI 96e2 $r15: .cfa -16 + ^ .cfa: $rsp 16 +
STACK CFI 96e4 $r14: .cfa -24 + ^ .cfa: $rsp 24 +
STACK CFI 96e6 $r13: .cfa -32 + ^ .cfa: $rsp 32 +
STACK CFI 96e8 $r12: .cfa -40 + ^ .cfa: $rsp 40 +
STACK CFI 96e9 $rbp: .cfa -48 + ^ .cfa: $rsp 48 +
STACK CFI 96ea $rbx: .cfa -56 + ^ .cfa: $rsp 56 +
STACK CFI 96f4 .cfa: $rsp 144 +
STACK CFI 9734 .cfa: $rsp 56 +
STACK CFI 9735 .cfa: $rsp 48 +
STACK CFI 9736 .cfa: $rsp 40 +
STACK CFI 9738 .cfa: $rsp 32 +
STACK CFI 973a .cfa: $rsp 24 +
STACK CFI 973c .cfa: $rsp 16 +
STACK CFI 973e .cfa: $rsp 8 +
STACK CFI 9740 .cfa: $rsp 144 +
STACK CFI INIT 9ba0 1da .cfa: $rsp 8 + .ra: .cfa -8 + ^
STACK CFI 9ba2 $r13: .cfa -16 + ^ .cfa: $rsp 16 +
STACK CFI 9ba4 $r12: .cfa -24 + ^ .cfa: $rsp 24 +
STACK CFI 9ba8 $rbp: .cfa -32 + ^ .cfa: $rsp 32 +
STACK CFI 9ba9 $rbx: .cfa -40 + ^ .cfa: $rsp 40 +
STACK CFI 9bb3 .cfa: $rsp 48 +
STACK CFI 9bc9 .cfa: $rsp 40 +
STACK CFI 9bca .cfa: $rsp 32 +
STACK CFI 9bcb .cfa: $rsp 24 +
STACK CFI 9bcd .cfa: $rsp 16 +
STACK CFI 9bcf .cfa: $rsp 8 +
STACK CFI 9bd0 .cfa: $rsp 48 +
STACK CFI 9d3d .cfa: $rsp 40 +
STACK CFI 9d48 .cfa: $rsp 32 +
STACK CFI 9d49 .cfa: $rsp 24 +
STACK CFI 9d4b .cfa: $rsp 16 +
STACK CFI 9d4d .cfa: $rsp 8 +
STACK CFI 9d58 .cfa: $rsp 48 +
STACK CFI INIT 9d80 1c1 .cfa: $rsp 8 + .ra: .cfa -8 + ^
STACK CFI 9d82 $r14: .cfa -16 + ^ .cfa: $rsp 16 +
STACK CFI 9d84 $r13: .cfa -24 + ^ .cfa: $rsp 24 +
STACK CFI 9d89 $r12: .cfa -32 + ^ .cfa: $rsp 32 +
STACK CFI 9d8a $rbp: .cfa -40 + ^ .cfa: $rsp 40 +
STACK CFI 9d8e $rbx: .cfa -48 + ^ .cfa: $rsp 48 +
STACK CFI 9d9f .cfa: $rsp 208 +
STACK CFI 9e7a .cfa: $rsp 48 +
STACK CFI 9e7b .cfa: $rsp 40 +
STACK CFI 9e7c .cfa: $rsp 32 +
STACK CFI 9e7e .cfa: $rsp 24 +
STACK CFI 9e80 .cfa: $rsp 16 +
STACK CFI 9e82 .cfa: $rsp 8 +
STACK CFI 9e88 .cfa: $rsp 208 +
STACK CFI INIT 9f50 7f .cfa: $rsp 8 + .ra: .cfa -8 + ^
STACK CFI 9f57 .cfa: $rsp 1104 +
STACK CFI 9fc9 .cfa: $rsp 8 +
STACK CFI 9fca .cfa: $rsp 1104 +
STACK CFI INIT 9fd0 e5 .cfa: $rsp 8 + .ra: .cfa -8 + ^
STACK CFI 9fd2 $r15: .cfa -16 + ^ .cfa: $rsp 16 +
STACK CFI 9fd4 $r14: .cfa -24 + ^ .cfa: $rsp 24 +
STACK CFI 9fd9 $r13: .cfa -32 + ^ .cfa: $rsp 32 +
STACK CFI 9fdb $r12: .cfa -40 + ^ .cfa: $rsp 40 +
STACK CFI 9fdf $rbp: .cfa -48 + ^ .cfa: $rsp 48 +
STACK CFI 9fe0 $rbx: .cfa -56 + ^ .cfa: $rsp 56 +
STACK CFI 9fe9 .cfa: $rsp 80 +
STACK CFI a03a .cfa: $rsp 56 +
STACK CFI a03b .cfa: $rsp 48 +
STACK CFI a03c .cfa: $rsp 40 +
STACK CFI a03e .cfa: $rsp 32 +
STACK CFI a040 .cfa: $rsp 24 +
STACK CFI a042 .cfa: $rsp 16 +
STACK CFI a044 .cfa: $rsp 8 +
STACK CFI a048 .cfa: $rsp 80 +
STACK CFI INIT a0c0 8b .cfa: $rsp 8 + .ra: .cfa -8 + ^
STACK CFI a0d6 .cfa: $rsp 16 +
STACK CFI a0f6 .cfa: $rsp 24 +
STACK CFI a0fc .cfa: $rsp 32 +
STACK CFI a109 .cfa: $rsp 24 +
STACK CFI a10a .cfa: $rsp 16 +
STACK CFI a10e .cfa: $rsp 8 +
STACK CFI a128 .cfa: $rsp 16 +
STACK CFI a133 .cfa: $rsp 24 +
STACK CFI a138 .cfa: $rsp 32 +
STACK CFI a145 .cfa: $rsp 24 +
STACK CFI a146 .cfa: $rsp 16 +
STACK CFI a14a .cfa: $rsp 8 +
STACK CFI INIT a150 28 .cfa: $rsp 8 + .ra: .cfa -8 + ^
STACK CFI a151 $rbx: .cfa -16 + ^ .cfa: $rsp 16 +
STACK CFI a177 .cfa: $rsp 8 +
STACK CFI INIT a180 195 .cfa: $rsp 8 + .ra: .cfa -8 + ^
STACK CFI a181 $rbx: .cfa -16 + ^ .cfa: $rsp 16 +
STACK CFI a188 .cfa: $rsp 1632 +
STACK CFI a21e .cfa: $rsp 16 +
STACK CFI a21f .cfa: $rsp 8 +
STACK CFI a220 .cfa: $rsp 1632 +
STACK CFI INIT a320 e3 .cfa: $rsp 8 + .ra: .cfa -8 + ^
STACK CFI a322 $r14: .cfa -16 + ^ .cfa: $rsp 16 +
STACK CFI a324 $r13: .cfa -24 + ^ .cfa: $rsp 24 +
STACK CFI a328 $rbp: .cfa -32 + ^ .cfa: $rsp 32 +
STACK CFI a329 $rbx: .cfa -40 + ^ .cfa: $rsp 40 +
STACK CFI a338 .cfa: $rsp 640 +
STACK CFI a3f7 .cfa: $rsp 40 +
STACK CFI a3f8 .cfa: $rsp 32 +
STACK CFI a3f9 .cfa: $rsp 24 +
STACK CFI a3fb .cfa: $rsp 16 +
STACK CFI a3fd .cfa: $rsp 8 +
STACK CFI a3fe .cfa: $rsp 640 +
STACK CFI INIT a410 91 .cfa: $rsp 8 + .ra: .cfa -8 + ^
STACK CFI a412 $r13: .cfa -16 + ^ .cfa: $rsp 16 +
STACK CFI a414 $r12: .cfa -24 + ^ .cfa: $rsp 24 +
STACK CFI a415 $rbp: .cfa -32 + ^ .cfa: $rsp 32 +
STACK CFI a416 $rbx: .cfa -40 + ^ .cfa: $rsp 40 +
STACK CFI a421 .cfa: $rsp 48 +
STACK CFI a44a .cfa: $rsp 40 +
STACK CFI a44b .cfa: $rsp 32 +
STACK CFI a44c .cfa: $rsp 24 +
STACK CFI a44e .cfa: $rsp 16 +
STACK CFI a450 .cfa: $rsp 8 +
STACK CFI a458 .cfa: $rsp 48 +
STACK CFI a49a .cfa: $rsp 40 +
STACK CFI a49b .cfa: $rsp 32 +
STACK CFI a49c .cfa: $rsp 24 +
STACK CFI a49e .cfa: $rsp 16 +
STACK CFI a4a0 .cfa: $rsp 8 +
STACK CFI INIT a4b0 52 .cfa: $rsp 8 + .ra: .cfa -8 + ^
STACK CFI a4b1 $rbx: .cfa -16 + ^ .cfa: $rsp 16 +
STACK CFI a4f2 .cfa: $rsp 8 +
STACK CFI a500 .cfa: $rsp 16 +
STACK CFI a501 .cfa: $rsp 8 +
STACK CFI INIT a510 23d .cfa: $rsp 8 + .ra: .cfa -8 + ^
STACK CFI a512 $r15: .cfa -16 + ^ .cfa: $rsp 16 +
STACK CFI a514 $r14: .cfa -24 + ^ .cfa: $rsp 24 +
STACK CFI a519 $r13: .cfa -32 + ^ .cfa: $rsp 32 +
STACK CFI a51b $r12: .cfa -40 + ^ .cfa: $rsp 40 +
STACK CFI a51f $rbp: .cfa -48 + ^ .cfa: $rsp 48 +
STACK CFI a520 $rbx: .cfa -56 + ^ .cfa: $rsp 56 +
STACK CFI a530 .cfa: $rsp 224 +
STACK CFI a692 .cfa: $rsp 56 +
STACK CFI a693 .cfa: $rsp 48 +
STACK CFI a694 .cfa: $rsp 40 +
STACK CFI a696 .cfa: $rsp 32 +
STACK CFI a698 .cfa: $rsp 24 +
STACK CFI a69a .cfa: $rsp 16 +
STACK CFI a69c .cfa: $rsp 8 +
STACK CFI a6a0 .cfa: $rsp 224 +
STACK CFI INIT ad70 ea .cfa: $rsp 8 + .ra: .cfa -8 + ^
STACK CFI ad72 $r15: .cfa -16 + ^ .cfa: $rsp 16 +
STACK CFI ad74 $r14: .cfa -24 + ^ .cfa: $rsp 24 +
STACK CFI ad79 $r13: .cfa -32 + ^ .cfa: $rsp 32 +
STACK CFI ad7b $r12: .cfa -40 + ^ .cfa: $rsp 40 +
STACK CFI ad7f $rbp: .cfa -48 + ^ .cfa: $rsp 48 +
STACK CFI ad80 $rbx: .cfa -56 + ^ .cfa: $rsp 56 +
STACK CFI ad84 .cfa: $rsp 64 +
STACK CFI ae0a .cfa: $rsp 56 +
STACK CFI ae0b .cfa: $rsp 48 +
STACK CFI ae0c .cfa: $rsp 40 +
STACK CFI ae0e .cfa: $rsp 32 +
STACK CFI ae10 .cfa: $rsp 24 +
STACK CFI ae12 .cfa: $rsp 16 +
STACK CFI ae14 .cfa: $rsp 8 +
STACK CFI ae18 .cfa: $rsp 64 +
STACK CFI INIT a750 396 .cfa: $rsp 8 + .ra: .cfa -8 + ^
STACK CFI a752 $r15: .cfa -16 + ^ .cfa: $rsp 16 +
STACK CFI a754 $r14: .cfa -24 + ^ .cfa: $rsp 24 +
STACK CFI a759 $r13: .cfa -32 + ^ .cfa: $rsp 32 +
STACK CFI a75f $r12: .cfa -40 + ^ .cfa: $rsp 40 +
STACK CFI a760 $rbp: .cfa -48 + ^ .cfa: $rsp 48 +
STACK CFI a761 $rbx: .cfa -56 + ^ .cfa: $rsp 56 +
STACK CFI a768 .cfa: $rsp 80 +
STACK CFI a8ae .cfa: $rsp 56 +
STACK CFI a8af .cfa: $rsp 48 +
STACK CFI a8b0 .cfa: $rsp 40 +
STACK CFI a8b2 .cfa: $rsp 32 +
STACK CFI a8b4 .cfa: $rsp 24 +
STACK CFI a8b6 .cfa: $rsp 16 +
STACK CFI a8b8 .cfa: $rsp 8 +
STACK CFI a8c0 .cfa: $rsp 80 +
STACK CFI INIT aaf0 27d .cfa: $rsp 8 + .ra: .cfa -8 + ^
STACK CFI aaf1 $rbp: .cfa -16 + ^ .cfa: $rsp 16 +
STACK CFI aaf4 .cfa: $rbp 16 +
STACK CFI aafc $r12: .cfa -48 + ^ $r13: .cfa -40 + ^ $r14: .cfa -32 + ^ $r15: .cfa -24 + ^
STACK CFI ab00 $rbx: .cfa -56 + ^
STACK CFI acb1 .cfa: $rsp 8 +
STACK CFI acb8 .cfa: $rbp 16 +
STACK CFI INIT ae60 c2 .cfa: $rsp 8 + .ra: .cfa -8 + ^
STACK CFI ae62 $r12: .cfa -16 + ^ .cfa: $rsp 16 +
STACK CFI ae63 $rbp: .cfa -24 + ^ .cfa: $rsp 24 +
STACK CFI ae67 $rbx: .cfa -32 + ^ .cfa: $rsp 32 +
STACK CFI ae6e .cfa: $rsp 48 +
STACK CFI aeda .cfa: $rsp 32 +
STACK CFI aedb .cfa: $rsp 24 +
STACK CFI aedc .cfa: $rsp 16 +
STACK CFI aede .cfa: $rsp 8 +
STACK CFI aee0 .cfa: $rsp 48 +
STACK CFI INIT af30 a4 .cfa: $rsp 8 + .ra: .cfa -8 + ^
STACK CFI af31 $rbp: .cfa -16 + ^ .cfa: $rsp 16 +
STACK CFI af32 $rbx: .cfa -24 + ^ .cfa: $rsp 24 +
STACK CFI af40 .cfa: $rsp 32 +
STACK CFI afb2 .cfa: $rsp 24 +
STACK CFI afb3 .cfa: $rsp 16 +
STACK CFI afb4 .cfa: $rsp 8 +
STACK CFI afb5 .cfa: $rsp 32 +
STACK CFI INIT afe0 317 .cfa: $rsp 8 + .ra: .cfa -8 + ^
STACK CFI afe2 $r13: .cfa -16 + ^ .cfa: $rsp 16 +
STACK CFI afe4 $r12: .cfa -24 + ^ .cfa: $rsp 24 +
STACK CFI afe5 $rbp: .cfa -32 + ^ .cfa: $rsp 32 +
STACK CFI afe6 $rbx: .cfa -40 + ^ .cfa: $rsp 40 +
STACK CFI afed .cfa: $rsp 208 +
STACK CFI b239 .cfa: $rsp 40 +
STACK CFI b23a .cfa: $rsp 32 +
STACK CFI b23b .cfa: $rsp 24 +
STACK CFI b23d .cfa: $rsp 16 +
STACK CFI b23f .cfa: $rsp 8 +
STACK CFI b240 .cfa: $rsp 208 +
STACK CFI INIT b300 a2 .cfa: $rsp 8 + .ra: .cfa -8 + ^
STACK CFI b301 $rbp: .cfa -16 + ^ .cfa: $rsp 16 +
STACK CFI b302 $rbx: .cfa -24 + ^ .cfa: $rsp 24 +
STACK CFI b306 .cfa: $rsp 32 +
STACK CFI b37d .cfa: $rsp 24 +
STACK CFI b381 .cfa: $rsp 16 +
STACK CFI b382 .cfa: $rsp 8 +
STACK CFI b383 .cfa: $rsp 32 +
STACK CFI INIT b3b0 33 .cfa: $rsp 8 + .ra: .cfa -8 + ^
STACK CFI b3bc $rbx: .cfa -16 + ^ .cfa: $rsp 16 +
STACK CFI b3e2 .cfa: $rsp 8 +
STACK CFI INIT ceb0 3ea .cfa: $rsp 8 + .ra: .cfa -8 + ^
STACK CFI cebb $r15: .cfa -16 + ^ .cfa: $rsp 16 +
STACK CFI cebd $r14: .cfa -24 + ^ .cfa: $rsp 24 +
STACK CFI cec2 $r13: .cfa -32 + ^ .cfa: $rsp 32 +
STACK CFI cec4 $r12: .cfa -40 + ^ .cfa: $rsp 40 +
STACK CFI cec8 $rbp: .cfa -48 + ^ .cfa: $rsp 48 +
STACK CFI cec9 $rbx: .cfa -56 + ^ .cfa: $rsp 56 +
STACK CFI ced9 .cfa: $rsp 96 +
STACK CFI cf4c .cfa: $rsp 56 +
STACK CFI cf4d $rbx: $rbx .cfa: $rsp 48 +
STACK CFI cf4e $rbp: $rbp .cfa: $rsp 40 +
STACK CFI cf50 $r12: $r12 .cfa: $rsp 32 +
STACK CFI cf52 $r13: $r13 .cfa: $rsp 24 +
STACK CFI cf54 $r14: $r14 .cfa: $rsp 16 +
STACK CFI cf56 $r15: $r15 .cfa: $rsp 8 +
STACK CFI cf60 $r12: .cfa -40 + ^ $r13: .cfa -32 + ^ $r14: .cfa -24 + ^ $r15: .cfa -16 + ^ $rbp: .cfa -48 + ^ $rbx: .cfa -56 + ^ .cfa: $rsp 96 +
STACK CFI cfd0 .cfa: $rsp 56 +
STACK CFI cfd7 $rbx: $rbx .cfa: $rsp 48 +
STACK CFI cfd8 $rbp: $rbp .cfa: $rsp 40 +
STACK CFI cfda $r12: $r12 .cfa: $rsp 32 +
STACK CFI cfdc $r13: $r13 .cfa: $rsp 24 +
STACK CFI cfde $r14: $r14 .cfa: $rsp 16 +
STACK CFI cfe0 $r15: $r15 .cfa: $rsp 8 +
STACK CFI cfe8 $r12: .cfa -40 + ^ $r13: .cfa -32 + ^ $r14: .cfa -24 + ^ $r15: .cfa -16 + ^ $rbp: .cfa -48 + ^ $rbx: .cfa -56 + ^ .cfa: $rsp 96 +
STACK CFI d0cd .cfa: $rsp 56 +
STACK CFI d0ce $rbx: $rbx .cfa: $rsp 48 +
STACK CFI d0cf $rbp: $rbp .cfa: $rsp 40 +
STACK CFI d0d1 $r12: $r12 .cfa: $rsp 32 +
STACK CFI d0d3 $r13: $r13 .cfa: $rsp 24 +
STACK CFI d0d5 $r14: $r14 .cfa: $rsp 16 +
STACK CFI d0d7 $r15: $r15 .cfa: $rsp 8 +
STACK CFI d0e0 $r12: .cfa -40 + ^ $r13: .cfa -32 + ^ $r14: .cfa -24 + ^ $r15: .cfa -16 + ^ $rbp: .cfa -48 + ^ $rbx: .cfa -56 + ^ .cfa: $rsp 96 +
STACK CFI INIT b3f0 1ab5 .cfa: $rsp 8 + .ra: .cfa -8 + ^
STACK CFI b3f1 $rbp: .cfa -16 + ^ .cfa: $rsp 16 +
STACK CFI b3f4 .cfa: $rbp 16 +
STACK CFI b3fc $r12: .cfa -48 + ^ $r13: .cfa -40 + ^ $r14: .cfa -32 + ^ $r15: .cfa -24 + ^
STACK CFI b400 $rbx: .cfa -56 + ^
STACK CFI b49a .cfa: $rsp 8 +
STACK CFI b49b .cfa: $rbp 16 +
STACK CFI INIT d2a0 6 .cfa: $rsp 8 + .ra: .cfa -8 + ^
STACK CFI INIT ef20 143 .cfa: $rsp 8 + .ra: .cfa -8 + ^
STACK CFI ef2b $r15: .cfa -16 + ^ .cfa: $rsp 16 +
STACK CFI ef2d $r14: .cfa -24 + ^ .cfa: $rsp 24 +
STACK CFI ef2f $r13: .cfa -32 + ^ .cfa: $rsp 32 +
STACK CFI ef31 $r12: .cfa -40 + ^ .cfa: $rsp 40 +
STACK CFI ef32 $rbp: .cfa -48 + ^ .cfa: $rsp 48 +
STACK CFI ef33 $rbx: .cfa -56 + ^ .cfa: $rsp 56 +
STACK CFI ef3a .cfa: $rsp 64 +
STACK CFI ef6c .cfa: $rsp 56 +
STACK CFI ef6d $rbx: $rbx .cfa: $rsp 48 +
STACK CFI ef6e $rbp: $rbp .cfa: $rsp 40 +
STACK CFI ef70 $r12: $r12 .cfa: $rsp 32 +
STACK CFI ef72 $r13: $r13 .cfa: $rsp 24 +
STACK CFI ef74 $r14: $r14 .cfa: $rsp 16 +
STACK CFI ef76 $r15: $r15 .cfa: $rsp 8 +
STACK CFI ef80 $r12: .cfa -40 + ^ $r13: .cfa -32 + ^ $r14: .cfa -24 + ^ $r15: .cfa -16 + ^ $rbp: .cfa -48 + ^ $rbx: .cfa -56 + ^ .cfa: $rsp 64 +
STACK CFI f02f .cfa: $rsp 56 +
STACK CFI f034 $rbx: $rbx .cfa: $rsp 48 +
STACK CFI f035 $rbp: $rbp .cfa: $rsp 40 +
STACK CFI f037 $r12: $r12 .cfa: $rsp 32 +
STACK CFI f039 $r13: $r13 .cfa: $rsp 24 +
STACK CFI f03b $r14: $r14 .cfa: $rsp 16 +
STACK CFI f03d $r15: $r15 .cfa: $rsp 8 +
STACK CFI f040 $r12: .cfa -40 + ^ $r13: .cfa -32 + ^ $r14: .cfa -24 + ^ $r15: .cfa -16 + ^ $rbp: .cfa -48 + ^ $rbx: .cfa -56 + ^ .cfa: $rsp 64 +
STACK CFI f054 .cfa: $rsp 56 +
STACK CFI f055 $rbx: $rbx .cfa: $rsp 48 +
STACK CFI f056 $rbp: $rbp .cfa: $rsp 40 +
STACK CFI f058 $r12: $r12 .cfa: $rsp 32 +
STACK CFI f05a $r13: $r13 .cfa: $rsp 24 +
STACK CFI f05c $r14: $r14 .cfa: $rsp 16 +
STACK CFI f05e $r15: $r15 .cfa: $rsp 8 +
STACK CFI INIT d2b0 835 .cfa: $rsp 8 + .ra: .cfa -8 + ^
STACK CFI d2b2 $r15: .cfa -16 + ^ .cfa: $rsp 16 +
STACK CFI d2b4 $r14: .cfa -24 + ^ .cfa: $rsp 24 +
STACK CFI d2bd $r13: .cfa -32 + ^ .cfa: $rsp 32 +
STACK CFI d2bf $r12: .cfa -40 + ^ .cfa: $rsp 40 +
STACK CFI d2c6 $rbp: .cfa -48 + ^ .cfa: $rsp 48 +
STACK CFI d2c7 $rbx: .cfa -56 + ^ .cfa: $rsp 56 +
STACK CFI d2d2 .cfa: $rsp 80 +
STACK CFI d525 .cfa: $rsp 56 +
STACK CFI d526 .cfa: $rsp 48 +
STACK CFI d527 .cfa: $rsp 40 +
STACK CFI d529 .cfa: $rsp 32 +
STACK CFI d52b .cfa: $rsp 24 +
STACK CFI d52d .cfa: $rsp 16 +
STACK CFI d52f .cfa: $rsp 8 +
STACK CFI d530 .cfa: $rsp 80 +
STACK CFI INIT daf0 67 .cfa: $rsp 8 + .ra: .cfa -8 + ^
STACK CFI daf2 $r13: .cfa -16 + ^ .cfa: $rsp 16 +
STACK CFI daf4 $r12: .cfa -24 + ^ .cfa: $rsp 24 +
STACK CFI daf8 $rbp: .cfa -32 + ^ .cfa: $rsp 32 +
STACK CFI daf9 $rbx: .cfa -40 + ^ .cfa: $rsp 40 +
STACK CFI db02 .cfa: $rsp 48 +
STACK CFI db50 .cfa: $rsp 40 +
STACK CFI db51 .cfa: $rsp 32 +
STACK CFI db52 .cfa: $rsp 24 +
STACK CFI db54 .cfa: $rsp 16 +
STACK CFI db56 .cfa: $rsp 8 +
STACK CFI INIT db60 12 .cfa: $rsp 8 + .ra: .cfa -8 + ^
STACK CFI db61 $rbx: .cfa -16 + ^ .cfa: $rsp 16 +
STACK CFI db6d .cfa: $rsp 8 +
STACK CFI INIT db80 4a .cfa: $rsp 8 + .ra: .cfa -8 + ^
STACK CFI db81 $rbp: .cfa -16 + ^ .cfa: $rsp 16 +
STACK CFI db82 $rbx: .cfa -24 + ^ .cfa: $rsp 24 +
STACK CFI db91 .cfa: $rsp 32 +
STACK CFI dbc5 .cfa: $rsp 24 +
STACK CFI dbc8 .cfa: $rsp 16 +
STACK CFI dbc9 .cfa: $rsp 8 +
STACK CFI INIT dbd0 19f .cfa: $rsp 8 + .ra: .cfa -8 + ^
STACK CFI dbd2 $r14: .cfa -16 + ^ .cfa: $rsp 16 +
STACK CFI dbd4 $r13: .cfa -24 + ^ .cfa: $rsp 24 +
STACK CFI dbd9 $r12: .cfa -32 + ^ .cfa: $rsp 32 +
STACK CFI dbda $rbp: .cfa -40 + ^ .cfa: $rsp 40 +
STACK CFI dbdf $rbx: .cfa -48 + ^ .cfa: $rsp 48 +
STACK CFI dbfb .cfa: $rsp 4224 +
STACK CFI dc39 .cfa: $rsp 48 +
STACK CFI dc3a .cfa: $rsp 40 +
STACK CFI dc3b .cfa: $rsp 32 +
STACK CFI dc3d .cfa: $rsp 24 +
STACK CFI dc3f .cfa: $rsp 16 +
STACK CFI dc41 .cfa: $rsp 8 +
STACK CFI dc48 .cfa: $rsp 4224 +
STACK CFI INIT dd70 1a7 .cfa: $rsp 8 + .ra: .cfa -8 + ^
STACK CFI dd72 $r14: .cfa -16 + ^ .cfa: $rsp 16 +
STACK CFI dd74 $r13: .cfa -24 + ^ .cfa: $rsp 24 +
STACK CFI dd7d $r12: .cfa -32 + ^ .cfa: $rsp 32 +
STACK CFI dd7e $rbp: .cfa -40 + ^ .cfa: $rsp 40 +
STACK CFI dd82 $rbx: .cfa -48 + ^ .cfa: $rsp 48 +
STACK CFI dd8c .cfa: $rsp 4992 +
STACK CFI ddd9 .cfa: $rsp 48 +
STACK CFI ddda .cfa: $rsp 40 +
STACK CFI dddb .cfa: $rsp 32 +
STACK CFI dddd .cfa: $rsp 24 +
STACK CFI dddf .cfa: $rsp 16 +
STACK CFI dde1 .cfa: $rsp 8 +
STACK CFI dde8 .cfa: $rsp 4992 +
STACK CFI INIT df20 e6 .cfa: $rsp 8 + .ra: .cfa -8 + ^
STACK CFI df22 $r15: .cfa -16 + ^ .cfa: $rsp 16 +
STACK CFI df24 $r14: .cfa -24 + ^ .cfa: $rsp 24 +
STACK CFI df29 $r13: .cfa -32 + ^ .cfa: $rsp 32 +
STACK CFI df2b $r12: .cfa -40 + ^ .cfa: $rsp 40 +
STACK CFI df2f $rbp: .cfa -48 + ^ .cfa: $rsp 48 +
STACK CFI df30 $rbx: .cfa -56 + ^ .cfa: $rsp 56 +
STACK CFI df41 .cfa: $rsp 64 +
STACK CFI df7b .cfa: $rsp 56 +
STACK CFI df82 .cfa: $rsp 48 +
STACK CFI df83 .cfa: $rsp 40 +
STACK CFI df85 .cfa: $rsp 32 +
STACK CFI df87 .cfa: $rsp 24 +
STACK CFI df89 .cfa: $rsp 16 +
STACK CFI df8b .cfa: $rsp 8 +
STACK CFI df90 .cfa: $rsp 64 +
STACK CFI dfc6 .cfa: $rsp 56 +
STACK CFI dfc7 .cfa: $rsp 48 +
STACK CFI dfc8 .cfa: $rsp 40 +
STACK CFI dfca .cfa: $rsp 32 +
STACK CFI dfcc .cfa: $rsp 24 +
STACK CFI dfce .cfa: $rsp 16 +
STACK CFI dfd0 .cfa: $rsp 8 +
STACK CFI dfd8 .cfa: $rsp 64 +
STACK CFI dfee .cfa: $rsp 56 +
STACK CFI dff8 .cfa: $rsp 48 +
STACK CFI dff9 .cfa: $rsp 40 +
STACK CFI dffb .cfa: $rsp 32 +
STACK CFI dffd .cfa: $rsp 24 +
STACK CFI dfff .cfa: $rsp 16 +
STACK CFI e001 .cfa: $rsp 8 +
STACK CFI INIT e010 119 .cfa: $rsp 8 + .ra: .cfa -8 + ^
STACK CFI e012 $r13: .cfa -16 + ^ .cfa: $rsp 16 +
STACK CFI e014 $r12: .cfa -24 + ^ .cfa: $rsp 24 +
STACK CFI e018 $rbp: .cfa -32 + ^ .cfa: $rsp 32 +
STACK CFI e019 $rbx: .cfa -40 + ^ .cfa: $rsp 40 +
STACK CFI e027 .cfa: $rsp 336 +
STACK CFI e0e9 .cfa: $rsp 40 +
STACK CFI e0ea .cfa: $rsp 32 +
STACK CFI e0eb .cfa: $rsp 24 +
STACK CFI e0ed .cfa: $rsp 16 +
STACK CFI e0ef .cfa: $rsp 8 +
STACK CFI e0f0 .cfa: $rsp 336 +
STACK CFI INIT e130 32 .cfa: $rsp 8 + .ra: .cfa -8 + ^
STACK CFI e131 $rbx: .cfa -16 + ^ .cfa: $rsp 16 +
STACK CFI e140 .cfa: $rsp 8 +
STACK CFI e148 .cfa: $rsp 16 +
STACK CFI e15c .cfa: $rsp 8 +
STACK CFI INIT e170 4b .cfa: $rsp 8 + .ra: .cfa -8 + ^
STACK CFI INIT e1c0 7d .cfa: $rsp 8 + .ra: .cfa -8 + ^
STACK CFI e1c2 $r13: .cfa -16 + ^ .cfa: $rsp 16 +
STACK CFI e1c4 $r12: .cfa -24 + ^ .cfa: $rsp 24 +
STACK CFI e1c8 $rbp: .cfa -32 + ^ .cfa: $rsp 32 +
STACK CFI e1c9 $rbx: .cfa -40 + ^ .cfa: $rsp 40 +
STACK CFI e1d6 .cfa: $rsp 48 +
STACK CFI e220 .cfa: $rsp 40 +
STACK CFI e221 .cfa: $rsp 32 +
STACK CFI e222 .cfa: $rsp 24 +
STACK CFI e224 .cfa: $rsp 16 +
STACK CFI e226 .cfa: $rsp 8 +
STACK CFI e230 .cfa: $rsp 48 +
STACK CFI e234 .cfa: $rsp 40 +
STACK CFI e237 .cfa: $rsp 32 +
STACK CFI e238 .cfa: $rsp 24 +
STACK CFI e23a .cfa: $rsp 16 +
STACK CFI e23c .cfa: $rsp 8 +
STACK CFI INIT e240 53 .cfa: $rsp 8 + .ra: .cfa -8 + ^
STACK CFI e241 $rbp: .cfa -16 + ^ .cfa: $rsp 16 +
STACK CFI e242 $rbx: .cfa -24 + ^ .cfa: $rsp 24 +
STACK CFI e24f .cfa: $rsp 32 +
STACK CFI e25e .cfa: $rsp 24 +
STACK CFI e261 .cfa: $rsp 16 +
STACK CFI e262 .cfa: $rsp 8 +
STACK CFI e268 .cfa: $rsp 32 +
STACK CFI e286 .cfa: $rsp 24 +
STACK CFI e28d .cfa: $rsp 16 +
STACK CFI e28e .cfa: $rsp 8 +
STACK CFI INIT e2a0 34b .cfa: $rsp 8 + .ra: .cfa -8 + ^
STACK CFI e2a2 $r15: .cfa -16 + ^ .cfa: $rsp 16 +
STACK CFI e2a4 $r14: .cfa -24 + ^ .cfa: $rsp 24 +
STACK CFI e2a9 $r13: .cfa -32 + ^ .cfa: $rsp 32 +
STACK CFI e2ab $r12: .cfa -40 + ^ .cfa: $rsp 40 +
STACK CFI e2af $rbp: .cfa -48 + ^ .cfa: $rsp 48 +
STACK CFI e2b0 $rbx: .cfa -56 + ^ .cfa: $rsp 56 +
STACK CFI e2bf .cfa: $rsp 4208 +
STACK CFI e333 .cfa: $rsp 56 +
STACK CFI e334 .cfa: $rsp 48 +
STACK CFI e335 .cfa: $rsp 40 +
STACK CFI e337 .cfa: $rsp 32 +
STACK CFI e339 .cfa: $rsp 24 +
STACK CFI e33b .cfa: $rsp 16 +
STACK CFI e33d .cfa: $rsp 8 +
STACK CFI e340 .cfa: $rsp 4208 +
STACK CFI INIT f070 288 .cfa: $rsp 8 + .ra: .cfa -8 + ^
STACK CFI f0c2 $r15: .cfa -16 + ^ .cfa: $rsp 16 +
STACK CFI f0c4 $r14: .cfa -24 + ^ .cfa: $rsp 24 +
STACK CFI f0c9 $r13: .cfa -32 + ^ .cfa: $rsp 32 +
STACK CFI f0cb $r12: .cfa -40 + ^ .cfa: $rsp 40 +
STACK CFI f0d6 $rbp: .cfa -48 + ^ .cfa: $rsp 48 +
STACK CFI f0d7 $rbx: .cfa -56 + ^ .cfa: $rsp 56 +
STACK CFI f0e4 .cfa: $rsp 80 +
STACK CFI f1aa .cfa: $rsp 56 +
STACK CFI f1ab $rbx: $rbx .cfa: $rsp 48 +
STACK CFI f1ac $rbp: $rbp .cfa: $rsp 40 +
STACK CFI f1ae $r12: $r12 .cfa: $rsp 32 +
STACK CFI f1b0 $r13: $r13 .cfa: $rsp 24 +
STACK CFI f1b2 $r14: $r14 .cfa: $rsp 16 +
STACK CFI f1b4 $r15: $r15 .cfa: $rsp 8 +
STACK CFI f1b6 $r12: .cfa -40 + ^ $r13: .cfa -32 + ^ $r14: .cfa -24 + ^ $r15: .cfa -16 + ^ $rbp: .cfa -48 + ^ $rbx: .cfa -56 + ^ .cfa: $rsp 80 +
STACK CFI INIT e5f0 930 .cfa: $rsp 8 + .ra: .cfa -8 + ^
STACK CFI e5f2 $r15: .cfa -16 + ^ .cfa: $rsp 16 +
STACK CFI e5f4 $r14: .cfa -24 + ^ .cfa: $rsp 24 +
STACK CFI e5fd $r13: .cfa -32 + ^ .cfa: $rsp 32 +
STACK CFI e5ff $r12: .cfa -40 + ^ .cfa: $rsp 40 +
STACK CFI e603 $rbp: .cfa -48 + ^ .cfa: $rsp 48 +
STACK CFI e604 $rbx: .cfa -56 + ^ .cfa: $rsp 56 +
STACK CFI e60b .cfa: $rsp 448 +
STACK CFI e7b0 .cfa: $rsp 56 +
STACK CFI e7b1 .cfa: $rsp 48 +
STACK CFI e7b2 .cfa: $rsp 40 +
STACK CFI e7b4 .cfa: $rsp 32 +
STACK CFI e7b6 .cfa: $rsp 24 +
STACK CFI e7b8 .cfa: $rsp 16 +
STACK CFI e7ba .cfa: $rsp 8 +
STACK CFI e7bb .cfa: $rsp 448 +
STACK CFI INIT f300 3 .cfa: $rsp 8 + .ra: .cfa -8 + ^
STACK CFI INIT f310 187 .cfa: $rsp 8 + .ra: .cfa -8 + ^
STACK CFI f312 $r15: .cfa -16 + ^ .cfa: $rsp 16 +
STACK CFI f314 $r14: .cfa -24 + ^ .cfa: $rsp 24 +
STACK CFI f316 $r13: .cfa -32 + ^ .cfa: $rsp 32 +
STACK CFI f318 $r12: .cfa -40 + ^ .cfa: $rsp 40 +
STACK CFI f319 $rbp: .cfa -48 + ^ .cfa: $rsp 48 +
STACK CFI f31a $rbx: .cfa -56 + ^ .cfa: $rsp 56 +
STACK CFI f31e .cfa: $rsp 112 +
STACK CFI f405 .cfa: $rsp 56 +
STACK CFI f406 .cfa: $rsp 48 +
STACK CFI f407 .cfa: $rsp 40 +
STACK CFI f409 .cfa: $rsp 32 +
STACK CFI f40b .cfa: $rsp 24 +
STACK CFI f40d .cfa: $rsp 16 +
STACK CFI f40f .cfa: $rsp 8 +
STACK CFI f410 .cfa: $rsp 112 +
STACK CFI INIT 103d0 13 .cfa: $rsp 8 + .ra: .cfa -8 + ^
STACK CFI INIT 103f0 20 .cfa: $rsp 8 + .ra: .cfa -8 + ^
STACK CFI 103f8 $rbx: .cfa -16 + ^ .cfa: $rsp 16 +
STACK CFI 1040b .cfa: $rsp 8 +
STACK CFI INIT f4a0 bb .cfa: $rsp 8 + .ra: .cfa -8 + ^
STACK CFI f4b8 $r15: .cfa -16 + ^ .cfa: $rsp 16 +
STACK CFI f4ba $r14: .cfa -24 + ^ .cfa: $rsp 24 +
STACK CFI f4bf $r13: .cfa -32 + ^ .cfa: $rsp 32 +
STACK CFI f4c1 $r12: .cfa -40 + ^ .cfa: $rsp 40 +
STACK CFI f4c5 $rbp: .cfa -48 + ^ .cfa: $rsp 48 +
STACK CFI f4c6 $rbx: .cfa -56 + ^ .cfa: $rsp 56 +
STACK CFI f4d0 .cfa: $rsp 64 +
STACK CFI f4e3 .cfa: $rsp 56 +
STACK CFI f4e4 $rbx: $rbx .cfa: $rsp 48 +
STACK CFI f4e5 $rbp: $rbp .cfa: $rsp 40 +
STACK CFI f4e7 $r12: $r12 .cfa: $rsp 32 +
STACK CFI f4e9 $r13: $r13 .cfa: $rsp 24 +
STACK CFI f4eb $r14: $r14 .cfa: $rsp 16 +
STACK CFI f4ed $r15: $r15 .cfa: $rsp 8 +
STACK CFI f4f8 $r12: .cfa -40 + ^ $r13: .cfa -32 + ^ $r14: .cfa -24 + ^ $r15: .cfa -16 + ^ $rbp: .cfa -48 + ^ $rbx: .cfa -56 + ^ .cfa: $rsp 64 +
STACK CFI INIT f560 bc .cfa: $rsp 8 + .ra: .cfa -8 + ^
STACK CFI f571 $r15: .cfa -16 + ^ .cfa: $rsp 16 +
STACK CFI f573 $r14: .cfa -24 + ^ .cfa: $rsp 24 +
STACK CFI f57b $r13: .cfa -32 + ^ .cfa: $rsp 32 +
STACK CFI f57d $r12: .cfa -40 + ^ .cfa: $rsp 40 +
STACK CFI f581 $rbp: .cfa -48 + ^ .cfa: $rsp 48 +
STACK CFI f582 $rbx: .cfa -56 + ^ .cfa: $rsp 56 +
STACK CFI f586 .cfa: $rsp 64 +
STACK CFI f60d .cfa: $rsp 56 +
STACK CFI f611 $rbx: $rbx .cfa: $rsp 48 +
STACK CFI f612 $rbp: $rbp .cfa: $rsp 40 +
STACK CFI f614 $r12: $r12 .cfa: $rsp 32 +
STACK CFI f616 $r13: $r13 .cfa: $rsp 24 +
STACK CFI f618 $r14: $r14 .cfa: $rsp 16 +
STACK CFI f61a $r15: $r15 .cfa: $rsp 8 +
STACK CFI INIT f620 5fd .cfa: $rsp 8 + .ra: .cfa -8 + ^
STACK CFI f622 $r15: .cfa -16 + ^ .cfa: $rsp 16 +
STACK CFI f624 $r14: .cfa -24 + ^ .cfa: $rsp 24 +
STACK CFI f62d $r13: .cfa -32 + ^ .cfa: $rsp 32 +
STACK CFI f62f $r12: .cfa -40 + ^ .cfa: $rsp 40 +
STACK CFI f633 $rbp: .cfa -48 + ^ .cfa: $rsp 48 +
STACK CFI f634 $rbx: .cfa -56 + ^ .cfa: $rsp 56 +
STACK CFI f63b .cfa: $rsp 416 +
STACK CFI f78f .cfa: $rsp 56 +
STACK CFI f790 .cfa: $rsp 48 +
STACK CFI f791 .cfa: $rsp 40 +
STACK CFI f793 .cfa: $rsp 32 +
STACK CFI f795 .cfa: $rsp 24 +
STACK CFI f797 .cfa: $rsp 16 +
STACK CFI f799 .cfa: $rsp 8 +
STACK CFI f7a0 .cfa: $rsp 416 +
STACK CFI INIT fc20 51d .cfa: $rsp 8 + .ra: .cfa -8 + ^
STACK CFI fc22 $r15: .cfa -16 + ^ .cfa: $rsp 16 +
STACK CFI fc24 $r14: .cfa -24 + ^ .cfa: $rsp 24 +
STACK CFI fc26 $r13: .cfa -32 + ^ .cfa: $rsp 32 +
STACK CFI fc28 $r12: .cfa -40 + ^ .cfa: $rsp 40 +
STACK CFI fc2c $rbp: .cfa -48 + ^ .cfa: $rsp 48 +
STACK CFI fc2d $rbx: .cfa -56 + ^ .cfa: $rsp 56 +
STACK CFI fc34 .cfa: $rsp 384 +
STACK CFI fe34 .cfa: $rsp 56 +
STACK CFI fe35 .cfa: $rsp 48 +
STACK CFI fe36 .cfa: $rsp 40 +
STACK CFI fe38 .cfa: $rsp 32 +
STACK CFI fe3a .cfa: $rsp 24 +
STACK CFI fe3c .cfa: $rsp 16 +
STACK CFI fe3e .cfa: $rsp 8 +
STACK CFI fe3f .cfa: $rsp 384 +
STACK CFI INIT 10140 27 .cfa: $rsp 8 + .ra: .cfa -8 + ^
STACK CFI 10141 $rbx: .cfa -16 + ^ .cfa: $rsp 16 +
STACK CFI 10166 .cfa: $rsp 8 +
STACK CFI INIT 10410 288 .cfa: $rsp 8 + .ra: .cfa -8 + ^
STACK CFI 10462 $r15: .cfa -16 + ^ .cfa: $rsp 16 +
STACK CFI 10464 $r14: .cfa -24 + ^ .cfa: $rsp 24 +
STACK CFI 10469 $r13: .cfa -32 + ^ .cfa: $rsp 32 +
STACK CFI 1046b $r12: .cfa -40 + ^ .cfa: $rsp 40 +
STACK CFI 10476 $rbp: .cfa -48 + ^ .cfa: $rsp 48 +
STACK CFI 10477 $rbx: .cfa -56 + ^ .cfa: $rsp 56 +
STACK CFI 10484 .cfa: $rsp 80 +
STACK CFI 10549 .cfa: $rsp 56 +
STACK CFI 1054a $rbx: $rbx .cfa: $rsp 48 +
STACK CFI 1054b $rbp: $rbp .cfa: $rsp 40 +
STACK CFI 1054d $r12: $r12 .cfa: $rsp 32 +
STACK CFI 1054f $r13: $r13 .cfa: $rsp 24 +
STACK CFI 10551 $r14: $r14 .cfa: $rsp 16 +
STACK CFI 10553 $r15: $r15 .cfa: $rsp 8 +
STACK CFI 10555 $r12: .cfa -40 + ^ $r13: .cfa -32 + ^ $r14: .cfa -24 + ^ $r15: .cfa -16 + ^ $rbp: .cfa -48 + ^ $rbx: .cfa -56 + ^ .cfa: $rsp 80 +
STACK CFI INIT 10170 251 .cfa: $rsp 8 + .ra: .cfa -8 + ^
STACK CFI 10172 $r15: .cfa -16 + ^ .cfa: $rsp 16 +
STACK CFI 10174 $r14: .cfa -24 + ^ .cfa: $rsp 24 +
STACK CFI 10176 $r13: .cfa -32 + ^ .cfa: $rsp 32 +
STACK CFI 10178 $r12: .cfa -40 + ^ .cfa: $rsp 40 +
STACK CFI 10179 $rbp: .cfa -48 + ^ .cfa: $rsp 48 +
STACK CFI 1017a $rbx: .cfa -56 + ^ .cfa: $rsp 56 +
STACK CFI 10181 .cfa: $rsp 304 +
STACK CFI 102f5 .cfa: $rsp 56 +
STACK CFI 102f6 .cfa: $rsp 48 +
STACK CFI 102f7 .cfa: $rsp 40 +
STACK CFI 102f9 .cfa: $rsp 32 +
STACK CFI 102fb .cfa: $rsp 24 +
STACK CFI 102fd .cfa: $rsp 16 +
STACK CFI 102ff .cfa: $rsp 8 +
STACK CFI 10300 .cfa: $rsp 304 +
STACK CFI INIT 1980 4a .cfa: $rsp 8 + .ra: .cfa -8 + ^
STACK CFI 1982 $r13: .cfa -16 + ^ .cfa: $rsp 16 +
STACK CFI 1984 $r12: .cfa -24 + ^ .cfa: $rsp 24 +
STACK CFI 1988 $rbp: .cfa -32 + ^ .cfa: $rsp 32 +
STACK CFI 1989 $rbx: .cfa -40 + ^ .cfa: $rsp 40 +
STACK CFI 198d .cfa: $rsp 48 +
STACK CFI 19c3 .cfa: $rsp 40 +
STACK CFI 19c4 .cfa: $rsp 32 +
STACK CFI 19c5 .cfa: $rsp 24 +
STACK CFI 19c7 .cfa: $rsp 16 +
STACK CFI 19c9 .cfa: $rsp 8 +
STACK CFI INIT 19ca 20 .cfa: $rsp 8 + .ra: .cfa -8 + ^
STACK CFI 19d2 .cfa: $rsp 16 +
STACK CFI INIT 19ea 20 .cfa: $rsp 8 + .ra: .cfa -8 + ^
STACK CFI 19f2 .cfa: $rsp 16 +
STACK CFI INIT 1a0a 1d .cfa: $rsp 8 + .ra: .cfa -8 + ^
STACK CFI 1a10 .cfa: $rsp 16 +
STACK CFI 1a15 .cfa: $rsp 8 +
STACK CFI INIT 1a28 20 .cfa: $rsp 8 + .ra: .cfa -8 + ^
STACK CFI 1a30 .cfa: $rsp 16 +
STACK CFI INIT 1a48 20 .cfa: $rsp 8 + .ra: .cfa -8 + ^
STACK CFI 1a50 .cfa: $rsp 16 +
STACK CFI INIT 1a68 2c .cfa: $rsp 8 + .ra: .cfa -8 + ^
STACK CFI 1a69 $rbp: .cfa -16 + ^ .cfa: $rsp 16 +
STACK CFI 1a6a $rbx: .cfa -24 + ^ .cfa: $rsp 24 +
STACK CFI 1a6f .cfa: $rsp 32 +
STACK CFI 1a8a .cfa: $rsp 24 +
STACK CFI 1a8e .cfa: $rsp 16 +
STACK CFI 1a8f .cfa: $rsp 8 +
STACK CFI INIT 14530 259 .cfa: $rsp 8 + .ra: .cfa -8 + ^
STACK CFI 14532 $r15: .cfa -16 + ^ .cfa: $rsp 16 +
STACK CFI 14534 $r14: .cfa -24 + ^ .cfa: $rsp 24 +
STACK CFI 1453a $r13: .cfa -32 + ^ .cfa: $rsp 32 +
STACK CFI 1453c $r12: .cfa -40 + ^ .cfa: $rsp 40 +
STACK CFI 14540 $rbp: .cfa -48 + ^ .cfa: $rsp 48 +
STACK CFI 14541 $rbx: .cfa -56 + ^ .cfa: $rsp 56 +
STACK CFI 14548 .cfa: $rsp 64 +
STACK CFI 145ad .cfa: $rsp 56 +
STACK CFI 145b0 .cfa: $rsp 48 +
STACK CFI 145b1 .cfa: $rsp 40 +
STACK CFI 145b3 .cfa: $rsp 32 +
STACK CFI 145b5 .cfa: $rsp 24 +
STACK CFI 145b7 .cfa: $rsp 16 +
STACK CFI 145b9 .cfa: $rsp 8 +
STACK CFI 145c0 .cfa: $rsp 64 +
STACK CFI 14693 .cfa: $rsp 56 +
STACK CFI 14694 .cfa: $rsp 48 +
STACK CFI 1469a .cfa: $rsp 40 +
STACK CFI 1469c .cfa: $rsp 32 +
STACK CFI 1469e .cfa: $rsp 24 +
STACK CFI 146a0 .cfa: $rsp 16 +
STACK CFI 146a2 .cfa: $rsp 8 +
STACK CFI 146a8 .cfa: $rsp 64 +
STACK CFI 1475d .cfa: $rsp 56 +
STACK CFI 14760 .cfa: $rsp 48 +
STACK CFI 14761 .cfa: $rsp 40 +
STACK CFI 14763 .cfa: $rsp 32 +
STACK CFI 14765 .cfa: $rsp 24 +
STACK CFI 14767 .cfa: $rsp 16 +
STACK CFI 14769 .cfa: $rsp 8 +
STACK CFI 1476a .cfa: $rsp 64 +
STACK CFI INIT 14790 257 .cfa: $rsp 8 + .ra: .cfa -8 + ^
STACK CFI 147b2 $r15: .cfa -16 + ^ .cfa: $rsp 16 +
STACK CFI 147b4 $r14: .cfa -24 + ^ .cfa: $rsp 24 +
STACK CFI 147b6 $r13: .cfa -32 + ^ .cfa: $rsp 32 +
STACK CFI 147b8 $r12: .cfa -40 + ^ .cfa: $rsp 40 +
STACK CFI 147b9 $rbp: .cfa -48 + ^ .cfa: $rsp 48 +
STACK CFI 147ba $rbx: .cfa -56 + ^ .cfa: $rsp 56 +
STACK CFI 147c1 .cfa: $rsp 80 +
STACK CFI 147f1 .cfa: $rsp 56 +
STACK CFI 147f2 $rbx: $rbx .cfa: $rsp 48 +
STACK CFI 147f3 $rbp: $rbp .cfa: $rsp 40 +
STACK CFI 147f5 $r12: $r12 .cfa: $rsp 32 +
STACK CFI 147f7 $r13: $r13 .cfa: $rsp 24 +
STACK CFI 147f9 $r14: $r14 .cfa: $rsp 16 +
STACK CFI 147fb $r15: $r15 .cfa: $rsp 8 +
STACK CFI 14800 $r12: .cfa -40 + ^ $r13: .cfa -32 + ^ $r14: .cfa -24 + ^ $r15: .cfa -16 + ^ $rbp: .cfa -48 + ^ $rbx: .cfa -56 + ^ .cfa: $rsp 80 +
STACK CFI INIT 149f0 250 .cfa: $rsp 8 + .ra: .cfa -8 + ^
STACK CFI 149f2 $r15: .cfa -16 + ^ .cfa: $rsp 16 +
STACK CFI 149f4 $r14: .cfa -24 + ^ .cfa: $rsp 24 +
STACK CFI 149f6 $r13: .cfa -32 + ^ .cfa: $rsp 32 +
STACK CFI 149f8 $r12: .cfa -40 + ^ .cfa: $rsp 40 +
STACK CFI 149fc $rbp: .cfa -48 + ^ .cfa: $rsp 48 +
STACK CFI 149fd $rbx: .cfa -56 + ^ .cfa: $rsp 56 +
STACK CFI 14a04 .cfa: $rsp 80 +
STACK CFI 14ab0 .cfa: $rsp 56 +
STACK CFI 14ab1 .cfa: $rsp 48 +
STACK CFI 14ab2 .cfa: $rsp 40 +
STACK CFI 14ab4 .cfa: $rsp 32 +
STACK CFI 14ab6 .cfa: $rsp 24 +
STACK CFI 14ab8 .cfa: $rsp 16 +
STACK CFI 14aba .cfa: $rsp 8 +
STACK CFI 14ac0 .cfa: $rsp 80 +
STACK CFI INIT 106a0 e0e .cfa: $rsp 8 + .ra: .cfa -8 + ^
STACK CFI 106a2 $r15: .cfa -16 + ^ .cfa: $rsp 16 +
STACK CFI 106a4 $r14: .cfa -24 + ^ .cfa: $rsp 24 +
STACK CFI 106aa $r13: .cfa -32 + ^ .cfa: $rsp 32 +
STACK CFI 106ac $r12: .cfa -40 + ^ .cfa: $rsp 40 +
STACK CFI 106ad $rbp: .cfa -48 + ^ .cfa: $rsp 48 +
STACK CFI 106ae $rbx: .cfa -56 + ^ .cfa: $rsp 56 +
STACK CFI 106b5 .cfa: $rsp 2448 +
STACK CFI 10961 .cfa: $rsp 56 +
STACK CFI 10962 .cfa: $rsp 48 +
STACK CFI 10963 .cfa: $rsp 40 +
STACK CFI 10965 .cfa: $rsp 32 +
STACK CFI 10967 .cfa: $rsp 24 +
STACK CFI 10969 .cfa: $rsp 16 +
STACK CFI 1096b .cfa: $rsp 8 +
STACK CFI 10970 .cfa: $rsp 2448 +
STACK CFI INIT 114b0 2172 .cfa: $rsp 8 + .ra: .cfa -8 + ^
STACK CFI 114b1 $rbp: .cfa -16 + ^ .cfa: $rsp 16 +
STACK CFI 114b9 .cfa: $rbp 16 +
STACK CFI 114c1 $r12: .cfa -48 + ^ $r13: .cfa -40 + ^ $r14: .cfa -32 + ^ $r15: .cfa -24 + ^
STACK CFI 114c6 $rbx: .cfa -56 + ^
STACK CFI 1160f .cfa: $rsp 8 +
STACK CFI 11610 .cfa: $rbp 16 +
STACK CFI INIT 13630 343 .cfa: $rsp 8 + .ra: .cfa -8 + ^
STACK CFI 13632 $r15: .cfa -16 + ^ .cfa: $rsp 16 +
STACK CFI 13634 $r14: .cfa -24 + ^ .cfa: $rsp 24 +
STACK CFI 13639 $r13: .cfa -32 + ^ .cfa: $rsp 32 +
STACK CFI 1363b $r12: .cfa -40 + ^ .cfa: $rsp 40 +
STACK CFI 1363f $rbp: .cfa -48 + ^ .cfa: $rsp 48 +
STACK CFI 13640 $rbx: .cfa -56 + ^ .cfa: $rsp 56 +
STACK CFI 13647 .cfa: $rsp 240 +
STACK CFI 137d5 .cfa: $rsp 56 +
STACK CFI 137d6 .cfa: $rsp 48 +
STACK CFI 137d7 .cfa: $rsp 40 +
STACK CFI 137d9 .cfa: $rsp 32 +
STACK CFI 137db .cfa: $rsp 24 +
STACK CFI 137dd .cfa: $rsp 16 +
STACK CFI 137df .cfa: $rsp 8 +
STACK CFI 137e0 .cfa: $rsp 240 +
STACK CFI INIT 13980 496 .cfa: $rsp 8 + .ra: .cfa -8 + ^
STACK CFI 13982 $r15: .cfa -16 + ^ .cfa: $rsp 16 +
STACK CFI 13984 $r14: .cfa -24 + ^ .cfa: $rsp 24 +
STACK CFI 13989 $r13: .cfa -32 + ^ .cfa: $rsp 32 +
STACK CFI 1398b $r12: .cfa -40 + ^ .cfa: $rsp 40 +
STACK CFI 1398c $rbp: .cfa -48 + ^ .cfa: $rsp 48 +
STACK CFI 1398d $rbx: .cfa -56 + ^ .cfa: $rsp 56 +
STACK CFI 13996 .cfa: $rsp 544 +
STACK CFI 13bff .cfa: $rsp 56 +
STACK CFI 13c00 .cfa: $rsp 48 +
STACK CFI 13c01 .cfa: $rsp 40 +
STACK CFI 13c03 .cfa: $rsp 32 +
STACK CFI 13c05 .cfa: $rsp 24 +
STACK CFI 13c07 .cfa: $rsp 16 +
STACK CFI 13c09 .cfa: $rsp 8 +
STACK CFI 13c0a .cfa: $rsp 544 +
STACK CFI INIT 13e20 422 .cfa: $rsp 8 + .ra: .cfa -8 + ^
STACK CFI 13e22 $r15: .cfa -16 + ^ .cfa: $rsp 16 +
STACK CFI 13e24 $r14: .cfa -24 + ^ .cfa: $rsp 24 +
STACK CFI 13e29 $r13: .cfa -32 + ^ .cfa: $rsp 32 +
STACK CFI 13e2b $r12: .cfa -40 + ^ .cfa: $rsp 40 +
STACK CFI 13e2f $rbp: .cfa -48 + ^ .cfa: $rsp 48 +
STACK CFI 13e30 $rbx: .cfa -56 + ^ .cfa: $rsp 56 +
STACK CFI 13e3e .cfa: $rsp 480 +
STACK CFI 13ed0 .cfa: $rsp 56 +
STACK CFI 13ed1 .cfa: $rsp 48 +
STACK CFI 13ed2 .cfa: $rsp 40 +
STACK CFI 13ed4 .cfa: $rsp 32 +
STACK CFI 13ed6 .cfa: $rsp 24 +
STACK CFI 13ed8 .cfa: $rsp 16 +
STACK CFI 13eda .cfa: $rsp 8 +
STACK CFI 13ee0 .cfa: $rsp 480 +
STACK CFI INIT 14250 109 .cfa: $rsp 8 + .ra: .cfa -8 + ^
STACK CFI 14251 $rbp: .cfa -16 + ^ .cfa: $rsp 16 +
STACK CFI 14268 .cfa: $rbp 16 +
STACK CFI 1426f $r12: .cfa -40 + ^ $r13: .cfa -32 + ^ $r14: .cfa -24 + ^ $rbx: .cfa -48 + ^
STACK CFI 14316 .cfa: $rsp 8 +
STACK CFI 14317 .cfa: $rbp 16 +
STACK CFI INIT 14360 109 .cfa: $rsp 8 + .ra: .cfa -8 + ^
STACK CFI 14361 $rbp: .cfa -16 + ^ .cfa: $rsp 16 +
STACK CFI 14375 .cfa: $rbp 16 +
STACK CFI 1437c $r12: .cfa -40 + ^ $r13: .cfa -32 + ^ $r14: .cfa -24 + ^ $rbx: .cfa -48 + ^
STACK CFI 14426 .cfa: $rsp 8 +
STACK CFI 14427 .cfa: $rbp 16 +
STACK CFI INIT 14470 26 .cfa: $rsp 8 + .ra: .cfa -8 + ^
STACK CFI 14474 .cfa: $rsp 16 +
STACK CFI 14476 .cfa: $rsp 24 +
STACK CFI 14478 .cfa: $rsp 32 +
STACK CFI 14495 .cfa: $rsp 8 +
STACK CFI INIT 144a0 25 .cfa: $rsp 8 + .ra: .cfa -8 + ^
STACK CFI 144a4 .cfa: $rsp 16 +
STACK CFI 144a6 .cfa: $rsp 24 +
STACK CFI 144a8 .cfa: $rsp 32 +
STACK CFI 144c4 .cfa: $rsp 8 +
STACK CFI INIT 144d0 24 .cfa: $rsp 8 + .ra: .cfa -8 + ^
STACK CFI 144d4 .cfa: $rsp 16 +
STACK CFI 144d8 .cfa: $rsp 24 +
STACK CFI 144da .cfa: $rsp 32 +
STACK CFI 144f3 .cfa: $rsp 8 +
STACK CFI INIT 14500 23 .cfa: $rsp 8 + .ra: .cfa -8 + ^
STACK CFI 14504 .cfa: $rsp 16 +
STACK CFI 14508 .cfa: $rsp 24 +
STACK CFI 1450a .cfa: $rsp 32 +
STACK CFI 14522 .cfa: $rsp 8 +
STACK CFI INIT 14c40 23 .cfa: $rsp 8 + .ra: .cfa -8 + ^
STACK CFI 14c59 .cfa: $rsp 16 +
STACK CFI INIT 14c70 1a .cfa: $rsp 8 + .ra: .cfa -8 + ^
STACK CFI INIT 14c90 78 .cfa: $rsp 8 + .ra: .cfa -8 + ^
STACK CFI 14c92 $r12: .cfa -16 + ^ .cfa: $rsp 16 +
STACK CFI 14c93 $rbp: .cfa -24 + ^ .cfa: $rsp 24 +
STACK CFI 14c97 $rbx: .cfa -32 + ^ .cfa: $rsp 32 +
STACK CFI 14ccf .cfa: $rsp 24 +
STACK CFI 14cd0 .cfa: $rsp 16 +
STACK CFI 14cd2 .cfa: $rsp 8 +
STACK CFI 14cd8 .cfa: $rsp 32 +
STACK CFI 14ce5 .cfa: $rsp 24 +
STACK CFI 14ce6 .cfa: $rsp 16 +
STACK CFI 14ce8 .cfa: $rsp 8 +
STACK CFI 14ce9 .cfa: $rsp 32 +
STACK CFI INIT 14d10 2c .cfa: $rsp 8 + .ra: .cfa -8 + ^
STACK CFI 14d24 .cfa: $rsp 16 +
STACK CFI INIT 14d40 5d .cfa: $rsp 8 + .ra: .cfa -8 + ^
STACK CFI 14d42 $r12: .cfa -16 + ^ .cfa: $rsp 16 +
STACK CFI 14d46 $rbp: .cfa -24 + ^ .cfa: $rsp 24 +
STACK CFI 14d47 $rbx: .cfa -32 + ^ .cfa: $rsp 32 +
STACK CFI 14d8a .cfa: $rsp 24 +
STACK CFI 14d8b .cfa: $rsp 16 +
STACK CFI 14d8d .cfa: $rsp 8 +
STACK CFI 14d90 .cfa: $rsp 32 +
STACK CFI INIT 14da0 15 .cfa: $rsp 8 + .ra: .cfa -8 + ^
STACK CFI INIT 14dc0 b6 .cfa: $rsp 8 + .ra: .cfa -8 + ^
STACK CFI 14dc2 $r13: .cfa -16 + ^ .cfa: $rsp 16 +
STACK CFI 14dc4 $r12: .cfa -24 + ^ .cfa: $rsp 24 +
STACK CFI 14dc5 $rbp: .cfa -32 + ^ .cfa: $rsp 32 +
STACK CFI 14dc6 $rbx: .cfa -40 + ^ .cfa: $rsp 40 +
STACK CFI 14dca .cfa: $rsp 48 +
STACK CFI 14dfe .cfa: $rsp 40 +
STACK CFI 14dff .cfa: $rsp 32 +
STACK CFI 14e00 .cfa: $rsp 24 +
STACK CFI 14e02 .cfa: $rsp 16 +
STACK CFI 14e04 .cfa: $rsp 8 +
STACK CFI 14e08 .cfa: $rsp 48 +
STACK CFI INIT 14e80 ff .cfa: $rsp 8 + .ra: .cfa -8 + ^
STACK CFI 14e81 $rbp: .cfa -16 + ^ .cfa: $rsp 16 +
STACK CFI 14e82 $rbx: .cfa -24 + ^ .cfa: $rsp 24 +
STACK CFI 14e86 .cfa: $rsp 32 +
STACK CFI 14f09 .cfa: $rsp 24 +
STACK CFI 14f0a .cfa: $rsp 16 +
STACK CFI 14f0b .cfa: $rsp 8 +
STACK CFI 14f10 .cfa: $rsp 32 +
STACK CFI 14f1d .cfa: $rsp 24 +
STACK CFI 14f20 .cfa: $rsp 16 +
STACK CFI 14f21 .cfa: $rsp 8 +
STACK CFI 14f22 .cfa: $rsp 32 +
STACK CFI INIT 14f80 f0 .cfa: $rsp 8 + .ra: .cfa -8 + ^
STACK CFI 14f82 $r15: .cfa -16 + ^ .cfa: $rsp 16 +
STACK CFI 14f84 $r14: .cfa -24 + ^ .cfa: $rsp 24 +
STACK CFI 14f86 $r13: .cfa -32 + ^ .cfa: $rsp 32 +
STACK CFI 14f88 $r12: .cfa -40 + ^ .cfa: $rsp 40 +
STACK CFI 14f89 $rbp: .cfa -48 + ^ .cfa: $rsp 48 +
STACK CFI 14f8a $rbx: .cfa -56 + ^ .cfa: $rsp 56 +
STACK CFI 14f8e .cfa: $rsp 80 +
STACK CFI 1503a .cfa: $rsp 56 +
STACK CFI 1503b .cfa: $rsp 48 +
STACK CFI 1503c .cfa: $rsp 40 +
STACK CFI 1503e .cfa: $rsp 32 +
STACK CFI 15040 .cfa: $rsp 24 +
STACK CFI 15042 .cfa: $rsp 16 +
STACK CFI 15044 .cfa: $rsp 8 +
STACK CFI 15045 .cfa: $rsp 80 +
STACK CFI INIT 15070 ef .cfa: $rsp 8 + .ra: .cfa -8 + ^
STACK CFI 15072 $r15: .cfa -16 + ^ .cfa: $rsp 16 +
STACK CFI 15074 $r14: .cfa -24 + ^ .cfa: $rsp 24 +
STACK CFI 15076 $r13: .cfa -32 + ^ .cfa: $rsp 32 +
STACK CFI 15078 $r12: .cfa -40 + ^ .cfa: $rsp 40 +
STACK CFI 15079 $rbp: .cfa -48 + ^ .cfa: $rsp 48 +
STACK CFI 1507a $rbx: .cfa -56 + ^ .cfa: $rsp 56 +
STACK CFI 1507e .cfa: $rsp 80 +
STACK CFI 15129 .cfa: $rsp 56 +
STACK CFI 1512a .cfa: $rsp 48 +
STACK CFI 1512b .cfa: $rsp 40 +
STACK CFI 1512d .cfa: $rsp 32 +
STACK CFI 1512f .cfa: $rsp 24 +
STACK CFI 15131 .cfa: $rsp 16 +
STACK CFI 15133 .cfa: $rsp 8 +
STACK CFI 15134 .cfa: $rsp 80 +
STACK CFI INIT 15160 41 .cfa: $rsp 8 + .ra: .cfa -8 + ^
STACK CFI 15161 $rbx: .cfa -16 + ^ .cfa: $rsp 16 +
STACK CFI 15181 .cfa: $rsp 8 +
STACK CFI 15182 .cfa: $rsp 16 +
STACK CFI INIT 151b0 89 .cfa: $rsp 8 + .ra: .cfa -8 + ^
STACK CFI 151b4 .cfa: $rsp 16 +
STACK CFI 151d7 .cfa: $rsp 8 +
STACK CFI 151dc .cfa: $rsp 16 +
STACK CFI INIT 15240 df .cfa: $rsp 8 + .ra: .cfa -8 + ^
STACK CFI 15242 $r12: .cfa -16 + ^ .cfa: $rsp 16 +
STACK CFI 15243 $rbp: .cfa -24 + ^ .cfa: $rsp 24 +
STACK CFI 15244 $rbx: .cfa -32 + ^ .cfa: $rsp 32 +
STACK CFI 15248 .cfa: $rsp 64 +
STACK CFI 152a5 .cfa: $rsp 32 +
STACK CFI 152a6 .cfa: $rsp 24 +
STACK CFI 152a7 .cfa: $rsp 16 +
STACK CFI 152a9 .cfa: $rsp 8 +
STACK CFI 152b0 .cfa: $rsp 64 +
STACK CFI INIT 15340 23a .cfa: $rsp 8 + .ra: .cfa -8 + ^
STACK CFI 15342 $r15: .cfa -16 + ^ .cfa: $rsp 16 +
STACK CFI 15344 $r14: .cfa -24 + ^ .cfa: $rsp 24 +
STACK CFI 15346 $r13: .cfa -32 + ^ .cfa: $rsp 32 +
STACK CFI 15348 $r12: .cfa -40 + ^ .cfa: $rsp 40 +
STACK CFI 15349 $rbp: .cfa -48 + ^ .cfa: $rsp 48 +
STACK CFI 1534a $rbx: .cfa -56 + ^ .cfa: $rsp 56 +
STACK CFI 1534e .cfa: $rsp 128 +
STACK CFI 15445 .cfa: $rsp 56 +
STACK CFI 15446 .cfa: $rsp 48 +
STACK CFI 15447 .cfa: $rsp 40 +
STACK CFI 15449 .cfa: $rsp 32 +
STACK CFI 1544b .cfa: $rsp 24 +
STACK CFI 1544d .cfa: $rsp 16 +
STACK CFI 1544f .cfa: $rsp 8 +
STACK CFI 15450 .cfa: $rsp 128 +
STACK CFI INIT 15320 5 .cfa: $rsp 8 + .ra: .cfa -8 + ^
STACK CFI INIT 15580 23a .cfa: $rsp 8 + .ra: .cfa -8 + ^
STACK CFI 15582 $r15: .cfa -16 + ^ .cfa: $rsp 16 +
STACK CFI 15584 $r14: .cfa -24 + ^ .cfa: $rsp 24 +
STACK CFI 15586 $r13: .cfa -32 + ^ .cfa: $rsp 32 +
STACK CFI 15588 $r12: .cfa -40 + ^ .cfa: $rsp 40 +
STACK CFI 15589 $rbp: .cfa -48 + ^ .cfa: $rsp 48 +
STACK CFI 1558a $rbx: .cfa -56 + ^ .cfa: $rsp 56 +
STACK CFI 1558e .cfa: $rsp 128 +
STACK CFI 1567c .cfa: $rsp 56 +
STACK CFI 1567d .cfa: $rsp 48 +
STACK CFI 1567e .cfa: $rsp 40 +
STACK CFI 15680 .cfa: $rsp 32 +
STACK CFI 15682 .cfa: $rsp 24 +
STACK CFI 15684 .cfa: $rsp 16 +
STACK CFI 15686 .cfa: $rsp 8 +
STACK CFI 15690 .cfa: $rsp 128 +
STACK CFI INIT 15330 5 .cfa: $rsp 8 + .ra: .cfa -8 + ^
STACK CFI INIT 157c0 c2 .cfa: $rsp 8 + .ra: .cfa -8 + ^
STACK CFI 157c2 $r12: .cfa -16 + ^ .cfa: $rsp 16 +
STACK CFI 157c3 $rbp: .cfa -24 + ^ .cfa: $rsp 24 +
STACK CFI 157c7 $rbx: .cfa -32 + ^ .cfa: $rsp 32 +
STACK CFI 157ce .cfa: $rsp 48 +
STACK CFI 1583a .cfa: $rsp 32 +
STACK CFI 1583b .cfa: $rsp 24 +
STACK CFI 1583c .cfa: $rsp 16 +
STACK CFI 1583e .cfa: $rsp 8 +
STACK CFI 15840 .cfa: $rsp 48 +
STACK CFI INIT 15890 b1 .cfa: $rsp 8 + .ra: .cfa -8 + ^
STACK CFI 15892 $r15: .cfa -16 + ^ .cfa: $rsp 16 +
STACK CFI 15894 $r14: .cfa -24 + ^ .cfa: $rsp 24 +
STACK CFI 15898 $r13: .cfa -32 + ^ .cfa: $rsp 32 +
STACK CFI 1589a $r12: .cfa -40 + ^ .cfa: $rsp 40 +
STACK CFI 1589e $rbp: .cfa -48 + ^ .cfa: $rsp 48 +
STACK CFI 1589f $rbx: .cfa -56 + ^ .cfa: $rsp 56 +
STACK CFI 158b2 .cfa: $rsp 96 +
STACK CFI 15929 .cfa: $rsp 56 +
STACK CFI 1592a .cfa: $rsp 48 +
STACK CFI 1592b .cfa: $rsp 40 +
STACK CFI 1592d .cfa: $rsp 32 +
STACK CFI 1592f .cfa: $rsp 24 +
STACK CFI 15931 .cfa: $rsp 16 +
STACK CFI 15933 .cfa: $rsp 8 +
STACK CFI 15938 .cfa: $rsp 96 +
STACK CFI INIT 15950 7b .cfa: $rsp 8 + .ra: .cfa -8 + ^
STACK CFI 15951 $rbx: .cfa -16 + ^ .cfa: $rsp 16 +
STACK CFI 1595d .cfa: $rsp 64 +
STACK CFI 159c4 .cfa: $rsp 16 +
STACK CFI 159c5 .cfa: $rsp 8 +
STACK CFI 159c6 .cfa: $rsp 64 +
STACK CFI INIT 159d0 173 .cfa: $rsp 8 + .ra: .cfa -8 + ^
STACK CFI 159d2 $r14: .cfa -16 + ^ .cfa: $rsp 16 +
STACK CFI 159d4 $r13: .cfa -24 + ^ .cfa: $rsp 24 +
STACK CFI 159d6 $r12: .cfa -32 + ^ .cfa: $rsp 32 +
STACK CFI 159d7 $rbp: .cfa -40 + ^ .cfa: $rsp 40 +
STACK CFI 159da $rbx: .cfa -48 + ^ .cfa: $rsp 48 +
STACK CFI 159e4 .cfa: $rsp 80 +
STACK CFI 15aef .cfa: $rsp 48 +
STACK CFI 15af0 .cfa: $rsp 40 +
STACK CFI 15af1 .cfa: $rsp 32 +
STACK CFI 15af3 .cfa: $rsp 24 +
STACK CFI 15af5 .cfa: $rsp 16 +
STACK CFI 15af7 .cfa: $rsp 8 +
STACK CFI 15b00 .cfa: $rsp 80 +
STACK CFI INIT 15d30 2bd .cfa: $rsp 8 + .ra: .cfa -8 + ^
STACK CFI 15d3b $r15: .cfa -16 + ^ .cfa: $rsp 16 +
STACK CFI 15d3d $r14: .cfa -24 + ^ .cfa: $rsp 24 +
STACK CFI 15d42 $r13: .cfa -32 + ^ .cfa: $rsp 32 +
STACK CFI 15d44 $r12: .cfa -40 + ^ .cfa: $rsp 40 +
STACK CFI 15d45 $rbp: .cfa -48 + ^ .cfa: $rsp 48 +
STACK CFI 15d46 $rbx: .cfa -56 + ^ .cfa: $rsp 56 +
STACK CFI 15d50 .cfa: $rsp 80 +
STACK CFI 15dd1 .cfa: $rsp 56 +
STACK CFI 15dd2 $rbx: $rbx .cfa: $rsp 48 +
STACK CFI 15dd3 $rbp: $rbp .cfa: $rsp 40 +
STACK CFI 15dd5 $r12: $r12 .cfa: $rsp 32 +
STACK CFI 15dd7 $r13: $r13 .cfa: $rsp 24 +
STACK CFI 15dd9 $r14: $r14 .cfa: $rsp 16 +
STACK CFI 15ddb $r15: $r15 .cfa: $rsp 8 +
STACK CFI 15de0 $r12: .cfa -40 + ^ $r13: .cfa -32 + ^ $r14: .cfa -24 + ^ $r15: .cfa -16 + ^ $rbp: .cfa -48 + ^ $rbx: .cfa -56 + ^ .cfa: $rsp 80 +
STACK CFI 15e31 .cfa: $rsp 56 +
STACK CFI 15e32 $rbx: $rbx .cfa: $rsp 48 +
STACK CFI 15e33 $rbp: $rbp .cfa: $rsp 40 +
STACK CFI 15e35 $r12: $r12 .cfa: $rsp 32 +
STACK CFI 15e37 $r13: $r13 .cfa: $rsp 24 +
STACK CFI 15e39 $r14: $r14 .cfa: $rsp 16 +
STACK CFI 15e3b $r15: $r15 .cfa: $rsp 8 +
STACK CFI 15e40 $r12: .cfa -40 + ^ $r13: .cfa -32 + ^ $r14: .cfa -24 + ^ $r15: .cfa -16 + ^ $rbp: .cfa -48 + ^ $rbx: .cfa -56 + ^ .cfa: $rsp 80 +
STACK CFI 15f5e .cfa: $rsp 56 +
STACK CFI 15f5f $rbx: $rbx .cfa: $rsp 48 +
STACK CFI 15f60 $rbp: $rbp .cfa: $rsp 40 +
STACK CFI 15f62 $r12: $r12 .cfa: $rsp 32 +
STACK CFI 15f64 $r13: $r13 .cfa: $rsp 24 +
STACK CFI 15f66 $r14: $r14 .cfa: $rsp 16 +
STACK CFI 15f68 $r15: $r15 .cfa: $rsp 8 +
STACK CFI 15f70 $r12: .cfa -40 + ^ $r13: .cfa -32 + ^ $r14: .cfa -24 + ^ $r15: .cfa -16 + ^ $rbp: .cfa -48 + ^ $rbx: .cfa -56 + ^ .cfa: $rsp 80 +
STACK CFI INIT 15ff0 14d .cfa: $rsp 8 + .ra: .cfa -8 + ^
STACK CFI 1603a $r15: .cfa -16 + ^ .cfa: $rsp 16 +
STACK CFI 1603c $r14: .cfa -24 + ^ .cfa: $rsp 24 +
STACK CFI 1603e $r13: .cfa -32 + ^ .cfa: $rsp 32 +
STACK CFI 16040 $r12: .cfa -40 + ^ .cfa: $rsp 40 +
STACK CFI 16041 $rbp: .cfa -48 + ^ .cfa: $rsp 48 +
STACK CFI 16042 $rbx: .cfa -56 + ^ .cfa: $rsp 56 +
STACK CFI 1604c .cfa: $rsp 64 +
STACK CFI 16109 .cfa: $rsp 56 +
STACK CFI 1610a $rbx: $rbx .cfa: $rsp 48 +
STACK CFI 1610b $rbp: $rbp .cfa: $rsp 40 +
STACK CFI 1610d $r12: $r12 .cfa: $rsp 32 +
STACK CFI 1610f $r13: $r13 .cfa: $rsp 24 +
STACK CFI 16111 $r14: $r14 .cfa: $rsp 16 +
STACK CFI 16113 $r15: $r15 .cfa: $rsp 8 +
STACK CFI 16118 $r12: .cfa -40 + ^ $r13: .cfa -32 + ^ $r14: .cfa -24 + ^ $r15: .cfa -16 + ^ $rbp: .cfa -48 + ^ $rbx: .cfa -56 + ^ .cfa: $rsp 64 +
STACK CFI INIT 15b50 f0 .cfa: $rsp 8 + .ra: .cfa -8 + ^
STACK CFI 15b52 $r12: .cfa -16 + ^ .cfa: $rsp 16 +
STACK CFI 15b53 $rbp: .cfa -24 + ^ .cfa: $rsp 24 +
STACK CFI 15b57 $rbx: .cfa -32 + ^ .cfa: $rsp 32 +
STACK CFI 15b5e .cfa: $rsp 64 +
STACK CFI 15c0d .cfa: $rsp 32 +
STACK CFI 15c0e .cfa: $rsp 24 +
STACK CFI 15c0f .cfa: $rsp 16 +
STACK CFI 15c11 .cfa: $rsp 8 +
STACK CFI 15c18 .cfa: $rsp 64 +
STACK CFI INIT 15c40 e8 .cfa: $rsp 8 + .ra: .cfa -8 + ^
STACK CFI 15c42 $r12: .cfa -16 + ^ .cfa: $rsp 16 +
STACK CFI 15c43 $rbp: .cfa -24 + ^ .cfa: $rsp 24 +
STACK CFI 15c47 $rbx: .cfa -32 + ^ .cfa: $rsp 32 +
STACK CFI 15c4e .cfa: $rsp 64 +
STACK CFI 15cfb .cfa: $rsp 32 +
STACK CFI 15cfc .cfa: $rsp 24 +
STACK CFI 15cfd .cfa: $rsp 16 +
STACK CFI 15cff .cfa: $rsp 8 +
STACK CFI 15d00 .cfa: $rsp 64 +
STACK CFI INIT 16140 1f .cfa: $rsp 8 + .ra: .cfa -8 + ^
STACK CFI 1614b .cfa: $rsp 16 +
STACK CFI 1615e .cfa: $rsp 8 +
STACK CFI INIT 16160 5 .cfa: $rsp 8 + .ra: .cfa -8 + ^
STACK CFI INIT 16170 452 .cfa: $rsp 8 + .ra: .cfa -8 + ^
STACK CFI 16172 $r15: .cfa -16 + ^ .cfa: $rsp 16 +
STACK CFI 16174 $r14: .cfa -24 + ^ .cfa: $rsp 24 +
STACK CFI 16176 $r13: .cfa -32 + ^ .cfa: $rsp 32 +
STACK CFI 16178 $r12: .cfa -40 + ^ .cfa: $rsp 40 +
STACK CFI 16179 $rbp: .cfa -48 + ^ .cfa: $rsp 48 +
STACK CFI 1617a $rbx: .cfa -56 + ^ .cfa: $rsp 56 +
STACK CFI 1617e .cfa: $rsp 96 +
STACK CFI 161c7 .cfa: $rsp 56 +
STACK CFI 161ca .cfa: $rsp 48 +
STACK CFI 161cb .cfa: $rsp 40 +
STACK CFI 161cd .cfa: $rsp 32 +
STACK CFI 161cf .cfa: $rsp 24 +
STACK CFI 161d1 .cfa: $rsp 16 +
STACK CFI 161d3 .cfa: $rsp 8 +
STACK CFI 161d8 .cfa: $rsp 96 +
STACK CFI 162fe .cfa: $rsp 56 +
STACK CFI 162ff .cfa: $rsp 48 +
STACK CFI 16300 .cfa: $rsp 40 +
STACK CFI 16302 .cfa: $rsp 32 +
STACK CFI 16304 .cfa: $rsp 24 +
STACK CFI 16306 .cfa: $rsp 16 +
STACK CFI 16308 .cfa: $rsp 8 +
STACK CFI 16310 .cfa: $rsp 96 +
STACK CFI INIT 165d0 287 .cfa: $rsp 8 + .ra: .cfa -8 + ^
STACK CFI 165d5 $r14: .cfa -16 + ^ .cfa: $rsp 16 +
STACK CFI 165d7 $r13: .cfa -24 + ^ .cfa: $rsp 24 +
STACK CFI 165d9 $r12: .cfa -32 + ^ .cfa: $rsp 32 +
STACK CFI 165da $rbp: .cfa -40 + ^ .cfa: $rsp 40 +
STACK CFI 165db $rbx: .cfa -48 + ^ .cfa: $rsp 48 +
STACK CFI 1661a .cfa: $rsp 40 +
STACK CFI 1661d .cfa: $rsp 32 +
STACK CFI 1661f .cfa: $rsp 24 +
STACK CFI 16621 .cfa: $rsp 16 +
STACK CFI 16623 .cfa: $rsp 8 +
STACK CFI 16628 .cfa: $rsp 48 +
STACK CFI 166c9 .cfa: $rsp 40 +
STACK CFI 166ca .cfa: $rsp 32 +
STACK CFI 166cc .cfa: $rsp 24 +
STACK CFI 166ce .cfa: $rsp 16 +
STACK CFI 166d0 .cfa: $rsp 8 +
STACK CFI 166d8 .cfa: $rsp 48 +
STACK CFI INIT 16860 135 .cfa: $rsp 8 + .ra: .cfa -8 + ^
STACK CFI 16862 $r15: .cfa -16 + ^ .cfa: $rsp 16 +
STACK CFI 16864 $r14: .cfa -24 + ^ .cfa: $rsp 24 +
STACK CFI 16866 $r13: .cfa -32 + ^ .cfa: $rsp 32 +
STACK CFI 16868 $r12: .cfa -40 + ^ .cfa: $rsp 40 +
STACK CFI 1686c $rbp: .cfa -48 + ^ .cfa: $rsp 48 +
STACK CFI 1686d $rbx: .cfa -56 + ^ .cfa: $rsp 56 +
STACK CFI 16871 .cfa: $rsp 96 +
STACK CFI 1695e .cfa: $rsp 56 +
STACK CFI 1695f .cfa: $rsp 48 +
STACK CFI 16960 .cfa: $rsp 40 +
STACK CFI 16962 .cfa: $rsp 32 +
STACK CFI 16964 .cfa: $rsp 24 +
STACK CFI 16966 .cfa: $rsp 16 +
STACK CFI 16968 .cfa: $rsp 8 +
STACK CFI 16969 .cfa: $rsp 96 +
STACK CFI INIT 169a0 e2 .cfa: $rsp 8 + .ra: .cfa -8 + ^
STACK CFI 169a2 $r13: .cfa -16 + ^ .cfa: $rsp 16 +
STACK CFI 169a4 $r12: .cfa -24 + ^ .cfa: $rsp 24 +
STACK CFI 169a5 $rbp: .cfa -32 + ^ .cfa: $rsp 32 +
STACK CFI 169a6 $rbx: .cfa -40 + ^ .cfa: $rsp 40 +
STACK CFI 169ae .cfa: $rsp 64 +
STACK CFI 16a10 .cfa: $rsp 40 +
STACK CFI 16a11 .cfa: $rsp 32 +
STACK CFI 16a12 .cfa: $rsp 24 +
STACK CFI 16a14 .cfa: $rsp 16 +
STACK CFI 16a16 .cfa: $rsp 8 +
STACK CFI 16a20 .cfa: $rsp 64 +
STACK CFI INIT 16a90 c7 .cfa: $rsp 8 + .ra: .cfa -8 + ^
STACK CFI 16a91 $rbx: .cfa -16 + ^ .cfa: $rsp 16 +
STACK CFI 16a98 .cfa: $rsp 48 +
STACK CFI 16b27 .cfa: $rsp 16 +
STACK CFI 16b28 .cfa: $rsp 8 +
STACK CFI 16b30 .cfa: $rsp 48 +
STACK CFI INIT 16b60 49 .cfa: $rsp 8 + .ra: .cfa -8 + ^
STACK CFI 16b61 $rbx: .cfa -16 + ^ .cfa: $rsp 16 +
STACK CFI 16b68 .cfa: $rsp 32 +
STACK CFI 16b9f .cfa: $rsp 16 +
STACK CFI 16ba3 .cfa: $rsp 8 +
STACK CFI 16ba4 .cfa: $rsp 32 +
STACK CFI INIT 16bb0 462 .cfa: $rsp 8 + .ra: .cfa -8 + ^
STACK CFI 16bb2 $r15: .cfa -16 + ^ .cfa: $rsp 16 +
STACK CFI 16bb4 $r14: .cfa -24 + ^ .cfa: $rsp 24 +
STACK CFI 16bb9 $r13: .cfa -32 + ^ .cfa: $rsp 32 +
STACK CFI 16bbb $r12: .cfa -40 + ^ .cfa: $rsp 40 +
STACK CFI 16bbc $rbp: .cfa -48 + ^ .cfa: $rsp 48 +
STACK CFI 16bbd $rbx: .cfa -56 + ^ .cfa: $rsp 56 +
STACK CFI 16bc9 .cfa: $rsp 144 +
STACK CFI 16c7f .cfa: $rsp 56 +
STACK CFI 16c80 .cfa: $rsp 48 +
STACK CFI 16c81 .cfa: $rsp 40 +
STACK CFI 16c83 .cfa: $rsp 32 +
STACK CFI 16c85 .cfa: $rsp 24 +
STACK CFI 16c87 .cfa: $rsp 16 +
STACK CFI 16c89 .cfa: $rsp 8 +
STACK CFI 16c90 .cfa: $rsp 144 +
STACK CFI 16d29 .cfa: $rsp 152 +
STACK CFI 16d2f .cfa: $rsp 160 +
STACK CFI 16d46 .cfa: $rsp 152 +
STACK CFI 16d4c .cfa: $rsp 144 +
STACK CFI INIT 17020 7c .cfa: $rsp 8 + .ra: .cfa -8 + ^
STACK CFI 17021 $rbp: .cfa -16 + ^ .cfa: $rsp 16 +
STACK CFI 17022 $rbx: .cfa -24 + ^ .cfa: $rsp 24 +
STACK CFI 1702b .cfa: $rsp 64 +
STACK CFI 1707a .cfa: $rsp 24 +
STACK CFI 1707b .cfa: $rsp 16 +
STACK CFI 1707c .cfa: $rsp 8 +
STACK CFI 17080 .cfa: $rsp 64 +
STACK CFI INIT 171a0 16 .cfa: $rsp 8 + .ra: .cfa -8 + ^
STACK CFI 171a4 .cfa: $rsp 16 +
STACK CFI 171af .cfa: $rsp 8 +
STACK CFI INIT 170a0 73 .cfa: $rsp 8 + .ra: .cfa -8 + ^
STACK CFI 170a1 $rbx: .cfa -16 + ^ .cfa: $rsp 16 +
STACK CFI 17112 .cfa: $rsp 8 +
STACK CFI INIT 17120 75 .cfa: $rsp 8 + .ra: .cfa -8 + ^
STACK CFI 17124 $rbx: .cfa -16 + ^ .cfa: $rsp 16 +
STACK CFI 17143 .cfa: $rsp 24 +
STACK CFI 17147 .cfa: $rsp 32 +
STACK CFI 1714c .cfa: $rsp 40 +
STACK CFI 17151 .cfa: $rsp 48 +
STACK CFI 17162 .cfa: $rsp 16 +
STACK CFI 17175 .cfa: $rsp 8 +
STACK CFI 17176 .cfa: $rsp 16 +
STACK CFI INIT 171c0 1e .cfa: $rsp 8 + .ra: .cfa -8 + ^
STACK CFI INIT 171e0 46 .cfa: $rsp 8 + .ra: .cfa -8 + ^
STACK CFI INIT 17230 56 .cfa: $rsp 8 + .ra: .cfa -8 + ^
STACK CFI INIT 17290 4c .cfa: $rsp 8 + .ra: .cfa -8 + ^
STACK CFI INIT 172e0 39 .cfa: $rsp 8 + .ra: .cfa -8 + ^
STACK CFI INIT 17320 3c .cfa: $rsp 8 + .ra: .cfa -8 + ^
STACK CFI INIT 17360 34 .cfa: $rsp 8 + .ra: .cfa -8 + ^
STACK CFI INIT 173a0 26 .cfa: $rsp 8 + .ra: .cfa -8 + ^
STACK CFI INIT 173d0 34 .cfa: $rsp 8 + .ra: .cfa -8 + ^
STACK CFI INIT 17410 7c .cfa: $rsp 8 + .ra: .cfa -8 + ^
STACK CFI INIT 17490 3a .cfa: $rsp 8 + .ra: .cfa -8 + ^
STACK CFI INIT 174d0 1f .cfa: $rsp 8 + .ra: .cfa -8 + ^
STACK CFI INIT 174f0 38 .cfa: $rsp 8 + .ra: .cfa -8 + ^
STACK CFI INIT 17530 3b .cfa: $rsp 8 + .ra: .cfa -8 + ^
STACK CFI 17536 $rbx: .cfa -16 + ^ .cfa: $rsp 16 +
STACK CFI 17553 $rbx: $rbx .cfa: $rsp 8 +
STACK CFI 17558 $rbx: .cfa -16 + ^ .cfa: $rsp 16 +
STACK CFI 17567 $rbx: $rbx .cfa: $rsp 8 +
STACK CFI INIT 17570 6c .cfa: $rsp 8 + .ra: .cfa -8 + ^
STACK CFI 17574 .cfa: $rsp 32 +
STACK CFI 175c8 .cfa: $rsp 8 +
STACK CFI 175d0 .cfa: $rsp 32 +
STACK CFI INIT 175e0 10 .cfa: $rsp 8 + .ra: .cfa -8 + ^
STACK CFI INIT 175f0 4b .cfa: $rsp 8 + .ra: .cfa -8 + ^
STACK CFI 175f1 $rbp: .cfa -16 + ^ .cfa: $rsp 16 +
STACK CFI 175f2 $rbx: .cfa -24 + ^ .cfa: $rsp 24 +
STACK CFI 175f9 .cfa: $rsp 32 +
STACK CFI 1762c .cfa: $rsp 24 +
STACK CFI 1762d .cfa: $rsp 16 +
STACK CFI 1762e .cfa: $rsp 8 +
STACK CFI 17630 .cfa: $rsp 32 +
STACK CFI INIT 17640 5 .cfa: $rsp 8 + .ra: .cfa -8 + ^
STACK CFI INIT 17650 1af .cfa: $rsp 8 + .ra: .cfa -8 + ^
STACK CFI 17652 $r15: .cfa -16 + ^ .cfa: $rsp 16 +
STACK CFI 17654 $r14: .cfa -24 + ^ .cfa: $rsp 24 +
STACK CFI 17656 $r13: .cfa -32 + ^ .cfa: $rsp 32 +
STACK CFI 17658 $r12: .cfa -40 + ^ .cfa: $rsp 40 +
STACK CFI 1765c $rbp: .cfa -48 + ^ .cfa: $rsp 48 +
STACK CFI 1765d $rbx: .cfa -56 + ^ .cfa: $rsp 56 +
STACK CFI 1766c .cfa: $rsp 224 +
STACK CFI 1775d .cfa: $rsp 56 +
STACK CFI 1775e .cfa: $rsp 48 +
STACK CFI 1775f .cfa: $rsp 40 +
STACK CFI 17761 .cfa: $rsp 32 +
STACK CFI 17763 .cfa: $rsp 24 +
STACK CFI 17765 .cfa: $rsp 16 +
STACK CFI 17767 .cfa: $rsp 8 +
STACK CFI 17770 .cfa: $rsp 224 +
STACK CFI INIT 17800 14 .cfa: $rsp 8 + .ra: .cfa -8 + ^
STACK CFI INIT 17820 40 .cfa: $rsp 8 + .ra: .cfa -8 + ^
STACK CFI 17826 $rbx: .cfa -16 + ^ .cfa: $rsp 16 +
STACK CFI 17841 .cfa: $rsp 8 +
STACK CFI 17848 .cfa: $rsp 16 +
STACK CFI 1785f .cfa: $rsp 8 +
STACK CFI INIT 17860 2 .cfa: $rsp 8 + .ra: .cfa -8 + ^
STACK CFI INIT 17870 213 .cfa: $rsp 8 + .ra: .cfa -8 + ^
STACK CFI 17872 $r15: .cfa -16 + ^ .cfa: $rsp 16 +
STACK CFI 17874 $r14: .cfa -24 + ^ .cfa: $rsp 24 +
STACK CFI 1787b $r13: .cfa -32 + ^ .cfa: $rsp 32 +
STACK CFI 1787d $r12: .cfa -40 + ^ .cfa: $rsp 40 +
STACK CFI 1787e $rbp: .cfa -48 + ^ .cfa: $rsp 48 +
STACK CFI 1787f $rbx: .cfa -56 + ^ .cfa: $rsp 56 +
STACK CFI 17889 .cfa: $rsp 208 +
STACK CFI 17a17 .cfa: $rsp 56 +
STACK CFI 17a18 .cfa: $rsp 48 +
STACK CFI 17a19 .cfa: $rsp 40 +
STACK CFI 17a1b .cfa: $rsp 32 +
STACK CFI 17a1d .cfa: $rsp 24 +
STACK CFI 17a1f .cfa: $rsp 16 +
STACK CFI 17a21 .cfa: $rsp 8 +
STACK CFI 17a28 .cfa: $rsp 208 +
STACK CFI INIT 17a90 5 .cfa: $rsp 8 + .ra: .cfa -8 + ^
STACK CFI INIT 17aa0 23 .cfa: $rsp 8 + .ra: .cfa -8 + ^
STACK CFI 17aa5 $rbx: .cfa -16 + ^ .cfa: $rsp 16 +
STACK CFI 17abf $rbx: $rbx .cfa: $rsp 8 +
STACK CFI INIT 17ad0 8 .cfa: $rsp 8 + .ra: .cfa -8 + ^
STACK CFI INIT 17ae0 2fc .cfa: $rsp 8 + .ra: .cfa -8 + ^
STACK CFI INIT 17de0 44 .cfa: $rsp 8 + .ra: .cfa -8 + ^
STACK CFI 17e0c .cfa: $rsp 16 +
STACK CFI INIT 17e30 47 .cfa: $rsp 8 + .ra: .cfa -8 + ^
STACK CFI 17e5f .cfa: $rsp 16 +
STACK CFI INIT 17e80 8 .cfa: $rsp 8 + .ra: .cfa -8 + ^
STACK CFI INIT 17e90 8 .cfa: $rsp 8 + .ra: .cfa -8 + ^
STACK CFI INIT 17ea0 25c .cfa: $rsp 8 + .ra: .cfa -8 + ^
STACK CFI INIT 18100 c7 .cfa: $rsp 8 + .ra: .cfa -8 + ^
STACK CFI INIT 181d0 fd .cfa: $rsp 8 + .ra: .cfa -8 + ^
STACK CFI 181d1 $rbp: .cfa -16 + ^ .cfa: $rsp 16 +
STACK CFI 181d2 $rbx: .cfa -24 + ^ .cfa: $rsp 24 +
STACK CFI 18259 .cfa: $rsp 16 +
STACK CFI 1825a .cfa: $rsp 8 +
STACK CFI 18260 .cfa: $rsp 24 +
STACK CFI 182ba .cfa: $rsp 16 +
STACK CFI 182bb .cfa: $rsp 8 +
STACK CFI 182bc .cfa: $rsp 24 +
STACK CFI INIT 182d0 118 .cfa: $rsp 8 + .ra: .cfa -8 + ^
STACK CFI 182d5 $r14: .cfa -16 + ^ .cfa: $rsp 16 +
STACK CFI 182d7 $r13: .cfa -24 + ^ .cfa: $rsp 24 +
STACK CFI 182dc $r12: .cfa -32 + ^ .cfa: $rsp 32 +
STACK CFI 182dd $rbp: .cfa -40 + ^ .cfa: $rsp 40 +
STACK CFI 182e1 $rbx: .cfa -48 + ^ .cfa: $rsp 48 +
STACK CFI 18376 .cfa: $rsp 40 +
STACK CFI 18382 .cfa: $rsp 32 +
STACK CFI 18384 .cfa: $rsp 24 +
STACK CFI 18386 .cfa: $rsp 16 +
STACK CFI 18388 .cfa: $rsp 8 +
STACK CFI 18390 .cfa: $rsp 48 +
STACK CFI 183af .cfa: $rsp 40 +
STACK CFI 183b8 .cfa: $rsp 32 +
STACK CFI 183ba .cfa: $rsp 24 +
STACK CFI 183bc .cfa: $rsp 16 +
STACK CFI 183be .cfa: $rsp 8 +
STACK CFI 183c0 .cfa: $rsp 48 +
STACK CFI 183c1 .cfa: $rsp 40 +
STACK CFI 183cd .cfa: $rsp 32 +
STACK CFI 183cf .cfa: $rsp 24 +
STACK CFI 183d1 .cfa: $rsp 16 +
STACK CFI 183d3 .cfa: $rsp 8 +
STACK CFI 183d4 .cfa: $rsp 48 +
STACK CFI 183d5 .cfa: $rsp 40 +
STACK CFI 183e1 .cfa: $rsp 32 +
STACK CFI 183e3 .cfa: $rsp 24 +
STACK CFI 183e5 .cfa: $rsp 16 +
STACK CFI 183e7 .cfa: $rsp 8 +
STACK CFI INIT 183f0 1ff .cfa: $rsp 8 + .ra: .cfa -8 + ^
STACK CFI 183f2 $r13: .cfa -16 + ^ .cfa: $rsp 16 +
STACK CFI 183f4 $r12: .cfa -24 + ^ .cfa: $rsp 24 +
STACK CFI 183f5 $rbp: .cfa -32 + ^ .cfa: $rsp 32 +
STACK CFI 183f6 $rbx: .cfa -40 + ^ .cfa: $rsp 40 +
STACK CFI 18512 .cfa: $rsp 32 +
STACK CFI 18513 .cfa: $rsp 24 +
STACK CFI 18518 .cfa: $rsp 16 +
STACK CFI 1851a .cfa: $rsp 8 +
STACK CFI 18520 .cfa: $rsp 40 +
STACK CFI 18535 .cfa: $rsp 32 +
STACK CFI 18536 .cfa: $rsp 24 +
STACK CFI 18538 .cfa: $rsp 16 +
STACK CFI 1853a .cfa: $rsp 8 +
STACK CFI 18540 .cfa: $rsp 40 +
STACK CFI 18565 .cfa: $rsp 32 +
STACK CFI 18566 .cfa: $rsp 24 +
STACK CFI 18568 .cfa: $rsp 16 +
STACK CFI 1856a .cfa: $rsp 8 +
STACK CFI 18570 .cfa: $rsp 40 +
STACK CFI 18599 .cfa: $rsp 32 +
STACK CFI 1859a .cfa: $rsp 24 +
STACK CFI 1859c .cfa: $rsp 16 +
STACK CFI 1859e .cfa: $rsp 8 +
STACK CFI 1859f .cfa: $rsp 40 +
STACK CFI INIT 185f0 2b .cfa: $rsp 8 + .ra: .cfa -8 + ^
STACK CFI INIT 18620 26f .cfa: $rsp 8 + .ra: .cfa -8 + ^
STACK CFI 18622 $r15: .cfa -16 + ^ .cfa: $rsp 16 +
STACK CFI 18624 $r14: .cfa -24 + ^ .cfa: $rsp 24 +
STACK CFI 18626 $r13: .cfa -32 + ^ .cfa: $rsp 32 +
STACK CFI 18628 $r12: .cfa -40 + ^ .cfa: $rsp 40 +
STACK CFI 18629 $rbp: .cfa -48 + ^ .cfa: $rsp 48 +
STACK CFI 1862a $rbx: .cfa -56 + ^ .cfa: $rsp 56 +
STACK CFI 1862e .cfa: $rsp 80 +
STACK CFI 1877f .cfa: $rsp 56 +
STACK CFI 18780 .cfa: $rsp 48 +
STACK CFI 18781 .cfa: $rsp 40 +
STACK CFI 18783 .cfa: $rsp 32 +
STACK CFI 18785 .cfa: $rsp 24 +
STACK CFI 18787 .cfa: $rsp 16 +
STACK CFI 18789 .cfa: $rsp 8 +
STACK CFI 18790 .cfa: $rsp 80 +
STACK CFI INIT 18890 19a .cfa: $rsp 8 + .ra: .cfa -8 + ^
STACK CFI 18892 $r13: .cfa -16 + ^ .cfa: $rsp 16 +
STACK CFI 18894 $r12: .cfa -24 + ^ .cfa: $rsp 24 +
STACK CFI 18897 $rbp: .cfa -32 + ^ .cfa: $rsp 32 +
STACK CFI 18898 $rbx: .cfa -40 + ^ .cfa: $rsp 40 +
STACK CFI 1897d .cfa: $rsp 32 +
STACK CFI 1897e .cfa: $rsp 24 +
STACK CFI 18980 .cfa: $rsp 16 +
STACK CFI 18982 .cfa: $rsp 8 +
STACK CFI 18988 .cfa: $rsp 40 +
STACK CFI 18a0c .cfa: $rsp 32 +
STACK CFI 18a0d .cfa: $rsp 24 +
STACK CFI 18a0f .cfa: $rsp 16 +
STACK CFI 18a11 .cfa: $rsp 8 +
STACK CFI 18a12 .cfa: $rsp 40 +
STACK CFI INIT 18a30 287 .cfa: $rsp 8 + .ra: .cfa -8 + ^
STACK CFI 18a32 $r15: .cfa -16 + ^ .cfa: $rsp 16 +
STACK CFI 18a34 $r14: .cfa -24 + ^ .cfa: $rsp 24 +
STACK CFI 18a36 $r13: .cfa -32 + ^ .cfa: $rsp 32 +
STACK CFI 18a38 $r12: .cfa -40 + ^ .cfa: $rsp 40 +
STACK CFI 18a39 $rbp: .cfa -48 + ^ .cfa: $rsp 48 +
STACK CFI 18a3a $rbx: .cfa -56 + ^ .cfa: $rsp 56 +
STACK CFI 18a3e .cfa: $rsp 88 +
STACK CFI 18bc5 .cfa: $rsp 56 +
STACK CFI 18bc6 .cfa: $rsp 48 +
STACK CFI 18bc7 .cfa: $rsp 40 +
STACK CFI 18bc9 .cfa: $rsp 32 +
STACK CFI 18bcb .cfa: $rsp 24 +
STACK CFI 18bcd .cfa: $rsp 16 +
STACK CFI 18bcf .cfa: $rsp 8 +
STACK CFI 18bd0 .cfa: $rsp 88 +
STACK CFI INIT 18cc0 65 .cfa: $rsp 8 + .ra: .cfa -8 + ^
STACK CFI 18cc2 $r15: .cfa -16 + ^ .cfa: $rsp 16 +
STACK CFI 18cc4 $r14: .cfa -24 + ^ .cfa: $rsp 24 +
STACK CFI 18cc9 $r13: .cfa -32 + ^ .cfa: $rsp 32 +
STACK CFI 18ccb $r12: .cfa -40 + ^ .cfa: $rsp 40 +
STACK CFI 18cd3 $rbp: .cfa -48 + ^ .cfa: $rsp 48 +
STACK CFI 18cdb $rbx: .cfa -56 + ^ .cfa: $rsp 56 +
STACK CFI 18ce8 .cfa: $rsp 64 +
STACK CFI 18d1a .cfa: $rsp 56 +
STACK CFI 18d1b .cfa: $rsp 48 +
STACK CFI 18d1c .cfa: $rsp 40 +
STACK CFI 18d1e .cfa: $rsp 32 +
STACK CFI 18d20 .cfa: $rsp 24 +
STACK CFI 18d22 .cfa: $rsp 16 +
STACK CFI 18d24 .cfa: $rsp 8 +
STACK CFI INIT 18d30 2 .cfa: $rsp 8 + .ra: .cfa -8 + ^
