MODULE Linux x86_64 47A27496A36DE84B1418912EAA805D120 submarine_internal
INFO CODE_ID 9674A2476DA34BE81418912EAA805D12E6448850
FUNC 1980 4a 0 google_breakpad::PageAllocator::FreeAll()
FUNC 19ca 20 0 google_breakpad::ProcCpuInfoReader::GetValueAndLen(unsigned long*)
FUNC 19ea 20 0 google_breakpad::TypedMDRVA<MDRawDirectory>::CopyIndex(unsigned int, MDRawDirectory*)
FUNC 1a0a 1d 0 google_breakpad::TypedMDRVA<MDRawDirectory>::CopyIndex(unsigned int, MDRawDirectory*)
FUNC 1a28 20 0 google_breakpad::TypedMDRVA<unsigned int>::CopyIndexAfterObject(unsigned int, void const*, unsigned long)
FUNC 1a48 20 0 MinidumpWriter::MinidumpWriter
FUNC 1a68 2c 0 MinidumpWriter::~MinidumpWriter
FUNC 1a94 1ec 0 MinidumpWriter::WriteFile
FUNC 1c80 67 0 MinidumpWriter::WriteProcFile
FUNC 1de6 17 0 dumpCallback
FUNC 1dfd 1cc 0 _EQUAL()
FUNC 1fc9 1cc 0 _0()
FUNC 2195 1cc 0 _1()
FUNC 2361 1cc 0 _2()
FUNC 252d 1cc 0 _3()
FUNC 26f9 1cc 0 _4()
FUNC 28c5 1cc 0 _5()
FUNC 2a91 1cc 0 _6()
FUNC 2c5d 1cc 0 _7()
FUNC 2e29 1cc 0 _8()
FUNC 2ff5 1cc 0 _9()
FUNC 31c1 1cc 0 _A()
FUNC 338d 1cc 0 _B()
FUNC 3559 1cc 0 _C()
FUNC 3725 1cc 0 _D()
FUNC 38f1 1cc 0 _E()
FUNC 3abd 1cc 0 _F()
FUNC 3c89 1cc 0 _G()
FUNC 3e55 1cc 0 _H()
FUNC 4021 1cc 0 _I()
FUNC 41ed 1cc 0 _J()
FUNC 43b9 1cc 0 _K()
FUNC 4585 1cc 0 _L()
FUNC 4751 1cc 0 _M()
FUNC 491d 1cc 0 _N()
FUNC 4ae9 1cc 0 _O()
FUNC 4cb5 1cc 0 _P()
FUNC 4e81 1cc 0 _Q()
FUNC 504d 1cc 0 _R()
FUNC 5219 1cc 0 _S()
FUNC 53e5 1cc 0 _T()
FUNC 55b1 1cc 0 _U()
FUNC 577d 1cc 0 _V()
FUNC 5949 1cc 0 _W()
FUNC 5b15 1cc 0 _X()
FUNC 5ce1 1cc 0 _Y()
FUNC 5ead 1cc 0 _Z()
FUNC 6079 1cc 0 _a()
FUNC 6245 1cc 0 _b()
FUNC 6411 1cc 0 _c()
FUNC 65dd 1cc 0 _d()
FUNC 67a9 1cc 0 _e()
FUNC 6975 1cc 0 _f()
FUNC 6b41 1cc 0 _g()
FUNC 6d0d 1cc 0 _h()
FUNC 6ed9 1cc 0 _i()
FUNC 70a5 1cc 0 _j()
FUNC 7271 1cc 0 _k()
FUNC 743d 1cc 0 _l()
FUNC 7609 1cc 0 _m()
FUNC 77d5 1cc 0 _n()
FUNC 79a1 1cc 0 _o()
FUNC 7b6d 1cc 0 _p()
FUNC 7d39 1cc 0 _q()
FUNC 7f05 1cc 0 _r()
FUNC 80d1 1cc 0 _s()
FUNC 829d 1cc 0 _t()
FUNC 8469 1cc 0 _u()
FUNC 8635 1cc 0 _v()
FUNC 8801 1cc 0 _w()
FUNC 89cd 1cc 0 _x()
FUNC 8b99 1cc 0 _y()
FUNC 8d65 1cc 0 _z()
FUNC 8f31 1cc 0 StartFlagProcessing()
FUNC 90fd 7 0 Execute()
FUNC 9104 133 0 main
FUNC 9238 3a 0 google_breakpad::MicrodumpExtraInfo::MicrodumpExtraInfo()
FUNC 9272 8d 0 google_breakpad::MinidumpDescriptor::MinidumpDescriptor(int)
FUNC 9300 2f 0 google_breakpad::MinidumpDescriptor::~MinidumpDescriptor()
FUNC 9330 14b 0 google_breakpad::ExceptionHandler::InstallHandlersLocked()
FUNC 9480 7c 0 google_breakpad::ExceptionHandler::RestoreHandlersLocked()
FUNC 9500 341 0 google_breakpad::ExceptionHandler::~ExceptionHandler()
FUNC 9850 d1 0 google_breakpad::ExceptionHandler::SendContinueSignalToChild()
FUNC 9930 4bc 0 google_breakpad::ExceptionHandler::GenerateDump(google_breakpad::ExceptionHandler::CrashContext*)
FUNC 9df0 1da 0 google_breakpad::ExceptionHandler::HandleSignal(int, siginfo_t*, void*)
FUNC 9fd0 1c1 0 google_breakpad::ExceptionHandler::SignalHandler(int, siginfo_t*, void*)
FUNC a1a0 7f 0 google_breakpad::ExceptionHandler::SimulateSignalDelivery(int)
FUNC a220 e5 0 google_breakpad::ExceptionHandler::WaitForContinueSignal()
FUNC a310 8b 0 google_breakpad::ExceptionHandler::DoDump(int, void const*, unsigned long)
FUNC a3a0 28 0 google_breakpad::ExceptionHandler::ThreadEntry(void*)
FUNC a3d0 195 0 google_breakpad::ExceptionHandler::WriteMinidump()
FUNC a570 e3 0 google_breakpad::ExceptionHandler::AddMappingInfo(std::__cxx11::basic_string<char, std::char_traits<char>, std::allocator<char> > const&, unsigned char const*, unsigned long, unsigned long, unsigned long)
FUNC a660 91 0 google_breakpad::ExceptionHandler::RegisterAppMemory(void*, unsigned long)
FUNC a700 52 0 google_breakpad::ExceptionHandler::UnregisterAppMemory(void*)
FUNC a760 23d 0 google_breakpad::ExceptionHandler::WriteMinidumpForChild(int, int, std::__cxx11::basic_string<char, std::char_traits<char>, std::allocator<char> > const&, bool (*)(google_breakpad::MinidumpDescriptor const&, void*, bool), void*)
FUNC a9a0 396 0 google_breakpad::ExceptionHandler::ExceptionHandler(google_breakpad::MinidumpDescriptor const&, bool (*)(void*), bool (*)(google_breakpad::MinidumpDescriptor const&, void*, bool), void*, bool, int)
FUNC ad40 27d 0 google_breakpad::ExceptionHandler::WriteMinidump(std::__cxx11::basic_string<char, std::char_traits<char>, std::allocator<char> > const&, bool (*)(google_breakpad::MinidumpDescriptor const&, void*, bool), void*)
FUNC afc0 ea 0 void std::vector<google_breakpad::ExceptionHandler*, std::allocator<google_breakpad::ExceptionHandler*> >::_M_emplace_back_aux<google_breakpad::ExceptionHandler*>(google_breakpad::ExceptionHandler*&&)
FUNC b0b0 c2 0 void std::__cxx11::basic_string<char, std::char_traits<char>, std::allocator<char> >::_M_construct<char*>(char*, char*, std::forward_iterator_tag)
FUNC b180 a4 0 google_breakpad::MinidumpDescriptor::MinidumpDescriptor(google_breakpad::MinidumpDescriptor const&)
FUNC b230 317 0 google_breakpad::MinidumpDescriptor::UpdatePath()
FUNC b550 a2 0 google_breakpad::MinidumpDescriptor::operator=(google_breakpad::MinidumpDescriptor const&)
FUNC b600 33 0 logger::write(char const*, unsigned long)
FUNC b640 1ab5 0 google_breakpad::WriteMicrodump(int, void const*, unsigned long, std::__cxx11::list<google_breakpad::MappingEntry, std::allocator<google_breakpad::MappingEntry> > const&, google_breakpad::MicrodumpExtraInfo const&)
FUNC d100 3ea 0 void std::vector<unsigned char, google_breakpad::PageStdAllocator<unsigned char> >::_M_range_insert<unsigned char const*>(__gnu_cxx::__normal_iterator<unsigned char*, std::vector<unsigned char, google_breakpad::PageStdAllocator<unsigned char> > >, unsigned char const*, unsigned char const*, std::forward_iterator_tag)
FUNC d4f0 6 0 google_breakpad::LinuxDumper::LateInit()
FUNC d500 835 0 google_breakpad::LinuxDumper::LinuxDumper(int, char const*)
FUNC dd40 67 0 google_breakpad::LinuxDumper::~LinuxDumper()
FUNC ddb0 12 0 google_breakpad::LinuxDumper::~LinuxDumper()
FUNC ddd0 4a 0 google_breakpad::LinuxDumper::GetMappingAbsolutePath(google_breakpad::MappingInfo const&, char*) const
FUNC de20 19f 0 ElfFileSoName
FUNC dfc0 1a7 0 google_breakpad::LinuxDumper::HandleDeletedFileInMapping(char*) const
FUNC e170 e6 0 google_breakpad::LinuxDumper::GetMappingEffectiveNameAndPath(google_breakpad::MappingInfo const&, char*, unsigned long, char*, unsigned long)
FUNC e260 119 0 google_breakpad::LinuxDumper::ReadAuxv()
FUNC e380 32 0 google_breakpad::LinuxDumper::Init()
FUNC e3c0 4b 0 google_breakpad::LinuxDumper::FindMapping(void const*) const
FUNC e410 7d 0 google_breakpad::LinuxDumper::GetStackInfo(void const**, unsigned long*, unsigned long)
FUNC e490 53 0 google_breakpad::LinuxDumper::HandleDeletedFileInMapping(char*) const
FUNC e4f0 34b 0 google_breakpad::LinuxDumper::ElfFileIdentifierForMapping(google_breakpad::MappingInfo const&, bool, unsigned int, google_breakpad::wasteful_vector<unsigned char>&)
FUNC e840 930 0 google_breakpad::LinuxDumper::EnumerateMappings()
FUNC f170 143 0 google_breakpad::PageAllocator::Alloc(unsigned long)
FUNC f2c0 288 0 std::vector<google_breakpad::MappingInfo*, google_breakpad::PageStdAllocator<google_breakpad::MappingInfo*> >::_M_default_append(unsigned long)
FUNC f550 3 0 google_breakpad::LinuxPtraceDumper::IsPostMortem() const
FUNC f560 187 0 google_breakpad::LinuxPtraceDumper::CopyFromProcess(void*, int, void const*, unsigned long)
FUNC f6f0 bb 0 google_breakpad::LinuxPtraceDumper::BuildProcPath(char*, int, char const*) const
FUNC f7b0 bc 0 google_breakpad::LinuxPtraceDumper::ThreadsResume()
FUNC f870 5fd 0 google_breakpad::LinuxPtraceDumper::EnumerateThreads()
FUNC fe70 51d 0 google_breakpad::LinuxPtraceDumper::GetThreadInfoByIndex(unsigned long, google_breakpad::ThreadInfo*)
FUNC 10390 27 0 google_breakpad::LinuxPtraceDumper::LinuxPtraceDumper(int)
FUNC 103c0 251 0 google_breakpad::LinuxPtraceDumper::ThreadsSuspend()
FUNC 10620 13 0 google_breakpad::LinuxPtraceDumper::~LinuxPtraceDumper()
FUNC 10640 20 0 google_breakpad::LinuxPtraceDumper::~LinuxPtraceDumper()
FUNC 10660 288 0 std::vector<int, google_breakpad::PageStdAllocator<int> >::_M_default_append(unsigned long)
FUNC 108f0 e0e 0 MinidumpWriter::WriteThreadListStream
FUNC 11700 21d9 0 MinidumpWriter::Dump
FUNC 138e0 343 0 google_breakpad::WriteMinidump(char const*, std::__cxx11::list<google_breakpad::MappingEntry, std::allocator<google_breakpad::MappingEntry> > const&, std::__cxx11::list<google_breakpad::AppMemory, std::allocator<google_breakpad::AppMemory> > const&, google_breakpad::LinuxDumper*)
FUNC 13c30 496 0 google_breakpad::WriteMinidump(char const*, int, int)
FUNC 140d0 422 0 WriteMinidumpImpl
FUNC 14500 109 0 google_breakpad::WriteMinidump(char const*, int, void const*, unsigned long)
FUNC 14610 109 0 google_breakpad::WriteMinidump(int, int, void const*, unsigned long)
FUNC 14720 26 0 google_breakpad::WriteMinidump(char const*, int, void const*, unsigned long, std::__cxx11::list<google_breakpad::MappingEntry, std::allocator<google_breakpad::MappingEntry> > const&, std::__cxx11::list<google_breakpad::AppMemory, std::allocator<google_breakpad::AppMemory> > const&)
FUNC 14750 25 0 google_breakpad::WriteMinidump(int, int, void const*, unsigned long, std::__cxx11::list<google_breakpad::MappingEntry, std::allocator<google_breakpad::MappingEntry> > const&, std::__cxx11::list<google_breakpad::AppMemory, std::allocator<google_breakpad::AppMemory> > const&)
FUNC 14780 24 0 google_breakpad::WriteMinidump(char const*, long, int, void const*, unsigned long, std::__cxx11::list<google_breakpad::MappingEntry, std::allocator<google_breakpad::MappingEntry> > const&, std::__cxx11::list<google_breakpad::AppMemory, std::allocator<google_breakpad::AppMemory> > const&)
FUNC 147b0 23 0 google_breakpad::WriteMinidump(int, long, int, void const*, unsigned long, std::__cxx11::list<google_breakpad::MappingEntry, std::allocator<google_breakpad::MappingEntry> > const&, std::__cxx11::list<google_breakpad::AppMemory, std::allocator<google_breakpad::AppMemory> > const&)
FUNC 147e0 259 0 google_breakpad::ProcCpuInfoReader::GetNextField(char const**)
FUNC 14a40 257 0 std::vector<char, google_breakpad::PageStdAllocator<char> >::resize(unsigned long)
FUNC 14ca0 250 0 void std::vector<MDMemoryDescriptor, google_breakpad::PageStdAllocator<MDMemoryDescriptor> >::_M_emplace_back_aux<MDMemoryDescriptor const&>(MDMemoryDescriptor const&)
FUNC 14ef0 23 0 google_breakpad::TypedMDRVA<MDString>::CopyIndexAfterObject(unsigned int, void const*, unsigned long)
FUNC 14f20 1a 0 google_breakpad::MinidumpFileWriter::MinidumpFileWriter()
FUNC 14f40 78 0 google_breakpad::MinidumpFileWriter::Open(char const*)
FUNC 14fc0 2c 0 google_breakpad::MinidumpFileWriter::SetFile(int)
FUNC 14ff0 5d 0 google_breakpad::MinidumpFileWriter::Close()
FUNC 15050 15 0 google_breakpad::MinidumpFileWriter::~MinidumpFileWriter()
FUNC 15070 b6 0 google_breakpad::MinidumpFileWriter::Allocate(unsigned long)
FUNC 15130 ff 0 google_breakpad::MinidumpFileWriter::Copy(unsigned int, void const*, long)
FUNC 15230 f0 0 google_breakpad::MinidumpFileWriter::CopyStringToMDString(wchar_t const*, unsigned int, google_breakpad::TypedMDRVA<MDString>*)
FUNC 15320 ef 0 google_breakpad::MinidumpFileWriter::CopyStringToMDString(char const*, unsigned int, google_breakpad::TypedMDRVA<MDString>*)
FUNC 15410 41 0 google_breakpad::UntypedMDRVA::Allocate(unsigned long)
FUNC 15460 89 0 google_breakpad::UntypedMDRVA::Copy(unsigned int, void const*, unsigned long)
FUNC 154f0 df 0 google_breakpad::MinidumpFileWriter::WriteMemory(void const*, unsigned long, MDMemoryDescriptor*)
FUNC 155d0 5 0 google_breakpad::MinidumpFileWriter::WriteString(wchar_t const*, unsigned int, MDLocationDescriptor*)
FUNC 155e0 5 0 google_breakpad::MinidumpFileWriter::WriteString(char const*, unsigned int, MDLocationDescriptor*)
FUNC 155f0 23a 0 bool google_breakpad::MinidumpFileWriter::WriteStringCore<wchar_t>(wchar_t const*, unsigned int, MDLocationDescriptor*)
FUNC 15830 23a 0 bool google_breakpad::MinidumpFileWriter::WriteStringCore<char>(char const*, unsigned int, MDLocationDescriptor*)
FUNC 15a70 c2 0 void std::__cxx11::basic_string<char, std::char_traits<char>, std::allocator<char> >::_M_construct<char const*>(char const*, char const*, std::forward_iterator_tag)
FUNC 15b40 b1 0 google_breakpad::UTF8ToUTF16Char(char const*, int, unsigned short*)
FUNC 15c00 7b 0 google_breakpad::UTF32ToUTF16Char(wchar_t, unsigned short*)
FUNC 15c80 173 0 google_breakpad::UTF16ToUTF8[abi:cxx11](std::vector<unsigned short, std::allocator<unsigned short> > const&, bool)
FUNC 15e00 f0 0 google_breakpad::UTF32ToUTF16(wchar_t const*, std::vector<unsigned short, std::allocator<unsigned short> >*)
FUNC 15ef0 e8 0 google_breakpad::UTF8ToUTF16(char const*, std::vector<unsigned short, std::allocator<unsigned short> >*)
FUNC 15fe0 2bd 0 std::vector<unsigned short, std::allocator<unsigned short> >::_M_fill_insert(__gnu_cxx::__normal_iterator<unsigned short*, std::vector<unsigned short, std::allocator<unsigned short> > >, unsigned long, unsigned short const&)
FUNC 162a0 14d 0 std::vector<unsigned short, std::allocator<unsigned short> >::_M_default_append(unsigned long)
FUNC 163f0 1f 0 google_breakpad::IsValidElf(void const*)
FUNC 16410 5 0 google_breakpad::ElfClass(void const*)
FUNC 16420 452 0 google_breakpad::FindElfSection(void const*, char const*, unsigned int, void const**, unsigned long*, int*)
FUNC 16880 287 0 google_breakpad::FindElfSegment(void const*, unsigned int, void const**, unsigned long*, int*)
FUNC 16b10 135 0 google_breakpad::bytes_to_hex_string
FUNC 16c50 e2 0 google_breakpad::FileID::FileID(char const*)
FUNC 16d40 c7 0 google_breakpad::FileID::ConvertIdentifierToUUIDString[abi:cxx11](google_breakpad::wasteful_vector<unsigned char> const&)
FUNC 16e10 49 0 google_breakpad::FileID::ConvertIdentifierToString[abi:cxx11](google_breakpad::wasteful_vector<unsigned char> const&)
FUNC 16e60 462 0 google_breakpad::FileID::ElfFileIdentifierFromMappedFile(void const*, google_breakpad::wasteful_vector<unsigned char>&)
FUNC 172d0 7c 0 google_breakpad::FileID::ElfFileIdentifier(google_breakpad::wasteful_vector<unsigned char>&)
FUNC 17350 73 0 CreateGUID(MDGUID*)
FUNC 173d0 75 0 GUIDToString(MDGUID const*, char*, int)
FUNC 17450 16 0 GUIDGenerator::InitOnceImpl()
FUNC 17470 1e 0 my_strlen
FUNC 17490 46 0 my_strcmp
FUNC 174e0 56 0 my_strncmp
FUNC 17540 4c 0 my_strtoui
FUNC 17590 39 0 my_uint_len
FUNC 175d0 3c 0 my_uitos
FUNC 17610 34 0 my_strchr
FUNC 17650 26 0 my_strrchr
FUNC 17680 34 0 my_memchr
FUNC 176c0 7c 0 my_read_hex_ptr
FUNC 17740 3a 0 my_read_decimal_ptr
FUNC 17780 1f 0 my_memset
FUNC 177a0 38 0 my_strlcpy
FUNC 177e0 3b 0 my_strlcat
FUNC 17820 6c 0 my_isspace
FUNC 17890 10 0 google_breakpad::MemoryMappedFile::MemoryMappedFile()
FUNC 178a0 4b 0 google_breakpad::MemoryMappedFile::Unmap()
FUNC 178f0 5 0 google_breakpad::MemoryMappedFile::~MemoryMappedFile()
FUNC 17900 1af 0 google_breakpad::MemoryMappedFile::Map(char const*, unsigned long)
FUNC 17ab0 14 0 google_breakpad::MemoryMappedFile::MemoryMappedFile(char const*, unsigned long)
FUNC 17ad0 40 0 google_breakpad::SafeReadLink(char const*, char*, unsigned long)
FUNC 17b10 2 0 CrashGenerationClientImpl::~CrashGenerationClientImpl
FUNC 17b20 213 0 CrashGenerationClientImpl::RequestDump
FUNC 17d40 5 0 CrashGenerationClientImpl::~CrashGenerationClientImpl
FUNC 17d50 23 0 google_breakpad::CrashGenerationClient::TryCreate(int)
FUNC 17d80 8 0 google_breakpad::ThreadInfo::GetInstructionPointer() const
FUNC 17d90 2fc 0 google_breakpad::ThreadInfo::FillCPUContext(MDRawContextAMD64*) const
FUNC 18090 44 0 google_breakpad::ThreadInfo::GetGeneralPurposeRegisters(void**, unsigned long*)
FUNC 180e0 47 0 google_breakpad::ThreadInfo::GetFloatingPointRegisters(void**, unsigned long*)
FUNC 18130 8 0 google_breakpad::UContextReader::GetStackPointer(ucontext const*)
FUNC 18140 8 0 google_breakpad::UContextReader::GetInstructionPointer(ucontext const*)
FUNC 18150 25c 0 google_breakpad::UContextReader::FillCPUContext(MDRawContextAMD64*, ucontext const*, _libc_fpstate const*)
FUNC 183b0 c7 0 isLegalUTF8
FUNC 18480 fd 0 ConvertUTF32toUTF16
FUNC 18580 118 0 ConvertUTF16toUTF32
FUNC 186a0 1ff 0 ConvertUTF16toUTF8
FUNC 188a0 2b 0 isLegalUTF8Sequence
FUNC 188d0 26f 0 ConvertUTF8toUTF16
FUNC 18b40 19a 0 ConvertUTF32toUTF8
FUNC 18ce0 287 0 ConvertUTF8toUTF32
PUBLIC 15c8 0 _init
PUBLIC 1980 0 google_breakpad::PageAllocator::FreeAll() [clone .isra.7]
PUBLIC 19ca 0 google_breakpad::ProcCpuInfoReader::GetValueAndLen(unsigned long*) [clone .isra.20] [clone .part.21]
PUBLIC 19ea 0 google_breakpad::TypedMDRVA<MDRawDirectory>::CopyIndex(unsigned int, MDRawDirectory*) [clone .isra.32] [clone .part.33]
PUBLIC 1a0a 0 google_breakpad::TypedMDRVA<MDRawDirectory>::CopyIndex(unsigned int, MDRawDirectory*) [clone .isra.32]
PUBLIC 1a28 0 google_breakpad::TypedMDRVA<unsigned int>::CopyIndexAfterObject(unsigned int, void const*, unsigned long) [clone .isra.34] [clone .part.35]
PUBLIC 1a48 0 (anonymous namespace)::MinidumpWriter::MinidumpWriter(char const*, int, google_breakpad::ExceptionHandler::CrashContext const*, std::__cxx11::list<google_breakpad::MappingEntry, std::allocator<google_breakpad::MappingEntry> > const&, std::__cxx11::list<google_breakpad::AppMemory, std::allocator<google_breakpad::AppMemory> > const&, google_breakpad::LinuxDumper*) [clone .part.93]
PUBLIC 1a68 0 (anonymous namespace)::MinidumpWriter::~MinidumpWriter() [clone .constprop.119]
PUBLIC 1a94 0 (anonymous namespace)::MinidumpWriter::WriteFile(MDLocationDescriptor*, char const*) [clone .constprop.116]
PUBLIC 1c80 0 (anonymous namespace)::MinidumpWriter::WriteProcFile(MDLocationDescriptor*, int, char const*) [clone .constprop.115]
PUBLIC 1cf0 0 _start
PUBLIC 1d20 0 deregister_tm_clones
PUBLIC 1d60 0 register_tm_clones
PUBLIC 1da0 0 __do_global_dtors_aux
PUBLIC 1dc0 0 frame_dummy
PUBLIC 1de6 0 dumpCallback(google_breakpad::MinidumpDescriptor const&, void*, bool)
PUBLIC 1dfd 0 _EQUAL()
PUBLIC 1fc9 0 _0()
PUBLIC 2195 0 _1()
PUBLIC 2361 0 _2()
PUBLIC 252d 0 _3()
PUBLIC 26f9 0 _4()
PUBLIC 28c5 0 _5()
PUBLIC 2a91 0 _6()
PUBLIC 2c5d 0 _7()
PUBLIC 2e29 0 _8()
PUBLIC 2ff5 0 _9()
PUBLIC 31c1 0 _A()
PUBLIC 338d 0 _B()
PUBLIC 3559 0 _C()
PUBLIC 3725 0 _D()
PUBLIC 38f1 0 _E()
PUBLIC 3abd 0 _F()
PUBLIC 3c89 0 _G()
PUBLIC 3e55 0 _H()
PUBLIC 4021 0 _I()
PUBLIC 41ed 0 _J()
PUBLIC 43b9 0 _K()
PUBLIC 4585 0 _L()
PUBLIC 4751 0 _M()
PUBLIC 491d 0 _N()
PUBLIC 4ae9 0 _O()
PUBLIC 4cb5 0 _P()
PUBLIC 4e81 0 _Q()
PUBLIC 504d 0 _R()
PUBLIC 5219 0 _S()
PUBLIC 53e5 0 _T()
PUBLIC 55b1 0 _U()
PUBLIC 577d 0 _V()
PUBLIC 5949 0 _W()
PUBLIC 5b15 0 _X()
PUBLIC 5ce1 0 _Y()
PUBLIC 5ead 0 _Z()
PUBLIC 6079 0 _a()
PUBLIC 6245 0 _b()
PUBLIC 6411 0 _c()
PUBLIC 65dd 0 _d()
PUBLIC 67a9 0 _e()
PUBLIC 6975 0 _f()
PUBLIC 6b41 0 _g()
PUBLIC 6d0d 0 _h()
PUBLIC 6ed9 0 _i()
PUBLIC 70a5 0 _j()
PUBLIC 7271 0 _k()
PUBLIC 743d 0 _l()
PUBLIC 7609 0 _m()
PUBLIC 77d5 0 _n()
PUBLIC 79a1 0 _o()
PUBLIC 7b6d 0 _p()
PUBLIC 7d39 0 _q()
PUBLIC 7f05 0 _r()
PUBLIC 80d1 0 _s()
PUBLIC 829d 0 _t()
PUBLIC 8469 0 _u()
PUBLIC 8635 0 _v()
PUBLIC 8801 0 _w()
PUBLIC 89cd 0 _x()
PUBLIC 8b99 0 _y()
PUBLIC 8d65 0 _z()
PUBLIC 8f31 0 StartFlagProcessing()
PUBLIC 90fd 0 Execute()
PUBLIC 9104 0 main
PUBLIC 9238 0 google_breakpad::MicrodumpExtraInfo::MicrodumpExtraInfo()
PUBLIC 9272 0 google_breakpad::MinidumpDescriptor::MinidumpDescriptor(int)
PUBLIC 9300 0 google_breakpad::MinidumpDescriptor::~MinidumpDescriptor()
PUBLIC 9330 0 google_breakpad::ExceptionHandler::InstallHandlersLocked()
PUBLIC 9480 0 google_breakpad::ExceptionHandler::RestoreHandlersLocked()
PUBLIC 9500 0 google_breakpad::ExceptionHandler::~ExceptionHandler()
PUBLIC 9850 0 google_breakpad::ExceptionHandler::SendContinueSignalToChild()
PUBLIC 9930 0 google_breakpad::ExceptionHandler::GenerateDump(google_breakpad::ExceptionHandler::CrashContext*)
PUBLIC 9df0 0 google_breakpad::ExceptionHandler::HandleSignal(int, siginfo_t*, void*)
PUBLIC 9fd0 0 google_breakpad::ExceptionHandler::SignalHandler(int, siginfo_t*, void*)
PUBLIC a1a0 0 google_breakpad::ExceptionHandler::SimulateSignalDelivery(int)
PUBLIC a220 0 google_breakpad::ExceptionHandler::WaitForContinueSignal()
PUBLIC a310 0 google_breakpad::ExceptionHandler::DoDump(int, void const*, unsigned long)
PUBLIC a3a0 0 google_breakpad::ExceptionHandler::ThreadEntry(void*)
PUBLIC a3d0 0 google_breakpad::ExceptionHandler::WriteMinidump()
PUBLIC a570 0 google_breakpad::ExceptionHandler::AddMappingInfo(std::__cxx11::basic_string<char, std::char_traits<char>, std::allocator<char> > const&, unsigned char const*, unsigned long, unsigned long, unsigned long)
PUBLIC a660 0 google_breakpad::ExceptionHandler::RegisterAppMemory(void*, unsigned long)
PUBLIC a700 0 google_breakpad::ExceptionHandler::UnregisterAppMemory(void*)
PUBLIC a760 0 google_breakpad::ExceptionHandler::WriteMinidumpForChild(int, int, std::__cxx11::basic_string<char, std::char_traits<char>, std::allocator<char> > const&, bool (*)(google_breakpad::MinidumpDescriptor const&, void*, bool), void*)
PUBLIC a9a0 0 google_breakpad::ExceptionHandler::ExceptionHandler(google_breakpad::MinidumpDescriptor const&, bool (*)(void*), bool (*)(google_breakpad::MinidumpDescriptor const&, void*, bool), void*, bool, int)
PUBLIC ad40 0 google_breakpad::ExceptionHandler::WriteMinidump(std::__cxx11::basic_string<char, std::char_traits<char>, std::allocator<char> > const&, bool (*)(google_breakpad::MinidumpDescriptor const&, void*, bool), void*)
PUBLIC afc0 0 void std::vector<google_breakpad::ExceptionHandler*, std::allocator<google_breakpad::ExceptionHandler*> >::_M_emplace_back_aux<google_breakpad::ExceptionHandler*>(google_breakpad::ExceptionHandler*&&)
PUBLIC b0b0 0 void std::__cxx11::basic_string<char, std::char_traits<char>, std::allocator<char> >::_M_construct<char*>(char*, char*, std::forward_iterator_tag) [clone .isra.16]
PUBLIC b180 0 google_breakpad::MinidumpDescriptor::MinidumpDescriptor(google_breakpad::MinidumpDescriptor const&)
PUBLIC b230 0 google_breakpad::MinidumpDescriptor::UpdatePath()
PUBLIC b550 0 google_breakpad::MinidumpDescriptor::operator=(google_breakpad::MinidumpDescriptor const&)
PUBLIC b600 0 logger::write(char const*, unsigned long)
PUBLIC b640 0 google_breakpad::WriteMicrodump(int, void const*, unsigned long, std::__cxx11::list<google_breakpad::MappingEntry, std::allocator<google_breakpad::MappingEntry> > const&, google_breakpad::MicrodumpExtraInfo const&)
PUBLIC d100 0 void std::vector<unsigned char, google_breakpad::PageStdAllocator<unsigned char> >::_M_range_insert<unsigned char const*>(__gnu_cxx::__normal_iterator<unsigned char*, std::vector<unsigned char, google_breakpad::PageStdAllocator<unsigned char> > >, unsigned char const*, unsigned char const*, std::forward_iterator_tag)
PUBLIC d4f0 0 google_breakpad::LinuxDumper::LateInit()
PUBLIC d500 0 google_breakpad::LinuxDumper::LinuxDumper(int, char const*)
PUBLIC dd40 0 google_breakpad::LinuxDumper::~LinuxDumper()
PUBLIC ddb0 0 google_breakpad::LinuxDumper::~LinuxDumper()
PUBLIC ddd0 0 google_breakpad::LinuxDumper::GetMappingAbsolutePath(google_breakpad::MappingInfo const&, char*) const
PUBLIC de20 0 google_breakpad::(anonymous namespace)::ElfFileSoName(google_breakpad::LinuxDumper const&, google_breakpad::MappingInfo const&, char*, unsigned long) [clone .constprop.56]
PUBLIC dfc0 0 google_breakpad::LinuxDumper::HandleDeletedFileInMapping(char*) const [clone .part.10] [clone .constprop.57]
PUBLIC e170 0 google_breakpad::LinuxDumper::GetMappingEffectiveNameAndPath(google_breakpad::MappingInfo const&, char*, unsigned long, char*, unsigned long)
PUBLIC e260 0 google_breakpad::LinuxDumper::ReadAuxv()
PUBLIC e380 0 google_breakpad::LinuxDumper::Init()
PUBLIC e3c0 0 google_breakpad::LinuxDumper::FindMapping(void const*) const
PUBLIC e410 0 google_breakpad::LinuxDumper::GetStackInfo(void const**, unsigned long*, unsigned long)
PUBLIC e490 0 google_breakpad::LinuxDumper::HandleDeletedFileInMapping(char*) const
PUBLIC e4f0 0 google_breakpad::LinuxDumper::ElfFileIdentifierForMapping(google_breakpad::MappingInfo const&, bool, unsigned int, google_breakpad::wasteful_vector<unsigned char>&)
PUBLIC e840 0 google_breakpad::LinuxDumper::EnumerateMappings()
PUBLIC f170 0 google_breakpad::PageAllocator::Alloc(unsigned long)
PUBLIC f2c0 0 std::vector<google_breakpad::MappingInfo*, google_breakpad::PageStdAllocator<google_breakpad::MappingInfo*> >::_M_default_append(unsigned long)
PUBLIC f550 0 google_breakpad::LinuxPtraceDumper::IsPostMortem() const
PUBLIC f560 0 google_breakpad::LinuxPtraceDumper::CopyFromProcess(void*, int, void const*, unsigned long)
PUBLIC f6f0 0 google_breakpad::LinuxPtraceDumper::BuildProcPath(char*, int, char const*) const
PUBLIC f7b0 0 google_breakpad::LinuxPtraceDumper::ThreadsResume()
PUBLIC f870 0 google_breakpad::LinuxPtraceDumper::EnumerateThreads()
PUBLIC fe70 0 google_breakpad::LinuxPtraceDumper::GetThreadInfoByIndex(unsigned long, google_breakpad::ThreadInfo*)
PUBLIC 10390 0 google_breakpad::LinuxPtraceDumper::LinuxPtraceDumper(int)
PUBLIC 103c0 0 google_breakpad::LinuxPtraceDumper::ThreadsSuspend()
PUBLIC 10620 0 google_breakpad::LinuxPtraceDumper::~LinuxPtraceDumper()
PUBLIC 10640 0 google_breakpad::LinuxPtraceDumper::~LinuxPtraceDumper()
PUBLIC 10660 0 std::vector<int, google_breakpad::PageStdAllocator<int> >::_M_default_append(unsigned long)
PUBLIC 108f0 0 (anonymous namespace)::MinidumpWriter::WriteThreadListStream(MDRawDirectory*) [clone .constprop.105]
PUBLIC 11700 0 (anonymous namespace)::MinidumpWriter::Dump() [clone .constprop.104]
PUBLIC 138e0 0 google_breakpad::WriteMinidump(char const*, std::__cxx11::list<google_breakpad::MappingEntry, std::allocator<google_breakpad::MappingEntry> > const&, std::__cxx11::list<google_breakpad::AppMemory, std::allocator<google_breakpad::AppMemory> > const&, google_breakpad::LinuxDumper*)
PUBLIC 13c30 0 google_breakpad::WriteMinidump(char const*, int, int)
PUBLIC 140d0 0 (anonymous namespace)::WriteMinidumpImpl(char const*, int, long, int, void const*, unsigned long, std::__cxx11::list<google_breakpad::MappingEntry, std::allocator<google_breakpad::MappingEntry> > const&, std::__cxx11::list<google_breakpad::AppMemory, std::allocator<google_breakpad::AppMemory> > const&)
PUBLIC 14500 0 google_breakpad::WriteMinidump(char const*, int, void const*, unsigned long)
PUBLIC 14610 0 google_breakpad::WriteMinidump(int, int, void const*, unsigned long)
PUBLIC 14720 0 google_breakpad::WriteMinidump(char const*, int, void const*, unsigned long, std::__cxx11::list<google_breakpad::MappingEntry, std::allocator<google_breakpad::MappingEntry> > const&, std::__cxx11::list<google_breakpad::AppMemory, std::allocator<google_breakpad::AppMemory> > const&)
PUBLIC 14750 0 google_breakpad::WriteMinidump(int, int, void const*, unsigned long, std::__cxx11::list<google_breakpad::MappingEntry, std::allocator<google_breakpad::MappingEntry> > const&, std::__cxx11::list<google_breakpad::AppMemory, std::allocator<google_breakpad::AppMemory> > const&)
PUBLIC 14780 0 google_breakpad::WriteMinidump(char const*, long, int, void const*, unsigned long, std::__cxx11::list<google_breakpad::MappingEntry, std::allocator<google_breakpad::MappingEntry> > const&, std::__cxx11::list<google_breakpad::AppMemory, std::allocator<google_breakpad::AppMemory> > const&)
PUBLIC 147b0 0 google_breakpad::WriteMinidump(int, long, int, void const*, unsigned long, std::__cxx11::list<google_breakpad::MappingEntry, std::allocator<google_breakpad::MappingEntry> > const&, std::__cxx11::list<google_breakpad::AppMemory, std::allocator<google_breakpad::AppMemory> > const&)
PUBLIC 147e0 0 google_breakpad::ProcCpuInfoReader::GetNextField(char const**)
PUBLIC 14a40 0 std::vector<char, google_breakpad::PageStdAllocator<char> >::resize(unsigned long)
PUBLIC 14ca0 0 void std::vector<MDMemoryDescriptor, google_breakpad::PageStdAllocator<MDMemoryDescriptor> >::_M_emplace_back_aux<MDMemoryDescriptor const&>(MDMemoryDescriptor const&)
PUBLIC 14ef0 0 google_breakpad::TypedMDRVA<MDString>::CopyIndexAfterObject(unsigned int, void const*, unsigned long) [clone .isra.7] [clone .part.8]
PUBLIC 14f20 0 google_breakpad::MinidumpFileWriter::MinidumpFileWriter()
PUBLIC 14f40 0 google_breakpad::MinidumpFileWriter::Open(char const*)
PUBLIC 14fc0 0 google_breakpad::MinidumpFileWriter::SetFile(int)
PUBLIC 14ff0 0 google_breakpad::MinidumpFileWriter::Close()
PUBLIC 15050 0 google_breakpad::MinidumpFileWriter::~MinidumpFileWriter()
PUBLIC 15070 0 google_breakpad::MinidumpFileWriter::Allocate(unsigned long)
PUBLIC 15130 0 google_breakpad::MinidumpFileWriter::Copy(unsigned int, void const*, long)
PUBLIC 15230 0 google_breakpad::MinidumpFileWriter::CopyStringToMDString(wchar_t const*, unsigned int, google_breakpad::TypedMDRVA<MDString>*)
PUBLIC 15320 0 google_breakpad::MinidumpFileWriter::CopyStringToMDString(char const*, unsigned int, google_breakpad::TypedMDRVA<MDString>*)
PUBLIC 15410 0 google_breakpad::UntypedMDRVA::Allocate(unsigned long)
PUBLIC 15460 0 google_breakpad::UntypedMDRVA::Copy(unsigned int, void const*, unsigned long)
PUBLIC 154f0 0 google_breakpad::MinidumpFileWriter::WriteMemory(void const*, unsigned long, MDMemoryDescriptor*)
PUBLIC 155d0 0 google_breakpad::MinidumpFileWriter::WriteString(wchar_t const*, unsigned int, MDLocationDescriptor*)
PUBLIC 155e0 0 google_breakpad::MinidumpFileWriter::WriteString(char const*, unsigned int, MDLocationDescriptor*)
PUBLIC 155f0 0 bool google_breakpad::MinidumpFileWriter::WriteStringCore<wchar_t>(wchar_t const*, unsigned int, MDLocationDescriptor*)
PUBLIC 15830 0 bool google_breakpad::MinidumpFileWriter::WriteStringCore<char>(char const*, unsigned int, MDLocationDescriptor*)
PUBLIC 15a70 0 void std::__cxx11::basic_string<char, std::char_traits<char>, std::allocator<char> >::_M_construct<char const*>(char const*, char const*, std::forward_iterator_tag) [clone .isra.34]
PUBLIC 15b40 0 google_breakpad::UTF8ToUTF16Char(char const*, int, unsigned short*)
PUBLIC 15c00 0 google_breakpad::UTF32ToUTF16Char(wchar_t, unsigned short*)
PUBLIC 15c80 0 google_breakpad::UTF16ToUTF8[abi:cxx11](std::vector<unsigned short, std::allocator<unsigned short> > const&, bool)
PUBLIC 15e00 0 google_breakpad::UTF32ToUTF16(wchar_t const*, std::vector<unsigned short, std::allocator<unsigned short> >*)
PUBLIC 15ef0 0 google_breakpad::UTF8ToUTF16(char const*, std::vector<unsigned short, std::allocator<unsigned short> >*)
PUBLIC 15fe0 0 std::vector<unsigned short, std::allocator<unsigned short> >::_M_fill_insert(__gnu_cxx::__normal_iterator<unsigned short*, std::vector<unsigned short, std::allocator<unsigned short> > >, unsigned long, unsigned short const&)
PUBLIC 162a0 0 std::vector<unsigned short, std::allocator<unsigned short> >::_M_default_append(unsigned long)
PUBLIC 163f0 0 google_breakpad::IsValidElf(void const*)
PUBLIC 16410 0 google_breakpad::ElfClass(void const*)
PUBLIC 16420 0 google_breakpad::FindElfSection(void const*, char const*, unsigned int, void const**, unsigned long*, int*)
PUBLIC 16880 0 google_breakpad::FindElfSegment(void const*, unsigned int, void const**, unsigned long*, int*)
PUBLIC 16b10 0 google_breakpad::bytes_to_hex_string(unsigned char const*, unsigned long)
PUBLIC 16c50 0 google_breakpad::FileID::FileID(char const*)
PUBLIC 16d40 0 google_breakpad::FileID::ConvertIdentifierToUUIDString[abi:cxx11](google_breakpad::wasteful_vector<unsigned char> const&)
PUBLIC 16e10 0 google_breakpad::FileID::ConvertIdentifierToString[abi:cxx11](google_breakpad::wasteful_vector<unsigned char> const&)
PUBLIC 16e60 0 google_breakpad::FileID::ElfFileIdentifierFromMappedFile(void const*, google_breakpad::wasteful_vector<unsigned char>&)
PUBLIC 172d0 0 google_breakpad::FileID::ElfFileIdentifier(google_breakpad::wasteful_vector<unsigned char>&)
PUBLIC 17350 0 CreateGUID(MDGUID*)
PUBLIC 173d0 0 GUIDToString(MDGUID const*, char*, int)
PUBLIC 17450 0 GUIDGenerator::InitOnceImpl()
PUBLIC 17470 0 my_strlen
PUBLIC 17490 0 my_strcmp
PUBLIC 174e0 0 my_strncmp
PUBLIC 17540 0 my_strtoui
PUBLIC 17590 0 my_uint_len
PUBLIC 175d0 0 my_uitos
PUBLIC 17610 0 my_strchr
PUBLIC 17650 0 my_strrchr
PUBLIC 17680 0 my_memchr
PUBLIC 176c0 0 my_read_hex_ptr
PUBLIC 17740 0 my_read_decimal_ptr
PUBLIC 17780 0 my_memset
PUBLIC 177a0 0 my_strlcpy
PUBLIC 177e0 0 my_strlcat
PUBLIC 17820 0 my_isspace
PUBLIC 17890 0 google_breakpad::MemoryMappedFile::MemoryMappedFile()
PUBLIC 178a0 0 google_breakpad::MemoryMappedFile::Unmap()
PUBLIC 178f0 0 google_breakpad::MemoryMappedFile::~MemoryMappedFile()
PUBLIC 17900 0 google_breakpad::MemoryMappedFile::Map(char const*, unsigned long)
PUBLIC 17ab0 0 google_breakpad::MemoryMappedFile::MemoryMappedFile(char const*, unsigned long)
PUBLIC 17ad0 0 google_breakpad::SafeReadLink(char const*, char*, unsigned long)
PUBLIC 17b10 0 google_breakpad::(anonymous namespace)::CrashGenerationClientImpl::~CrashGenerationClientImpl()
PUBLIC 17b20 0 google_breakpad::(anonymous namespace)::CrashGenerationClientImpl::RequestDump(void const*, unsigned long)
PUBLIC 17d40 0 google_breakpad::(anonymous namespace)::CrashGenerationClientImpl::~CrashGenerationClientImpl()
PUBLIC 17d50 0 google_breakpad::CrashGenerationClient::TryCreate(int)
PUBLIC 17d80 0 google_breakpad::ThreadInfo::GetInstructionPointer() const
PUBLIC 17d90 0 google_breakpad::ThreadInfo::FillCPUContext(MDRawContextAMD64*) const
PUBLIC 18090 0 google_breakpad::ThreadInfo::GetGeneralPurposeRegisters(void**, unsigned long*)
PUBLIC 180e0 0 google_breakpad::ThreadInfo::GetFloatingPointRegisters(void**, unsigned long*)
PUBLIC 18130 0 google_breakpad::UContextReader::GetStackPointer(ucontext const*)
PUBLIC 18140 0 google_breakpad::UContextReader::GetInstructionPointer(ucontext const*)
PUBLIC 18150 0 google_breakpad::UContextReader::FillCPUContext(MDRawContextAMD64*, ucontext const*, _libc_fpstate const*)
PUBLIC 183b0 0 isLegalUTF8
PUBLIC 18480 0 ConvertUTF32toUTF16
PUBLIC 18580 0 ConvertUTF16toUTF32
PUBLIC 186a0 0 ConvertUTF16toUTF8
PUBLIC 188a0 0 isLegalUTF8Sequence
PUBLIC 188d0 0 ConvertUTF8toUTF16
PUBLIC 18b40 0 ConvertUTF32toUTF8
PUBLIC 18ce0 0 ConvertUTF8toUTF32
PUBLIC 18f70 0 __libc_csu_init
PUBLIC 18fe0 0 __libc_csu_fini
PUBLIC 18fe4 0 _fini
STACK CFI INIT 1cf0 2a .cfa: $rsp 8 + .ra: .cfa -8 + ^
STACK CFI INIT 15f0 380 .cfa: $rsp 16 + .ra: .cfa -8 + ^
STACK CFI 15f6 .cfa: $rsp 24 +
STACK CFI INIT 9238 3a .cfa: $rsp 8 + .ra: .cfa -8 + ^
STACK CFI 9239 $rbp: .cfa -16 + ^ .cfa: $rsp 16 +
STACK CFI 923c .cfa: $rbp 16 +
STACK CFI 9271 .cfa: $rsp 8 +
STACK CFI INIT 9272 8d .cfa: $rsp 8 + .ra: .cfa -8 + ^
STACK CFI 9273 $rbp: .cfa -16 + ^ .cfa: $rsp 16 +
STACK CFI 9276 .cfa: $rbp 16 +
STACK CFI 92fe .cfa: $rsp 8 +
STACK CFI INIT 1de6 17 .cfa: $rsp 8 + .ra: .cfa -8 + ^
STACK CFI 1de7 $rbp: .cfa -16 + ^ .cfa: $rsp 16 +
STACK CFI 1dea .cfa: $rbp 16 +
STACK CFI 1dfc .cfa: $rsp 8 +
STACK CFI INIT 1dfd 1cc .cfa: $rsp 8 + .ra: .cfa -8 + ^
STACK CFI 1dfe $rbp: .cfa -16 + ^ .cfa: $rsp 16 +
STACK CFI 1e01 .cfa: $rbp 16 +
STACK CFI 1fc8 .cfa: $rsp 8 +
STACK CFI INIT 1fc9 1cc .cfa: $rsp 8 + .ra: .cfa -8 + ^
STACK CFI 1fca $rbp: .cfa -16 + ^ .cfa: $rsp 16 +
STACK CFI 1fcd .cfa: $rbp 16 +
STACK CFI 2194 .cfa: $rsp 8 +
STACK CFI INIT 2195 1cc .cfa: $rsp 8 + .ra: .cfa -8 + ^
STACK CFI 2196 $rbp: .cfa -16 + ^ .cfa: $rsp 16 +
STACK CFI 2199 .cfa: $rbp 16 +
STACK CFI 2360 .cfa: $rsp 8 +
STACK CFI INIT 2361 1cc .cfa: $rsp 8 + .ra: .cfa -8 + ^
STACK CFI 2362 $rbp: .cfa -16 + ^ .cfa: $rsp 16 +
STACK CFI 2365 .cfa: $rbp 16 +
STACK CFI 252c .cfa: $rsp 8 +
STACK CFI INIT 252d 1cc .cfa: $rsp 8 + .ra: .cfa -8 + ^
STACK CFI 252e $rbp: .cfa -16 + ^ .cfa: $rsp 16 +
STACK CFI 2531 .cfa: $rbp 16 +
STACK CFI 26f8 .cfa: $rsp 8 +
STACK CFI INIT 26f9 1cc .cfa: $rsp 8 + .ra: .cfa -8 + ^
STACK CFI 26fa $rbp: .cfa -16 + ^ .cfa: $rsp 16 +
STACK CFI 26fd .cfa: $rbp 16 +
STACK CFI 28c4 .cfa: $rsp 8 +
STACK CFI INIT 28c5 1cc .cfa: $rsp 8 + .ra: .cfa -8 + ^
STACK CFI 28c6 $rbp: .cfa -16 + ^ .cfa: $rsp 16 +
STACK CFI 28c9 .cfa: $rbp 16 +
STACK CFI 2a90 .cfa: $rsp 8 +
STACK CFI INIT 2a91 1cc .cfa: $rsp 8 + .ra: .cfa -8 + ^
STACK CFI 2a92 $rbp: .cfa -16 + ^ .cfa: $rsp 16 +
STACK CFI 2a95 .cfa: $rbp 16 +
STACK CFI 2c5c .cfa: $rsp 8 +
STACK CFI INIT 2c5d 1cc .cfa: $rsp 8 + .ra: .cfa -8 + ^
STACK CFI 2c5e $rbp: .cfa -16 + ^ .cfa: $rsp 16 +
STACK CFI 2c61 .cfa: $rbp 16 +
STACK CFI 2e28 .cfa: $rsp 8 +
STACK CFI INIT 2e29 1cc .cfa: $rsp 8 + .ra: .cfa -8 + ^
STACK CFI 2e2a $rbp: .cfa -16 + ^ .cfa: $rsp 16 +
STACK CFI 2e2d .cfa: $rbp 16 +
STACK CFI 2ff4 .cfa: $rsp 8 +
STACK CFI INIT 2ff5 1cc .cfa: $rsp 8 + .ra: .cfa -8 + ^
STACK CFI 2ff6 $rbp: .cfa -16 + ^ .cfa: $rsp 16 +
STACK CFI 2ff9 .cfa: $rbp 16 +
STACK CFI 31c0 .cfa: $rsp 8 +
STACK CFI INIT 31c1 1cc .cfa: $rsp 8 + .ra: .cfa -8 + ^
STACK CFI 31c2 $rbp: .cfa -16 + ^ .cfa: $rsp 16 +
STACK CFI 31c5 .cfa: $rbp 16 +
STACK CFI 338c .cfa: $rsp 8 +
STACK CFI INIT 338d 1cc .cfa: $rsp 8 + .ra: .cfa -8 + ^
STACK CFI 338e $rbp: .cfa -16 + ^ .cfa: $rsp 16 +
STACK CFI 3391 .cfa: $rbp 16 +
STACK CFI 3558 .cfa: $rsp 8 +
STACK CFI INIT 3559 1cc .cfa: $rsp 8 + .ra: .cfa -8 + ^
STACK CFI 355a $rbp: .cfa -16 + ^ .cfa: $rsp 16 +
STACK CFI 355d .cfa: $rbp 16 +
STACK CFI 3724 .cfa: $rsp 8 +
STACK CFI INIT 3725 1cc .cfa: $rsp 8 + .ra: .cfa -8 + ^
STACK CFI 3726 $rbp: .cfa -16 + ^ .cfa: $rsp 16 +
STACK CFI 3729 .cfa: $rbp 16 +
STACK CFI 38f0 .cfa: $rsp 8 +
STACK CFI INIT 38f1 1cc .cfa: $rsp 8 + .ra: .cfa -8 + ^
STACK CFI 38f2 $rbp: .cfa -16 + ^ .cfa: $rsp 16 +
STACK CFI 38f5 .cfa: $rbp 16 +
STACK CFI 3abc .cfa: $rsp 8 +
STACK CFI INIT 3abd 1cc .cfa: $rsp 8 + .ra: .cfa -8 + ^
STACK CFI 3abe $rbp: .cfa -16 + ^ .cfa: $rsp 16 +
STACK CFI 3ac1 .cfa: $rbp 16 +
STACK CFI 3c88 .cfa: $rsp 8 +
STACK CFI INIT 3c89 1cc .cfa: $rsp 8 + .ra: .cfa -8 + ^
STACK CFI 3c8a $rbp: .cfa -16 + ^ .cfa: $rsp 16 +
STACK CFI 3c8d .cfa: $rbp 16 +
STACK CFI 3e54 .cfa: $rsp 8 +
STACK CFI INIT 3e55 1cc .cfa: $rsp 8 + .ra: .cfa -8 + ^
STACK CFI 3e56 $rbp: .cfa -16 + ^ .cfa: $rsp 16 +
STACK CFI 3e59 .cfa: $rbp 16 +
STACK CFI 4020 .cfa: $rsp 8 +
STACK CFI INIT 4021 1cc .cfa: $rsp 8 + .ra: .cfa -8 + ^
STACK CFI 4022 $rbp: .cfa -16 + ^ .cfa: $rsp 16 +
STACK CFI 4025 .cfa: $rbp 16 +
STACK CFI 41ec .cfa: $rsp 8 +
STACK CFI INIT 41ed 1cc .cfa: $rsp 8 + .ra: .cfa -8 + ^
STACK CFI 41ee $rbp: .cfa -16 + ^ .cfa: $rsp 16 +
STACK CFI 41f1 .cfa: $rbp 16 +
STACK CFI 43b8 .cfa: $rsp 8 +
STACK CFI INIT 43b9 1cc .cfa: $rsp 8 + .ra: .cfa -8 + ^
STACK CFI 43ba $rbp: .cfa -16 + ^ .cfa: $rsp 16 +
STACK CFI 43bd .cfa: $rbp 16 +
STACK CFI 4584 .cfa: $rsp 8 +
STACK CFI INIT 4585 1cc .cfa: $rsp 8 + .ra: .cfa -8 + ^
STACK CFI 4586 $rbp: .cfa -16 + ^ .cfa: $rsp 16 +
STACK CFI 4589 .cfa: $rbp 16 +
STACK CFI 4750 .cfa: $rsp 8 +
STACK CFI INIT 4751 1cc .cfa: $rsp 8 + .ra: .cfa -8 + ^
STACK CFI 4752 $rbp: .cfa -16 + ^ .cfa: $rsp 16 +
STACK CFI 4755 .cfa: $rbp 16 +
STACK CFI 491c .cfa: $rsp 8 +
STACK CFI INIT 491d 1cc .cfa: $rsp 8 + .ra: .cfa -8 + ^
STACK CFI 491e $rbp: .cfa -16 + ^ .cfa: $rsp 16 +
STACK CFI 4921 .cfa: $rbp 16 +
STACK CFI 4ae8 .cfa: $rsp 8 +
STACK CFI INIT 4ae9 1cc .cfa: $rsp 8 + .ra: .cfa -8 + ^
STACK CFI 4aea $rbp: .cfa -16 + ^ .cfa: $rsp 16 +
STACK CFI 4aed .cfa: $rbp 16 +
STACK CFI 4cb4 .cfa: $rsp 8 +
STACK CFI INIT 4cb5 1cc .cfa: $rsp 8 + .ra: .cfa -8 + ^
STACK CFI 4cb6 $rbp: .cfa -16 + ^ .cfa: $rsp 16 +
STACK CFI 4cb9 .cfa: $rbp 16 +
STACK CFI 4e80 .cfa: $rsp 8 +
STACK CFI INIT 4e81 1cc .cfa: $rsp 8 + .ra: .cfa -8 + ^
STACK CFI 4e82 $rbp: .cfa -16 + ^ .cfa: $rsp 16 +
STACK CFI 4e85 .cfa: $rbp 16 +
STACK CFI 504c .cfa: $rsp 8 +
STACK CFI INIT 504d 1cc .cfa: $rsp 8 + .ra: .cfa -8 + ^
STACK CFI 504e $rbp: .cfa -16 + ^ .cfa: $rsp 16 +
STACK CFI 5051 .cfa: $rbp 16 +
STACK CFI 5218 .cfa: $rsp 8 +
STACK CFI INIT 5219 1cc .cfa: $rsp 8 + .ra: .cfa -8 + ^
STACK CFI 521a $rbp: .cfa -16 + ^ .cfa: $rsp 16 +
STACK CFI 521d .cfa: $rbp 16 +
STACK CFI 53e4 .cfa: $rsp 8 +
STACK CFI INIT 53e5 1cc .cfa: $rsp 8 + .ra: .cfa -8 + ^
STACK CFI 53e6 $rbp: .cfa -16 + ^ .cfa: $rsp 16 +
STACK CFI 53e9 .cfa: $rbp 16 +
STACK CFI 55b0 .cfa: $rsp 8 +
STACK CFI INIT 55b1 1cc .cfa: $rsp 8 + .ra: .cfa -8 + ^
STACK CFI 55b2 $rbp: .cfa -16 + ^ .cfa: $rsp 16 +
STACK CFI 55b5 .cfa: $rbp 16 +
STACK CFI 577c .cfa: $rsp 8 +
STACK CFI INIT 577d 1cc .cfa: $rsp 8 + .ra: .cfa -8 + ^
STACK CFI 577e $rbp: .cfa -16 + ^ .cfa: $rsp 16 +
STACK CFI 5781 .cfa: $rbp 16 +
STACK CFI 5948 .cfa: $rsp 8 +
STACK CFI INIT 5949 1cc .cfa: $rsp 8 + .ra: .cfa -8 + ^
STACK CFI 594a $rbp: .cfa -16 + ^ .cfa: $rsp 16 +
STACK CFI 594d .cfa: $rbp 16 +
STACK CFI 5b14 .cfa: $rsp 8 +
STACK CFI INIT 5b15 1cc .cfa: $rsp 8 + .ra: .cfa -8 + ^
STACK CFI 5b16 $rbp: .cfa -16 + ^ .cfa: $rsp 16 +
STACK CFI 5b19 .cfa: $rbp 16 +
STACK CFI 5ce0 .cfa: $rsp 8 +
STACK CFI INIT 5ce1 1cc .cfa: $rsp 8 + .ra: .cfa -8 + ^
STACK CFI 5ce2 $rbp: .cfa -16 + ^ .cfa: $rsp 16 +
STACK CFI 5ce5 .cfa: $rbp 16 +
STACK CFI 5eac .cfa: $rsp 8 +
STACK CFI INIT 5ead 1cc .cfa: $rsp 8 + .ra: .cfa -8 + ^
STACK CFI 5eae $rbp: .cfa -16 + ^ .cfa: $rsp 16 +
STACK CFI 5eb1 .cfa: $rbp 16 +
STACK CFI 6078 .cfa: $rsp 8 +
STACK CFI INIT 6079 1cc .cfa: $rsp 8 + .ra: .cfa -8 + ^
STACK CFI 607a $rbp: .cfa -16 + ^ .cfa: $rsp 16 +
STACK CFI 607d .cfa: $rbp 16 +
STACK CFI 6244 .cfa: $rsp 8 +
STACK CFI INIT 6245 1cc .cfa: $rsp 8 + .ra: .cfa -8 + ^
STACK CFI 6246 $rbp: .cfa -16 + ^ .cfa: $rsp 16 +
STACK CFI 6249 .cfa: $rbp 16 +
STACK CFI 6410 .cfa: $rsp 8 +
STACK CFI INIT 6411 1cc .cfa: $rsp 8 + .ra: .cfa -8 + ^
STACK CFI 6412 $rbp: .cfa -16 + ^ .cfa: $rsp 16 +
STACK CFI 6415 .cfa: $rbp 16 +
STACK CFI 65dc .cfa: $rsp 8 +
STACK CFI INIT 65dd 1cc .cfa: $rsp 8 + .ra: .cfa -8 + ^
STACK CFI 65de $rbp: .cfa -16 + ^ .cfa: $rsp 16 +
STACK CFI 65e1 .cfa: $rbp 16 +
STACK CFI 67a8 .cfa: $rsp 8 +
STACK CFI INIT 67a9 1cc .cfa: $rsp 8 + .ra: .cfa -8 + ^
STACK CFI 67aa $rbp: .cfa -16 + ^ .cfa: $rsp 16 +
STACK CFI 67ad .cfa: $rbp 16 +
STACK CFI 6974 .cfa: $rsp 8 +
STACK CFI INIT 6975 1cc .cfa: $rsp 8 + .ra: .cfa -8 + ^
STACK CFI 6976 $rbp: .cfa -16 + ^ .cfa: $rsp 16 +
STACK CFI 6979 .cfa: $rbp 16 +
STACK CFI 6b40 .cfa: $rsp 8 +
STACK CFI INIT 6b41 1cc .cfa: $rsp 8 + .ra: .cfa -8 + ^
STACK CFI 6b42 $rbp: .cfa -16 + ^ .cfa: $rsp 16 +
STACK CFI 6b45 .cfa: $rbp 16 +
STACK CFI 6d0c .cfa: $rsp 8 +
STACK CFI INIT 6d0d 1cc .cfa: $rsp 8 + .ra: .cfa -8 + ^
STACK CFI 6d0e $rbp: .cfa -16 + ^ .cfa: $rsp 16 +
STACK CFI 6d11 .cfa: $rbp 16 +
STACK CFI 6ed8 .cfa: $rsp 8 +
STACK CFI INIT 6ed9 1cc .cfa: $rsp 8 + .ra: .cfa -8 + ^
STACK CFI 6eda $rbp: .cfa -16 + ^ .cfa: $rsp 16 +
STACK CFI 6edd .cfa: $rbp 16 +
STACK CFI 70a4 .cfa: $rsp 8 +
STACK CFI INIT 70a5 1cc .cfa: $rsp 8 + .ra: .cfa -8 + ^
STACK CFI 70a6 $rbp: .cfa -16 + ^ .cfa: $rsp 16 +
STACK CFI 70a9 .cfa: $rbp 16 +
STACK CFI 7270 .cfa: $rsp 8 +
STACK CFI INIT 7271 1cc .cfa: $rsp 8 + .ra: .cfa -8 + ^
STACK CFI 7272 $rbp: .cfa -16 + ^ .cfa: $rsp 16 +
STACK CFI 7275 .cfa: $rbp 16 +
STACK CFI 743c .cfa: $rsp 8 +
STACK CFI INIT 743d 1cc .cfa: $rsp 8 + .ra: .cfa -8 + ^
STACK CFI 743e $rbp: .cfa -16 + ^ .cfa: $rsp 16 +
STACK CFI 7441 .cfa: $rbp 16 +
STACK CFI 7608 .cfa: $rsp 8 +
STACK CFI INIT 7609 1cc .cfa: $rsp 8 + .ra: .cfa -8 + ^
STACK CFI 760a $rbp: .cfa -16 + ^ .cfa: $rsp 16 +
STACK CFI 760d .cfa: $rbp 16 +
STACK CFI 77d4 .cfa: $rsp 8 +
STACK CFI INIT 77d5 1cc .cfa: $rsp 8 + .ra: .cfa -8 + ^
STACK CFI 77d6 $rbp: .cfa -16 + ^ .cfa: $rsp 16 +
STACK CFI 77d9 .cfa: $rbp 16 +
STACK CFI 79a0 .cfa: $rsp 8 +
STACK CFI INIT 79a1 1cc .cfa: $rsp 8 + .ra: .cfa -8 + ^
STACK CFI 79a2 $rbp: .cfa -16 + ^ .cfa: $rsp 16 +
STACK CFI 79a5 .cfa: $rbp 16 +
STACK CFI 7b6c .cfa: $rsp 8 +
STACK CFI INIT 7b6d 1cc .cfa: $rsp 8 + .ra: .cfa -8 + ^
STACK CFI 7b6e $rbp: .cfa -16 + ^ .cfa: $rsp 16 +
STACK CFI 7b71 .cfa: $rbp 16 +
STACK CFI 7d38 .cfa: $rsp 8 +
STACK CFI INIT 7d39 1cc .cfa: $rsp 8 + .ra: .cfa -8 + ^
STACK CFI 7d3a $rbp: .cfa -16 + ^ .cfa: $rsp 16 +
STACK CFI 7d3d .cfa: $rbp 16 +
STACK CFI 7f04 .cfa: $rsp 8 +
STACK CFI INIT 7f05 1cc .cfa: $rsp 8 + .ra: .cfa -8 + ^
STACK CFI 7f06 $rbp: .cfa -16 + ^ .cfa: $rsp 16 +
STACK CFI 7f09 .cfa: $rbp 16 +
STACK CFI 80d0 .cfa: $rsp 8 +
STACK CFI INIT 80d1 1cc .cfa: $rsp 8 + .ra: .cfa -8 + ^
STACK CFI 80d2 $rbp: .cfa -16 + ^ .cfa: $rsp 16 +
STACK CFI 80d5 .cfa: $rbp 16 +
STACK CFI 829c .cfa: $rsp 8 +
STACK CFI INIT 829d 1cc .cfa: $rsp 8 + .ra: .cfa -8 + ^
STACK CFI 829e $rbp: .cfa -16 + ^ .cfa: $rsp 16 +
STACK CFI 82a1 .cfa: $rbp 16 +
STACK CFI 8468 .cfa: $rsp 8 +
STACK CFI INIT 8469 1cc .cfa: $rsp 8 + .ra: .cfa -8 + ^
STACK CFI 846a $rbp: .cfa -16 + ^ .cfa: $rsp 16 +
STACK CFI 846d .cfa: $rbp 16 +
STACK CFI 8634 .cfa: $rsp 8 +
STACK CFI INIT 8635 1cc .cfa: $rsp 8 + .ra: .cfa -8 + ^
STACK CFI 8636 $rbp: .cfa -16 + ^ .cfa: $rsp 16 +
STACK CFI 8639 .cfa: $rbp 16 +
STACK CFI 8800 .cfa: $rsp 8 +
STACK CFI INIT 8801 1cc .cfa: $rsp 8 + .ra: .cfa -8 + ^
STACK CFI 8802 $rbp: .cfa -16 + ^ .cfa: $rsp 16 +
STACK CFI 8805 .cfa: $rbp 16 +
STACK CFI 89cc .cfa: $rsp 8 +
STACK CFI INIT 89cd 1cc .cfa: $rsp 8 + .ra: .cfa -8 + ^
STACK CFI 89ce $rbp: .cfa -16 + ^ .cfa: $rsp 16 +
STACK CFI 89d1 .cfa: $rbp 16 +
STACK CFI 8b98 .cfa: $rsp 8 +
STACK CFI INIT 8b99 1cc .cfa: $rsp 8 + .ra: .cfa -8 + ^
STACK CFI 8b9a $rbp: .cfa -16 + ^ .cfa: $rsp 16 +
STACK CFI 8b9d .cfa: $rbp 16 +
STACK CFI 8d64 .cfa: $rsp 8 +
STACK CFI INIT 8d65 1cc .cfa: $rsp 8 + .ra: .cfa -8 + ^
STACK CFI 8d66 $rbp: .cfa -16 + ^ .cfa: $rsp 16 +
STACK CFI 8d69 .cfa: $rbp 16 +
STACK CFI 8f30 .cfa: $rsp 8 +
STACK CFI INIT 8f31 1cc .cfa: $rsp 8 + .ra: .cfa -8 + ^
STACK CFI 8f32 $rbp: .cfa -16 + ^ .cfa: $rsp 16 +
STACK CFI 8f35 .cfa: $rbp 16 +
STACK CFI 90fc .cfa: $rsp 8 +
STACK CFI INIT 90fd 7 .cfa: $rsp 8 + .ra: .cfa -8 + ^
STACK CFI 90fe $rbp: .cfa -16 + ^ .cfa: $rsp 16 +
STACK CFI 9101 .cfa: $rbp 16 +
STACK CFI 9103 .cfa: $rsp 8 +
STACK CFI INIT 9300 2f .cfa: $rsp 8 + .ra: .cfa -8 + ^
STACK CFI 9301 $rbp: .cfa -16 + ^ .cfa: $rsp 16 +
STACK CFI 9304 .cfa: $rbp 16 +
STACK CFI 932e .cfa: $rsp 8 +
STACK CFI INIT 9104 133 .cfa: $rsp 8 + .ra: .cfa -8 + ^
STACK CFI 9105 $rbp: .cfa -16 + ^ .cfa: $rsp 16 +
STACK CFI 9108 .cfa: $rbp 16 +
STACK CFI 9110 $rbx: .cfa -24 + ^
STACK CFI 9236 .cfa: $rsp 8 +
STACK CFI INIT 9330 14b .cfa: $rsp 8 + .ra: .cfa -8 + ^
STACK CFI 9332 $r14: .cfa -16 + ^ .cfa: $rsp 16 +
STACK CFI 9334 $r13: .cfa -24 + ^ .cfa: $rsp 24 +
STACK CFI 9336 $r12: .cfa -32 + ^ .cfa: $rsp 32 +
STACK CFI 9337 $rbp: .cfa -40 + ^ .cfa: $rsp 40 +
STACK CFI 9338 $rbx: .cfa -48 + ^ .cfa: $rsp 48 +
STACK CFI 933f .cfa: $rsp 208 +
STACK CFI 93d0 .cfa: $rsp 48 +
STACK CFI 93d1 .cfa: $rsp 40 +
STACK CFI 93d2 .cfa: $rsp 32 +
STACK CFI 93d4 .cfa: $rsp 24 +
STACK CFI 93d6 .cfa: $rsp 16 +
STACK CFI 93d8 .cfa: $rsp 8 +
STACK CFI 93e0 .cfa: $rsp 208 +
STACK CFI INIT 9480 7c .cfa: $rsp 8 + .ra: .cfa -8 + ^
STACK CFI 948b $r13: .cfa -16 + ^ .cfa: $rsp 16 +
STACK CFI 948d $r12: .cfa -24 + ^ .cfa: $rsp 24 +
STACK CFI 9495 $rbp: .cfa -32 + ^ .cfa: $rsp 32 +
STACK CFI 9496 $rbx: .cfa -40 + ^ .cfa: $rsp 40 +
STACK CFI 94ae .cfa: $rsp 48 +
STACK CFI 94e1 .cfa: $rsp 40 +
STACK CFI 94e2 $rbx: $rbx .cfa: $rsp 32 +
STACK CFI 94e3 $rbp: $rbp .cfa: $rsp 24 +
STACK CFI 94e5 $r12: $r12 .cfa: $rsp 16 +
STACK CFI 94e7 $r13: $r13 .cfa: $rsp 8 +
STACK CFI 94f0 $r12: .cfa -24 + ^ $r13: .cfa -16 + ^ $rbp: .cfa -32 + ^ $rbx: .cfa -40 + ^ .cfa: $rsp 48 +
STACK CFI INIT 9500 341 .cfa: $rsp 8 + .ra: .cfa -8 + ^
STACK CFI 9502 $r12: .cfa -16 + ^ .cfa: $rsp 16 +
STACK CFI 9503 $rbp: .cfa -24 + ^ .cfa: $rsp 24 +
STACK CFI 9504 $rbx: .cfa -32 + ^ .cfa: $rsp 32 +
STACK CFI 9512 .cfa: $rsp 96 +
STACK CFI 96c3 .cfa: $rsp 32 +
STACK CFI 96c4 .cfa: $rsp 24 +
STACK CFI 96c5 .cfa: $rsp 16 +
STACK CFI 96c7 .cfa: $rsp 8 +
STACK CFI 96d0 .cfa: $rsp 96 +
STACK CFI INIT 9850 d1 .cfa: $rsp 8 + .ra: .cfa -8 + ^
STACK CFI 9852 $r15: .cfa -16 + ^ .cfa: $rsp 16 +
STACK CFI 9854 $r14: .cfa -24 + ^ .cfa: $rsp 24 +
STACK CFI 9859 $r13: .cfa -32 + ^ .cfa: $rsp 32 +
STACK CFI 985b $r12: .cfa -40 + ^ .cfa: $rsp 40 +
STACK CFI 9863 $rbp: .cfa -48 + ^ .cfa: $rsp 48 +
STACK CFI 9864 $rbx: .cfa -56 + ^ .cfa: $rsp 56 +
STACK CFI 9873 .cfa: $rsp 64 +
STACK CFI 989e .cfa: $rsp 56 +
STACK CFI 989f .cfa: $rsp 48 +
STACK CFI 98a0 .cfa: $rsp 40 +
STACK CFI 98a2 .cfa: $rsp 32 +
STACK CFI 98a4 .cfa: $rsp 24 +
STACK CFI 98a6 .cfa: $rsp 16 +
STACK CFI 98a8 .cfa: $rsp 8 +
STACK CFI 98b0 .cfa: $rsp 64 +
STACK CFI 98fc .cfa: $rsp 56 +
STACK CFI 9909 .cfa: $rsp 48 +
STACK CFI 990a .cfa: $rsp 40 +
STACK CFI 990c .cfa: $rsp 32 +
STACK CFI 990e .cfa: $rsp 24 +
STACK CFI 9910 .cfa: $rsp 16 +
STACK CFI 9912 .cfa: $rsp 8 +
STACK CFI 9917 .cfa: $rsp 64 +
STACK CFI INIT 9930 4bc .cfa: $rsp 8 + .ra: .cfa -8 + ^
STACK CFI 9932 $r15: .cfa -16 + ^ .cfa: $rsp 16 +
STACK CFI 9934 $r14: .cfa -24 + ^ .cfa: $rsp 24 +
STACK CFI 9936 $r13: .cfa -32 + ^ .cfa: $rsp 32 +
STACK CFI 9938 $r12: .cfa -40 + ^ .cfa: $rsp 40 +
STACK CFI 9939 $rbp: .cfa -48 + ^ .cfa: $rsp 48 +
STACK CFI 993a $rbx: .cfa -56 + ^ .cfa: $rsp 56 +
STACK CFI 9944 .cfa: $rsp 144 +
STACK CFI 9984 .cfa: $rsp 56 +
STACK CFI 9985 .cfa: $rsp 48 +
STACK CFI 9986 .cfa: $rsp 40 +
STACK CFI 9988 .cfa: $rsp 32 +
STACK CFI 998a .cfa: $rsp 24 +
STACK CFI 998c .cfa: $rsp 16 +
STACK CFI 998e .cfa: $rsp 8 +
STACK CFI 9990 .cfa: $rsp 144 +
STACK CFI INIT 9df0 1da .cfa: $rsp 8 + .ra: .cfa -8 + ^
STACK CFI 9df2 $r13: .cfa -16 + ^ .cfa: $rsp 16 +
STACK CFI 9df4 $r12: .cfa -24 + ^ .cfa: $rsp 24 +
STACK CFI 9df8 $rbp: .cfa -32 + ^ .cfa: $rsp 32 +
STACK CFI 9df9 $rbx: .cfa -40 + ^ .cfa: $rsp 40 +
STACK CFI 9e03 .cfa: $rsp 48 +
STACK CFI 9e19 .cfa: $rsp 40 +
STACK CFI 9e1a .cfa: $rsp 32 +
STACK CFI 9e1b .cfa: $rsp 24 +
STACK CFI 9e1d .cfa: $rsp 16 +
STACK CFI 9e1f .cfa: $rsp 8 +
STACK CFI 9e20 .cfa: $rsp 48 +
STACK CFI 9f8d .cfa: $rsp 40 +
STACK CFI 9f98 .cfa: $rsp 32 +
STACK CFI 9f99 .cfa: $rsp 24 +
STACK CFI 9f9b .cfa: $rsp 16 +
STACK CFI 9f9d .cfa: $rsp 8 +
STACK CFI 9fa8 .cfa: $rsp 48 +
STACK CFI INIT 9fd0 1c1 .cfa: $rsp 8 + .ra: .cfa -8 + ^
STACK CFI 9fd2 $r14: .cfa -16 + ^ .cfa: $rsp 16 +
STACK CFI 9fd4 $r13: .cfa -24 + ^ .cfa: $rsp 24 +
STACK CFI 9fd9 $r12: .cfa -32 + ^ .cfa: $rsp 32 +
STACK CFI 9fda $rbp: .cfa -40 + ^ .cfa: $rsp 40 +
STACK CFI 9fde $rbx: .cfa -48 + ^ .cfa: $rsp 48 +
STACK CFI 9fef .cfa: $rsp 208 +
STACK CFI a0ca .cfa: $rsp 48 +
STACK CFI a0cb .cfa: $rsp 40 +
STACK CFI a0cc .cfa: $rsp 32 +
STACK CFI a0ce .cfa: $rsp 24 +
STACK CFI a0d0 .cfa: $rsp 16 +
STACK CFI a0d2 .cfa: $rsp 8 +
STACK CFI a0d8 .cfa: $rsp 208 +
STACK CFI INIT a1a0 7f .cfa: $rsp 8 + .ra: .cfa -8 + ^
STACK CFI a1a7 .cfa: $rsp 1104 +
STACK CFI a219 .cfa: $rsp 8 +
STACK CFI a21a .cfa: $rsp 1104 +
STACK CFI INIT a220 e5 .cfa: $rsp 8 + .ra: .cfa -8 + ^
STACK CFI a222 $r15: .cfa -16 + ^ .cfa: $rsp 16 +
STACK CFI a224 $r14: .cfa -24 + ^ .cfa: $rsp 24 +
STACK CFI a229 $r13: .cfa -32 + ^ .cfa: $rsp 32 +
STACK CFI a22b $r12: .cfa -40 + ^ .cfa: $rsp 40 +
STACK CFI a22f $rbp: .cfa -48 + ^ .cfa: $rsp 48 +
STACK CFI a230 $rbx: .cfa -56 + ^ .cfa: $rsp 56 +
STACK CFI a239 .cfa: $rsp 80 +
STACK CFI a28a .cfa: $rsp 56 +
STACK CFI a28b .cfa: $rsp 48 +
STACK CFI a28c .cfa: $rsp 40 +
STACK CFI a28e .cfa: $rsp 32 +
STACK CFI a290 .cfa: $rsp 24 +
STACK CFI a292 .cfa: $rsp 16 +
STACK CFI a294 .cfa: $rsp 8 +
STACK CFI a298 .cfa: $rsp 80 +
STACK CFI INIT a310 8b .cfa: $rsp 8 + .ra: .cfa -8 + ^
STACK CFI a326 .cfa: $rsp 16 +
STACK CFI a346 .cfa: $rsp 24 +
STACK CFI a34c .cfa: $rsp 32 +
STACK CFI a359 .cfa: $rsp 24 +
STACK CFI a35a .cfa: $rsp 16 +
STACK CFI a35e .cfa: $rsp 8 +
STACK CFI a378 .cfa: $rsp 16 +
STACK CFI a383 .cfa: $rsp 24 +
STACK CFI a388 .cfa: $rsp 32 +
STACK CFI a395 .cfa: $rsp 24 +
STACK CFI a396 .cfa: $rsp 16 +
STACK CFI a39a .cfa: $rsp 8 +
STACK CFI INIT a3a0 28 .cfa: $rsp 8 + .ra: .cfa -8 + ^
STACK CFI a3a1 $rbx: .cfa -16 + ^ .cfa: $rsp 16 +
STACK CFI a3c7 .cfa: $rsp 8 +
STACK CFI INIT a3d0 195 .cfa: $rsp 8 + .ra: .cfa -8 + ^
STACK CFI a3d1 $rbx: .cfa -16 + ^ .cfa: $rsp 16 +
STACK CFI a3d8 .cfa: $rsp 1632 +
STACK CFI a46e .cfa: $rsp 16 +
STACK CFI a46f .cfa: $rsp 8 +
STACK CFI a470 .cfa: $rsp 1632 +
STACK CFI INIT a570 e3 .cfa: $rsp 8 + .ra: .cfa -8 + ^
STACK CFI a572 $r14: .cfa -16 + ^ .cfa: $rsp 16 +
STACK CFI a574 $r13: .cfa -24 + ^ .cfa: $rsp 24 +
STACK CFI a578 $rbp: .cfa -32 + ^ .cfa: $rsp 32 +
STACK CFI a579 $rbx: .cfa -40 + ^ .cfa: $rsp 40 +
STACK CFI a588 .cfa: $rsp 640 +
STACK CFI a647 .cfa: $rsp 40 +
STACK CFI a648 .cfa: $rsp 32 +
STACK CFI a649 .cfa: $rsp 24 +
STACK CFI a64b .cfa: $rsp 16 +
STACK CFI a64d .cfa: $rsp 8 +
STACK CFI a64e .cfa: $rsp 640 +
STACK CFI INIT a660 91 .cfa: $rsp 8 + .ra: .cfa -8 + ^
STACK CFI a662 $r13: .cfa -16 + ^ .cfa: $rsp 16 +
STACK CFI a664 $r12: .cfa -24 + ^ .cfa: $rsp 24 +
STACK CFI a665 $rbp: .cfa -32 + ^ .cfa: $rsp 32 +
STACK CFI a666 $rbx: .cfa -40 + ^ .cfa: $rsp 40 +
STACK CFI a671 .cfa: $rsp 48 +
STACK CFI a69a .cfa: $rsp 40 +
STACK CFI a69b .cfa: $rsp 32 +
STACK CFI a69c .cfa: $rsp 24 +
STACK CFI a69e .cfa: $rsp 16 +
STACK CFI a6a0 .cfa: $rsp 8 +
STACK CFI a6a8 .cfa: $rsp 48 +
STACK CFI a6ea .cfa: $rsp 40 +
STACK CFI a6eb .cfa: $rsp 32 +
STACK CFI a6ec .cfa: $rsp 24 +
STACK CFI a6ee .cfa: $rsp 16 +
STACK CFI a6f0 .cfa: $rsp 8 +
STACK CFI INIT a700 52 .cfa: $rsp 8 + .ra: .cfa -8 + ^
STACK CFI a701 $rbx: .cfa -16 + ^ .cfa: $rsp 16 +
STACK CFI a742 .cfa: $rsp 8 +
STACK CFI a750 .cfa: $rsp 16 +
STACK CFI a751 .cfa: $rsp 8 +
STACK CFI INIT a760 23d .cfa: $rsp 8 + .ra: .cfa -8 + ^
STACK CFI a762 $r15: .cfa -16 + ^ .cfa: $rsp 16 +
STACK CFI a764 $r14: .cfa -24 + ^ .cfa: $rsp 24 +
STACK CFI a769 $r13: .cfa -32 + ^ .cfa: $rsp 32 +
STACK CFI a76b $r12: .cfa -40 + ^ .cfa: $rsp 40 +
STACK CFI a76f $rbp: .cfa -48 + ^ .cfa: $rsp 48 +
STACK CFI a770 $rbx: .cfa -56 + ^ .cfa: $rsp 56 +
STACK CFI a780 .cfa: $rsp 224 +
STACK CFI a8e2 .cfa: $rsp 56 +
STACK CFI a8e3 .cfa: $rsp 48 +
STACK CFI a8e4 .cfa: $rsp 40 +
STACK CFI a8e6 .cfa: $rsp 32 +
STACK CFI a8e8 .cfa: $rsp 24 +
STACK CFI a8ea .cfa: $rsp 16 +
STACK CFI a8ec .cfa: $rsp 8 +
STACK CFI a8f0 .cfa: $rsp 224 +
STACK CFI INIT afc0 ea .cfa: $rsp 8 + .ra: .cfa -8 + ^
STACK CFI afc2 $r15: .cfa -16 + ^ .cfa: $rsp 16 +
STACK CFI afc4 $r14: .cfa -24 + ^ .cfa: $rsp 24 +
STACK CFI afc9 $r13: .cfa -32 + ^ .cfa: $rsp 32 +
STACK CFI afcb $r12: .cfa -40 + ^ .cfa: $rsp 40 +
STACK CFI afcf $rbp: .cfa -48 + ^ .cfa: $rsp 48 +
STACK CFI afd0 $rbx: .cfa -56 + ^ .cfa: $rsp 56 +
STACK CFI afd4 .cfa: $rsp 64 +
STACK CFI b05a .cfa: $rsp 56 +
STACK CFI b05b .cfa: $rsp 48 +
STACK CFI b05c .cfa: $rsp 40 +
STACK CFI b05e .cfa: $rsp 32 +
STACK CFI b060 .cfa: $rsp 24 +
STACK CFI b062 .cfa: $rsp 16 +
STACK CFI b064 .cfa: $rsp 8 +
STACK CFI b068 .cfa: $rsp 64 +
STACK CFI INIT a9a0 396 .cfa: $rsp 8 + .ra: .cfa -8 + ^
STACK CFI a9a2 $r15: .cfa -16 + ^ .cfa: $rsp 16 +
STACK CFI a9a4 $r14: .cfa -24 + ^ .cfa: $rsp 24 +
STACK CFI a9a9 $r13: .cfa -32 + ^ .cfa: $rsp 32 +
STACK CFI a9af $r12: .cfa -40 + ^ .cfa: $rsp 40 +
STACK CFI a9b0 $rbp: .cfa -48 + ^ .cfa: $rsp 48 +
STACK CFI a9b1 $rbx: .cfa -56 + ^ .cfa: $rsp 56 +
STACK CFI a9b8 .cfa: $rsp 80 +
STACK CFI aafe .cfa: $rsp 56 +
STACK CFI aaff .cfa: $rsp 48 +
STACK CFI ab00 .cfa: $rsp 40 +
STACK CFI ab02 .cfa: $rsp 32 +
STACK CFI ab04 .cfa: $rsp 24 +
STACK CFI ab06 .cfa: $rsp 16 +
STACK CFI ab08 .cfa: $rsp 8 +
STACK CFI ab10 .cfa: $rsp 80 +
STACK CFI INIT ad40 27d .cfa: $rsp 8 + .ra: .cfa -8 + ^
STACK CFI ad41 $rbp: .cfa -16 + ^ .cfa: $rsp 16 +
STACK CFI ad44 .cfa: $rbp 16 +
STACK CFI ad4c $r12: .cfa -48 + ^ $r13: .cfa -40 + ^ $r14: .cfa -32 + ^ $r15: .cfa -24 + ^
STACK CFI ad50 $rbx: .cfa -56 + ^
STACK CFI af01 .cfa: $rsp 8 +
STACK CFI af08 .cfa: $rbp 16 +
STACK CFI INIT b0b0 c2 .cfa: $rsp 8 + .ra: .cfa -8 + ^
STACK CFI b0b2 $r12: .cfa -16 + ^ .cfa: $rsp 16 +
STACK CFI b0b3 $rbp: .cfa -24 + ^ .cfa: $rsp 24 +
STACK CFI b0b7 $rbx: .cfa -32 + ^ .cfa: $rsp 32 +
STACK CFI b0be .cfa: $rsp 48 +
STACK CFI b12a .cfa: $rsp 32 +
STACK CFI b12b .cfa: $rsp 24 +
STACK CFI b12c .cfa: $rsp 16 +
STACK CFI b12e .cfa: $rsp 8 +
STACK CFI b130 .cfa: $rsp 48 +
STACK CFI INIT b180 a4 .cfa: $rsp 8 + .ra: .cfa -8 + ^
STACK CFI b181 $rbp: .cfa -16 + ^ .cfa: $rsp 16 +
STACK CFI b182 $rbx: .cfa -24 + ^ .cfa: $rsp 24 +
STACK CFI b190 .cfa: $rsp 32 +
STACK CFI b202 .cfa: $rsp 24 +
STACK CFI b203 .cfa: $rsp 16 +
STACK CFI b204 .cfa: $rsp 8 +
STACK CFI b205 .cfa: $rsp 32 +
STACK CFI INIT b230 317 .cfa: $rsp 8 + .ra: .cfa -8 + ^
STACK CFI b232 $r13: .cfa -16 + ^ .cfa: $rsp 16 +
STACK CFI b234 $r12: .cfa -24 + ^ .cfa: $rsp 24 +
STACK CFI b235 $rbp: .cfa -32 + ^ .cfa: $rsp 32 +
STACK CFI b236 $rbx: .cfa -40 + ^ .cfa: $rsp 40 +
STACK CFI b23d .cfa: $rsp 208 +
STACK CFI b489 .cfa: $rsp 40 +
STACK CFI b48a .cfa: $rsp 32 +
STACK CFI b48b .cfa: $rsp 24 +
STACK CFI b48d .cfa: $rsp 16 +
STACK CFI b48f .cfa: $rsp 8 +
STACK CFI b490 .cfa: $rsp 208 +
STACK CFI INIT b550 a2 .cfa: $rsp 8 + .ra: .cfa -8 + ^
STACK CFI b551 $rbp: .cfa -16 + ^ .cfa: $rsp 16 +
STACK CFI b552 $rbx: .cfa -24 + ^ .cfa: $rsp 24 +
STACK CFI b556 .cfa: $rsp 32 +
STACK CFI b5cd .cfa: $rsp 24 +
STACK CFI b5d1 .cfa: $rsp 16 +
STACK CFI b5d2 .cfa: $rsp 8 +
STACK CFI b5d3 .cfa: $rsp 32 +
STACK CFI INIT b600 33 .cfa: $rsp 8 + .ra: .cfa -8 + ^
STACK CFI b60c $rbx: .cfa -16 + ^ .cfa: $rsp 16 +
STACK CFI b632 .cfa: $rsp 8 +
STACK CFI INIT d100 3ea .cfa: $rsp 8 + .ra: .cfa -8 + ^
STACK CFI d10b $r15: .cfa -16 + ^ .cfa: $rsp 16 +
STACK CFI d10d $r14: .cfa -24 + ^ .cfa: $rsp 24 +
STACK CFI d112 $r13: .cfa -32 + ^ .cfa: $rsp 32 +
STACK CFI d114 $r12: .cfa -40 + ^ .cfa: $rsp 40 +
STACK CFI d118 $rbp: .cfa -48 + ^ .cfa: $rsp 48 +
STACK CFI d119 $rbx: .cfa -56 + ^ .cfa: $rsp 56 +
STACK CFI d129 .cfa: $rsp 96 +
STACK CFI d19c .cfa: $rsp 56 +
STACK CFI d19d $rbx: $rbx .cfa: $rsp 48 +
STACK CFI d19e $rbp: $rbp .cfa: $rsp 40 +
STACK CFI d1a0 $r12: $r12 .cfa: $rsp 32 +
STACK CFI d1a2 $r13: $r13 .cfa: $rsp 24 +
STACK CFI d1a4 $r14: $r14 .cfa: $rsp 16 +
STACK CFI d1a6 $r15: $r15 .cfa: $rsp 8 +
STACK CFI d1b0 $r12: .cfa -40 + ^ $r13: .cfa -32 + ^ $r14: .cfa -24 + ^ $r15: .cfa -16 + ^ $rbp: .cfa -48 + ^ $rbx: .cfa -56 + ^ .cfa: $rsp 96 +
STACK CFI d220 .cfa: $rsp 56 +
STACK CFI d227 $rbx: $rbx .cfa: $rsp 48 +
STACK CFI d228 $rbp: $rbp .cfa: $rsp 40 +
STACK CFI d22a $r12: $r12 .cfa: $rsp 32 +
STACK CFI d22c $r13: $r13 .cfa: $rsp 24 +
STACK CFI d22e $r14: $r14 .cfa: $rsp 16 +
STACK CFI d230 $r15: $r15 .cfa: $rsp 8 +
STACK CFI d238 $r12: .cfa -40 + ^ $r13: .cfa -32 + ^ $r14: .cfa -24 + ^ $r15: .cfa -16 + ^ $rbp: .cfa -48 + ^ $rbx: .cfa -56 + ^ .cfa: $rsp 96 +
STACK CFI d31d .cfa: $rsp 56 +
STACK CFI d31e $rbx: $rbx .cfa: $rsp 48 +
STACK CFI d31f $rbp: $rbp .cfa: $rsp 40 +
STACK CFI d321 $r12: $r12 .cfa: $rsp 32 +
STACK CFI d323 $r13: $r13 .cfa: $rsp 24 +
STACK CFI d325 $r14: $r14 .cfa: $rsp 16 +
STACK CFI d327 $r15: $r15 .cfa: $rsp 8 +
STACK CFI d330 $r12: .cfa -40 + ^ $r13: .cfa -32 + ^ $r14: .cfa -24 + ^ $r15: .cfa -16 + ^ $rbp: .cfa -48 + ^ $rbx: .cfa -56 + ^ .cfa: $rsp 96 +
STACK CFI INIT b640 1ab5 .cfa: $rsp 8 + .ra: .cfa -8 + ^
STACK CFI b641 $rbp: .cfa -16 + ^ .cfa: $rsp 16 +
STACK CFI b644 .cfa: $rbp 16 +
STACK CFI b64c $r12: .cfa -48 + ^ $r13: .cfa -40 + ^ $r14: .cfa -32 + ^ $r15: .cfa -24 + ^
STACK CFI b650 $rbx: .cfa -56 + ^
STACK CFI b6ea .cfa: $rsp 8 +
STACK CFI b6eb .cfa: $rbp 16 +
STACK CFI INIT d4f0 6 .cfa: $rsp 8 + .ra: .cfa -8 + ^
STACK CFI INIT f170 143 .cfa: $rsp 8 + .ra: .cfa -8 + ^
STACK CFI f17b $r15: .cfa -16 + ^ .cfa: $rsp 16 +
STACK CFI f17d $r14: .cfa -24 + ^ .cfa: $rsp 24 +
STACK CFI f17f $r13: .cfa -32 + ^ .cfa: $rsp 32 +
STACK CFI f181 $r12: .cfa -40 + ^ .cfa: $rsp 40 +
STACK CFI f182 $rbp: .cfa -48 + ^ .cfa: $rsp 48 +
STACK CFI f183 $rbx: .cfa -56 + ^ .cfa: $rsp 56 +
STACK CFI f18a .cfa: $rsp 64 +
STACK CFI f1bc .cfa: $rsp 56 +
STACK CFI f1bd $rbx: $rbx .cfa: $rsp 48 +
STACK CFI f1be $rbp: $rbp .cfa: $rsp 40 +
STACK CFI f1c0 $r12: $r12 .cfa: $rsp 32 +
STACK CFI f1c2 $r13: $r13 .cfa: $rsp 24 +
STACK CFI f1c4 $r14: $r14 .cfa: $rsp 16 +
STACK CFI f1c6 $r15: $r15 .cfa: $rsp 8 +
STACK CFI f1d0 $r12: .cfa -40 + ^ $r13: .cfa -32 + ^ $r14: .cfa -24 + ^ $r15: .cfa -16 + ^ $rbp: .cfa -48 + ^ $rbx: .cfa -56 + ^ .cfa: $rsp 64 +
STACK CFI f27f .cfa: $rsp 56 +
STACK CFI f284 $rbx: $rbx .cfa: $rsp 48 +
STACK CFI f285 $rbp: $rbp .cfa: $rsp 40 +
STACK CFI f287 $r12: $r12 .cfa: $rsp 32 +
STACK CFI f289 $r13: $r13 .cfa: $rsp 24 +
STACK CFI f28b $r14: $r14 .cfa: $rsp 16 +
STACK CFI f28d $r15: $r15 .cfa: $rsp 8 +
STACK CFI f290 $r12: .cfa -40 + ^ $r13: .cfa -32 + ^ $r14: .cfa -24 + ^ $r15: .cfa -16 + ^ $rbp: .cfa -48 + ^ $rbx: .cfa -56 + ^ .cfa: $rsp 64 +
STACK CFI f2a4 .cfa: $rsp 56 +
STACK CFI f2a5 $rbx: $rbx .cfa: $rsp 48 +
STACK CFI f2a6 $rbp: $rbp .cfa: $rsp 40 +
STACK CFI f2a8 $r12: $r12 .cfa: $rsp 32 +
STACK CFI f2aa $r13: $r13 .cfa: $rsp 24 +
STACK CFI f2ac $r14: $r14 .cfa: $rsp 16 +
STACK CFI f2ae $r15: $r15 .cfa: $rsp 8 +
STACK CFI INIT d500 835 .cfa: $rsp 8 + .ra: .cfa -8 + ^
STACK CFI d502 $r15: .cfa -16 + ^ .cfa: $rsp 16 +
STACK CFI d504 $r14: .cfa -24 + ^ .cfa: $rsp 24 +
STACK CFI d50d $r13: .cfa -32 + ^ .cfa: $rsp 32 +
STACK CFI d50f $r12: .cfa -40 + ^ .cfa: $rsp 40 +
STACK CFI d516 $rbp: .cfa -48 + ^ .cfa: $rsp 48 +
STACK CFI d517 $rbx: .cfa -56 + ^ .cfa: $rsp 56 +
STACK CFI d522 .cfa: $rsp 80 +
STACK CFI d775 .cfa: $rsp 56 +
STACK CFI d776 .cfa: $rsp 48 +
STACK CFI d777 .cfa: $rsp 40 +
STACK CFI d779 .cfa: $rsp 32 +
STACK CFI d77b .cfa: $rsp 24 +
STACK CFI d77d .cfa: $rsp 16 +
STACK CFI d77f .cfa: $rsp 8 +
STACK CFI d780 .cfa: $rsp 80 +
STACK CFI INIT dd40 67 .cfa: $rsp 8 + .ra: .cfa -8 + ^
STACK CFI dd42 $r13: .cfa -16 + ^ .cfa: $rsp 16 +
STACK CFI dd44 $r12: .cfa -24 + ^ .cfa: $rsp 24 +
STACK CFI dd48 $rbp: .cfa -32 + ^ .cfa: $rsp 32 +
STACK CFI dd49 $rbx: .cfa -40 + ^ .cfa: $rsp 40 +
STACK CFI dd52 .cfa: $rsp 48 +
STACK CFI dda0 .cfa: $rsp 40 +
STACK CFI dda1 .cfa: $rsp 32 +
STACK CFI dda2 .cfa: $rsp 24 +
STACK CFI dda4 .cfa: $rsp 16 +
STACK CFI dda6 .cfa: $rsp 8 +
STACK CFI INIT ddb0 12 .cfa: $rsp 8 + .ra: .cfa -8 + ^
STACK CFI ddb1 $rbx: .cfa -16 + ^ .cfa: $rsp 16 +
STACK CFI ddbd .cfa: $rsp 8 +
STACK CFI INIT ddd0 4a .cfa: $rsp 8 + .ra: .cfa -8 + ^
STACK CFI ddd1 $rbp: .cfa -16 + ^ .cfa: $rsp 16 +
STACK CFI ddd2 $rbx: .cfa -24 + ^ .cfa: $rsp 24 +
STACK CFI dde1 .cfa: $rsp 32 +
STACK CFI de15 .cfa: $rsp 24 +
STACK CFI de18 .cfa: $rsp 16 +
STACK CFI de19 .cfa: $rsp 8 +
STACK CFI INIT de20 19f .cfa: $rsp 8 + .ra: .cfa -8 + ^
STACK CFI de22 $r14: .cfa -16 + ^ .cfa: $rsp 16 +
STACK CFI de24 $r13: .cfa -24 + ^ .cfa: $rsp 24 +
STACK CFI de29 $r12: .cfa -32 + ^ .cfa: $rsp 32 +
STACK CFI de2a $rbp: .cfa -40 + ^ .cfa: $rsp 40 +
STACK CFI de2f $rbx: .cfa -48 + ^ .cfa: $rsp 48 +
STACK CFI de4b .cfa: $rsp 4224 +
STACK CFI de89 .cfa: $rsp 48 +
STACK CFI de8a .cfa: $rsp 40 +
STACK CFI de8b .cfa: $rsp 32 +
STACK CFI de8d .cfa: $rsp 24 +
STACK CFI de8f .cfa: $rsp 16 +
STACK CFI de91 .cfa: $rsp 8 +
STACK CFI de98 .cfa: $rsp 4224 +
STACK CFI INIT dfc0 1a7 .cfa: $rsp 8 + .ra: .cfa -8 + ^
STACK CFI dfc2 $r14: .cfa -16 + ^ .cfa: $rsp 16 +
STACK CFI dfc4 $r13: .cfa -24 + ^ .cfa: $rsp 24 +
STACK CFI dfcd $r12: .cfa -32 + ^ .cfa: $rsp 32 +
STACK CFI dfce $rbp: .cfa -40 + ^ .cfa: $rsp 40 +
STACK CFI dfd2 $rbx: .cfa -48 + ^ .cfa: $rsp 48 +
STACK CFI dfdc .cfa: $rsp 4992 +
STACK CFI e029 .cfa: $rsp 48 +
STACK CFI e02a .cfa: $rsp 40 +
STACK CFI e02b .cfa: $rsp 32 +
STACK CFI e02d .cfa: $rsp 24 +
STACK CFI e02f .cfa: $rsp 16 +
STACK CFI e031 .cfa: $rsp 8 +
STACK CFI e038 .cfa: $rsp 4992 +
STACK CFI INIT e170 e6 .cfa: $rsp 8 + .ra: .cfa -8 + ^
STACK CFI e172 $r15: .cfa -16 + ^ .cfa: $rsp 16 +
STACK CFI e174 $r14: .cfa -24 + ^ .cfa: $rsp 24 +
STACK CFI e179 $r13: .cfa -32 + ^ .cfa: $rsp 32 +
STACK CFI e17b $r12: .cfa -40 + ^ .cfa: $rsp 40 +
STACK CFI e17f $rbp: .cfa -48 + ^ .cfa: $rsp 48 +
STACK CFI e180 $rbx: .cfa -56 + ^ .cfa: $rsp 56 +
STACK CFI e191 .cfa: $rsp 64 +
STACK CFI e1cb .cfa: $rsp 56 +
STACK CFI e1d2 .cfa: $rsp 48 +
STACK CFI e1d3 .cfa: $rsp 40 +
STACK CFI e1d5 .cfa: $rsp 32 +
STACK CFI e1d7 .cfa: $rsp 24 +
STACK CFI e1d9 .cfa: $rsp 16 +
STACK CFI e1db .cfa: $rsp 8 +
STACK CFI e1e0 .cfa: $rsp 64 +
STACK CFI e216 .cfa: $rsp 56 +
STACK CFI e217 .cfa: $rsp 48 +
STACK CFI e218 .cfa: $rsp 40 +
STACK CFI e21a .cfa: $rsp 32 +
STACK CFI e21c .cfa: $rsp 24 +
STACK CFI e21e .cfa: $rsp 16 +
STACK CFI e220 .cfa: $rsp 8 +
STACK CFI e228 .cfa: $rsp 64 +
STACK CFI e23e .cfa: $rsp 56 +
STACK CFI e248 .cfa: $rsp 48 +
STACK CFI e249 .cfa: $rsp 40 +
STACK CFI e24b .cfa: $rsp 32 +
STACK CFI e24d .cfa: $rsp 24 +
STACK CFI e24f .cfa: $rsp 16 +
STACK CFI e251 .cfa: $rsp 8 +
STACK CFI INIT e260 119 .cfa: $rsp 8 + .ra: .cfa -8 + ^
STACK CFI e262 $r13: .cfa -16 + ^ .cfa: $rsp 16 +
STACK CFI e264 $r12: .cfa -24 + ^ .cfa: $rsp 24 +
STACK CFI e268 $rbp: .cfa -32 + ^ .cfa: $rsp 32 +
STACK CFI e269 $rbx: .cfa -40 + ^ .cfa: $rsp 40 +
STACK CFI e277 .cfa: $rsp 336 +
STACK CFI e339 .cfa: $rsp 40 +
STACK CFI e33a .cfa: $rsp 32 +
STACK CFI e33b .cfa: $rsp 24 +
STACK CFI e33d .cfa: $rsp 16 +
STACK CFI e33f .cfa: $rsp 8 +
STACK CFI e340 .cfa: $rsp 336 +
STACK CFI INIT e380 32 .cfa: $rsp 8 + .ra: .cfa -8 + ^
STACK CFI e381 $rbx: .cfa -16 + ^ .cfa: $rsp 16 +
STACK CFI e390 .cfa: $rsp 8 +
STACK CFI e398 .cfa: $rsp 16 +
STACK CFI e3ac .cfa: $rsp 8 +
STACK CFI INIT e3c0 4b .cfa: $rsp 8 + .ra: .cfa -8 + ^
STACK CFI INIT e410 7d .cfa: $rsp 8 + .ra: .cfa -8 + ^
STACK CFI e412 $r13: .cfa -16 + ^ .cfa: $rsp 16 +
STACK CFI e414 $r12: .cfa -24 + ^ .cfa: $rsp 24 +
STACK CFI e418 $rbp: .cfa -32 + ^ .cfa: $rsp 32 +
STACK CFI e419 $rbx: .cfa -40 + ^ .cfa: $rsp 40 +
STACK CFI e426 .cfa: $rsp 48 +
STACK CFI e470 .cfa: $rsp 40 +
STACK CFI e471 .cfa: $rsp 32 +
STACK CFI e472 .cfa: $rsp 24 +
STACK CFI e474 .cfa: $rsp 16 +
STACK CFI e476 .cfa: $rsp 8 +
STACK CFI e480 .cfa: $rsp 48 +
STACK CFI e484 .cfa: $rsp 40 +
STACK CFI e487 .cfa: $rsp 32 +
STACK CFI e488 .cfa: $rsp 24 +
STACK CFI e48a .cfa: $rsp 16 +
STACK CFI e48c .cfa: $rsp 8 +
STACK CFI INIT e490 53 .cfa: $rsp 8 + .ra: .cfa -8 + ^
STACK CFI e491 $rbp: .cfa -16 + ^ .cfa: $rsp 16 +
STACK CFI e492 $rbx: .cfa -24 + ^ .cfa: $rsp 24 +
STACK CFI e49f .cfa: $rsp 32 +
STACK CFI e4ae .cfa: $rsp 24 +
STACK CFI e4b1 .cfa: $rsp 16 +
STACK CFI e4b2 .cfa: $rsp 8 +
STACK CFI e4b8 .cfa: $rsp 32 +
STACK CFI e4d6 .cfa: $rsp 24 +
STACK CFI e4dd .cfa: $rsp 16 +
STACK CFI e4de .cfa: $rsp 8 +
STACK CFI INIT e4f0 34b .cfa: $rsp 8 + .ra: .cfa -8 + ^
STACK CFI e4f2 $r15: .cfa -16 + ^ .cfa: $rsp 16 +
STACK CFI e4f4 $r14: .cfa -24 + ^ .cfa: $rsp 24 +
STACK CFI e4f9 $r13: .cfa -32 + ^ .cfa: $rsp 32 +
STACK CFI e4fb $r12: .cfa -40 + ^ .cfa: $rsp 40 +
STACK CFI e4ff $rbp: .cfa -48 + ^ .cfa: $rsp 48 +
STACK CFI e500 $rbx: .cfa -56 + ^ .cfa: $rsp 56 +
STACK CFI e50f .cfa: $rsp 4208 +
STACK CFI e583 .cfa: $rsp 56 +
STACK CFI e584 .cfa: $rsp 48 +
STACK CFI e585 .cfa: $rsp 40 +
STACK CFI e587 .cfa: $rsp 32 +
STACK CFI e589 .cfa: $rsp 24 +
STACK CFI e58b .cfa: $rsp 16 +
STACK CFI e58d .cfa: $rsp 8 +
STACK CFI e590 .cfa: $rsp 4208 +
STACK CFI INIT f2c0 288 .cfa: $rsp 8 + .ra: .cfa -8 + ^
STACK CFI f312 $r15: .cfa -16 + ^ .cfa: $rsp 16 +
STACK CFI f314 $r14: .cfa -24 + ^ .cfa: $rsp 24 +
STACK CFI f319 $r13: .cfa -32 + ^ .cfa: $rsp 32 +
STACK CFI f31b $r12: .cfa -40 + ^ .cfa: $rsp 40 +
STACK CFI f326 $rbp: .cfa -48 + ^ .cfa: $rsp 48 +
STACK CFI f327 $rbx: .cfa -56 + ^ .cfa: $rsp 56 +
STACK CFI f334 .cfa: $rsp 80 +
STACK CFI f3fa .cfa: $rsp 56 +
STACK CFI f3fb $rbx: $rbx .cfa: $rsp 48 +
STACK CFI f3fc $rbp: $rbp .cfa: $rsp 40 +
STACK CFI f3fe $r12: $r12 .cfa: $rsp 32 +
STACK CFI f400 $r13: $r13 .cfa: $rsp 24 +
STACK CFI f402 $r14: $r14 .cfa: $rsp 16 +
STACK CFI f404 $r15: $r15 .cfa: $rsp 8 +
STACK CFI f406 $r12: .cfa -40 + ^ $r13: .cfa -32 + ^ $r14: .cfa -24 + ^ $r15: .cfa -16 + ^ $rbp: .cfa -48 + ^ $rbx: .cfa -56 + ^ .cfa: $rsp 80 +
STACK CFI INIT e840 930 .cfa: $rsp 8 + .ra: .cfa -8 + ^
STACK CFI e842 $r15: .cfa -16 + ^ .cfa: $rsp 16 +
STACK CFI e844 $r14: .cfa -24 + ^ .cfa: $rsp 24 +
STACK CFI e84d $r13: .cfa -32 + ^ .cfa: $rsp 32 +
STACK CFI e84f $r12: .cfa -40 + ^ .cfa: $rsp 40 +
STACK CFI e853 $rbp: .cfa -48 + ^ .cfa: $rsp 48 +
STACK CFI e854 $rbx: .cfa -56 + ^ .cfa: $rsp 56 +
STACK CFI e85b .cfa: $rsp 448 +
STACK CFI ea00 .cfa: $rsp 56 +
STACK CFI ea01 .cfa: $rsp 48 +
STACK CFI ea02 .cfa: $rsp 40 +
STACK CFI ea04 .cfa: $rsp 32 +
STACK CFI ea06 .cfa: $rsp 24 +
STACK CFI ea08 .cfa: $rsp 16 +
STACK CFI ea0a .cfa: $rsp 8 +
STACK CFI ea0b .cfa: $rsp 448 +
STACK CFI INIT f550 3 .cfa: $rsp 8 + .ra: .cfa -8 + ^
STACK CFI INIT f560 187 .cfa: $rsp 8 + .ra: .cfa -8 + ^
STACK CFI f562 $r15: .cfa -16 + ^ .cfa: $rsp 16 +
STACK CFI f564 $r14: .cfa -24 + ^ .cfa: $rsp 24 +
STACK CFI f566 $r13: .cfa -32 + ^ .cfa: $rsp 32 +
STACK CFI f568 $r12: .cfa -40 + ^ .cfa: $rsp 40 +
STACK CFI f569 $rbp: .cfa -48 + ^ .cfa: $rsp 48 +
STACK CFI f56a $rbx: .cfa -56 + ^ .cfa: $rsp 56 +
STACK CFI f56e .cfa: $rsp 112 +
STACK CFI f655 .cfa: $rsp 56 +
STACK CFI f656 .cfa: $rsp 48 +
STACK CFI f657 .cfa: $rsp 40 +
STACK CFI f659 .cfa: $rsp 32 +
STACK CFI f65b .cfa: $rsp 24 +
STACK CFI f65d .cfa: $rsp 16 +
STACK CFI f65f .cfa: $rsp 8 +
STACK CFI f660 .cfa: $rsp 112 +
STACK CFI INIT 10620 13 .cfa: $rsp 8 + .ra: .cfa -8 + ^
STACK CFI INIT 10640 20 .cfa: $rsp 8 + .ra: .cfa -8 + ^
STACK CFI 10648 $rbx: .cfa -16 + ^ .cfa: $rsp 16 +
STACK CFI 1065b .cfa: $rsp 8 +
STACK CFI INIT f6f0 bb .cfa: $rsp 8 + .ra: .cfa -8 + ^
STACK CFI f708 $r15: .cfa -16 + ^ .cfa: $rsp 16 +
STACK CFI f70a $r14: .cfa -24 + ^ .cfa: $rsp 24 +
STACK CFI f70f $r13: .cfa -32 + ^ .cfa: $rsp 32 +
STACK CFI f711 $r12: .cfa -40 + ^ .cfa: $rsp 40 +
STACK CFI f715 $rbp: .cfa -48 + ^ .cfa: $rsp 48 +
STACK CFI f716 $rbx: .cfa -56 + ^ .cfa: $rsp 56 +
STACK CFI f720 .cfa: $rsp 64 +
STACK CFI f733 .cfa: $rsp 56 +
STACK CFI f734 $rbx: $rbx .cfa: $rsp 48 +
STACK CFI f735 $rbp: $rbp .cfa: $rsp 40 +
STACK CFI f737 $r12: $r12 .cfa: $rsp 32 +
STACK CFI f739 $r13: $r13 .cfa: $rsp 24 +
STACK CFI f73b $r14: $r14 .cfa: $rsp 16 +
STACK CFI f73d $r15: $r15 .cfa: $rsp 8 +
STACK CFI f748 $r12: .cfa -40 + ^ $r13: .cfa -32 + ^ $r14: .cfa -24 + ^ $r15: .cfa -16 + ^ $rbp: .cfa -48 + ^ $rbx: .cfa -56 + ^ .cfa: $rsp 64 +
STACK CFI INIT f7b0 bc .cfa: $rsp 8 + .ra: .cfa -8 + ^
STACK CFI f7c1 $r15: .cfa -16 + ^ .cfa: $rsp 16 +
STACK CFI f7c3 $r14: .cfa -24 + ^ .cfa: $rsp 24 +
STACK CFI f7cb $r13: .cfa -32 + ^ .cfa: $rsp 32 +
STACK CFI f7cd $r12: .cfa -40 + ^ .cfa: $rsp 40 +
STACK CFI f7d1 $rbp: .cfa -48 + ^ .cfa: $rsp 48 +
STACK CFI f7d2 $rbx: .cfa -56 + ^ .cfa: $rsp 56 +
STACK CFI f7d6 .cfa: $rsp 64 +
STACK CFI f85d .cfa: $rsp 56 +
STACK CFI f861 $rbx: $rbx .cfa: $rsp 48 +
STACK CFI f862 $rbp: $rbp .cfa: $rsp 40 +
STACK CFI f864 $r12: $r12 .cfa: $rsp 32 +
STACK CFI f866 $r13: $r13 .cfa: $rsp 24 +
STACK CFI f868 $r14: $r14 .cfa: $rsp 16 +
STACK CFI f86a $r15: $r15 .cfa: $rsp 8 +
STACK CFI INIT f870 5fd .cfa: $rsp 8 + .ra: .cfa -8 + ^
STACK CFI f872 $r15: .cfa -16 + ^ .cfa: $rsp 16 +
STACK CFI f874 $r14: .cfa -24 + ^ .cfa: $rsp 24 +
STACK CFI f87d $r13: .cfa -32 + ^ .cfa: $rsp 32 +
STACK CFI f87f $r12: .cfa -40 + ^ .cfa: $rsp 40 +
STACK CFI f883 $rbp: .cfa -48 + ^ .cfa: $rsp 48 +
STACK CFI f884 $rbx: .cfa -56 + ^ .cfa: $rsp 56 +
STACK CFI f88b .cfa: $rsp 416 +
STACK CFI f9df .cfa: $rsp 56 +
STACK CFI f9e0 .cfa: $rsp 48 +
STACK CFI f9e1 .cfa: $rsp 40 +
STACK CFI f9e3 .cfa: $rsp 32 +
STACK CFI f9e5 .cfa: $rsp 24 +
STACK CFI f9e7 .cfa: $rsp 16 +
STACK CFI f9e9 .cfa: $rsp 8 +
STACK CFI f9f0 .cfa: $rsp 416 +
STACK CFI INIT fe70 51d .cfa: $rsp 8 + .ra: .cfa -8 + ^
STACK CFI fe72 $r15: .cfa -16 + ^ .cfa: $rsp 16 +
STACK CFI fe74 $r14: .cfa -24 + ^ .cfa: $rsp 24 +
STACK CFI fe76 $r13: .cfa -32 + ^ .cfa: $rsp 32 +
STACK CFI fe78 $r12: .cfa -40 + ^ .cfa: $rsp 40 +
STACK CFI fe7c $rbp: .cfa -48 + ^ .cfa: $rsp 48 +
STACK CFI fe7d $rbx: .cfa -56 + ^ .cfa: $rsp 56 +
STACK CFI fe84 .cfa: $rsp 384 +
STACK CFI 10084 .cfa: $rsp 56 +
STACK CFI 10085 .cfa: $rsp 48 +
STACK CFI 10086 .cfa: $rsp 40 +
STACK CFI 10088 .cfa: $rsp 32 +
STACK CFI 1008a .cfa: $rsp 24 +
STACK CFI 1008c .cfa: $rsp 16 +
STACK CFI 1008e .cfa: $rsp 8 +
STACK CFI 1008f .cfa: $rsp 384 +
STACK CFI INIT 10390 27 .cfa: $rsp 8 + .ra: .cfa -8 + ^
STACK CFI 10391 $rbx: .cfa -16 + ^ .cfa: $rsp 16 +
STACK CFI 103b6 .cfa: $rsp 8 +
STACK CFI INIT 10660 288 .cfa: $rsp 8 + .ra: .cfa -8 + ^
STACK CFI 106b2 $r15: .cfa -16 + ^ .cfa: $rsp 16 +
STACK CFI 106b4 $r14: .cfa -24 + ^ .cfa: $rsp 24 +
STACK CFI 106b9 $r13: .cfa -32 + ^ .cfa: $rsp 32 +
STACK CFI 106bb $r12: .cfa -40 + ^ .cfa: $rsp 40 +
STACK CFI 106c6 $rbp: .cfa -48 + ^ .cfa: $rsp 48 +
STACK CFI 106c7 $rbx: .cfa -56 + ^ .cfa: $rsp 56 +
STACK CFI 106d4 .cfa: $rsp 80 +
STACK CFI 10799 .cfa: $rsp 56 +
STACK CFI 1079a $rbx: $rbx .cfa: $rsp 48 +
STACK CFI 1079b $rbp: $rbp .cfa: $rsp 40 +
STACK CFI 1079d $r12: $r12 .cfa: $rsp 32 +
STACK CFI 1079f $r13: $r13 .cfa: $rsp 24 +
STACK CFI 107a1 $r14: $r14 .cfa: $rsp 16 +
STACK CFI 107a3 $r15: $r15 .cfa: $rsp 8 +
STACK CFI 107a5 $r12: .cfa -40 + ^ $r13: .cfa -32 + ^ $r14: .cfa -24 + ^ $r15: .cfa -16 + ^ $rbp: .cfa -48 + ^ $rbx: .cfa -56 + ^ .cfa: $rsp 80 +
STACK CFI INIT 103c0 251 .cfa: $rsp 8 + .ra: .cfa -8 + ^
STACK CFI 103c2 $r15: .cfa -16 + ^ .cfa: $rsp 16 +
STACK CFI 103c4 $r14: .cfa -24 + ^ .cfa: $rsp 24 +
STACK CFI 103c6 $r13: .cfa -32 + ^ .cfa: $rsp 32 +
STACK CFI 103c8 $r12: .cfa -40 + ^ .cfa: $rsp 40 +
STACK CFI 103c9 $rbp: .cfa -48 + ^ .cfa: $rsp 48 +
STACK CFI 103ca $rbx: .cfa -56 + ^ .cfa: $rsp 56 +
STACK CFI 103d1 .cfa: $rsp 304 +
STACK CFI 10545 .cfa: $rsp 56 +
STACK CFI 10546 .cfa: $rsp 48 +
STACK CFI 10547 .cfa: $rsp 40 +
STACK CFI 10549 .cfa: $rsp 32 +
STACK CFI 1054b .cfa: $rsp 24 +
STACK CFI 1054d .cfa: $rsp 16 +
STACK CFI 1054f .cfa: $rsp 8 +
STACK CFI 10550 .cfa: $rsp 304 +
STACK CFI INIT 1980 4a .cfa: $rsp 8 + .ra: .cfa -8 + ^
STACK CFI 1982 $r13: .cfa -16 + ^ .cfa: $rsp 16 +
STACK CFI 1984 $r12: .cfa -24 + ^ .cfa: $rsp 24 +
STACK CFI 1988 $rbp: .cfa -32 + ^ .cfa: $rsp 32 +
STACK CFI 1989 $rbx: .cfa -40 + ^ .cfa: $rsp 40 +
STACK CFI 198d .cfa: $rsp 48 +
STACK CFI 19c3 .cfa: $rsp 40 +
STACK CFI 19c4 .cfa: $rsp 32 +
STACK CFI 19c5 .cfa: $rsp 24 +
STACK CFI 19c7 .cfa: $rsp 16 +
STACK CFI 19c9 .cfa: $rsp 8 +
STACK CFI INIT 19ca 20 .cfa: $rsp 8 + .ra: .cfa -8 + ^
STACK CFI 19d2 .cfa: $rsp 16 +
STACK CFI INIT 19ea 20 .cfa: $rsp 8 + .ra: .cfa -8 + ^
STACK CFI 19f2 .cfa: $rsp 16 +
STACK CFI INIT 1a0a 1d .cfa: $rsp 8 + .ra: .cfa -8 + ^
STACK CFI 1a10 .cfa: $rsp 16 +
STACK CFI 1a15 .cfa: $rsp 8 +
STACK CFI INIT 1a28 20 .cfa: $rsp 8 + .ra: .cfa -8 + ^
STACK CFI 1a30 .cfa: $rsp 16 +
STACK CFI INIT 1a48 20 .cfa: $rsp 8 + .ra: .cfa -8 + ^
STACK CFI 1a50 .cfa: $rsp 16 +
STACK CFI INIT 1a68 2c .cfa: $rsp 8 + .ra: .cfa -8 + ^
STACK CFI 1a69 $rbp: .cfa -16 + ^ .cfa: $rsp 16 +
STACK CFI 1a6a $rbx: .cfa -24 + ^ .cfa: $rsp 24 +
STACK CFI 1a6f .cfa: $rsp 32 +
STACK CFI 1a8a .cfa: $rsp 24 +
STACK CFI 1a8e .cfa: $rsp 16 +
STACK CFI 1a8f .cfa: $rsp 8 +
STACK CFI INIT 1a94 1ec .cfa: $rsp 8 + .ra: .cfa -8 + ^
STACK CFI 1a96 $r15: .cfa -16 + ^ .cfa: $rsp 16 +
STACK CFI 1a98 $r14: .cfa -24 + ^ .cfa: $rsp 24 +
STACK CFI 1a9a $r13: .cfa -32 + ^ .cfa: $rsp 32 +
STACK CFI 1a9c $r12: .cfa -40 + ^ .cfa: $rsp 40 +
STACK CFI 1aa0 $rbp: .cfa -48 + ^ .cfa: $rsp 48 +
STACK CFI 1aa1 $rbx: .cfa -56 + ^ .cfa: $rsp 56 +
STACK CFI 1aaa .cfa: $rsp 112 +
STACK CFI 1c75 .cfa: $rsp 56 +
STACK CFI 1c76 .cfa: $rsp 48 +
STACK CFI 1c77 .cfa: $rsp 40 +
STACK CFI 1c79 .cfa: $rsp 32 +
STACK CFI 1c7b .cfa: $rsp 24 +
STACK CFI 1c7d .cfa: $rsp 16 +
STACK CFI 1c7f .cfa: $rsp 8 +
STACK CFI INIT 1c80 67 .cfa: $rsp 8 + .ra: .cfa -8 + ^
STACK CFI 1c82 $r12: .cfa -16 + ^ .cfa: $rsp 16 +
STACK CFI 1c83 $rbp: .cfa -24 + ^ .cfa: $rsp 24 +
STACK CFI 1c87 $rbx: .cfa -32 + ^ .cfa: $rsp 32 +
STACK CFI 1c91 .cfa: $rsp 304 +
STACK CFI 1ce2 .cfa: $rsp 32 +
STACK CFI 1ce3 .cfa: $rsp 24 +
STACK CFI 1ce4 .cfa: $rsp 16 +
STACK CFI 1ce6 .cfa: $rsp 8 +
STACK CFI INIT 147e0 259 .cfa: $rsp 8 + .ra: .cfa -8 + ^
STACK CFI 147e2 $r15: .cfa -16 + ^ .cfa: $rsp 16 +
STACK CFI 147e4 $r14: .cfa -24 + ^ .cfa: $rsp 24 +
STACK CFI 147ea $r13: .cfa -32 + ^ .cfa: $rsp 32 +
STACK CFI 147ec $r12: .cfa -40 + ^ .cfa: $rsp 40 +
STACK CFI 147f0 $rbp: .cfa -48 + ^ .cfa: $rsp 48 +
STACK CFI 147f1 $rbx: .cfa -56 + ^ .cfa: $rsp 56 +
STACK CFI 147f8 .cfa: $rsp 64 +
STACK CFI 1485d .cfa: $rsp 56 +
STACK CFI 14860 .cfa: $rsp 48 +
STACK CFI 14861 .cfa: $rsp 40 +
STACK CFI 14863 .cfa: $rsp 32 +
STACK CFI 14865 .cfa: $rsp 24 +
STACK CFI 14867 .cfa: $rsp 16 +
STACK CFI 14869 .cfa: $rsp 8 +
STACK CFI 14870 .cfa: $rsp 64 +
STACK CFI 14943 .cfa: $rsp 56 +
STACK CFI 14944 .cfa: $rsp 48 +
STACK CFI 1494a .cfa: $rsp 40 +
STACK CFI 1494c .cfa: $rsp 32 +
STACK CFI 1494e .cfa: $rsp 24 +
STACK CFI 14950 .cfa: $rsp 16 +
STACK CFI 14952 .cfa: $rsp 8 +
STACK CFI 14958 .cfa: $rsp 64 +
STACK CFI 14a0d .cfa: $rsp 56 +
STACK CFI 14a10 .cfa: $rsp 48 +
STACK CFI 14a11 .cfa: $rsp 40 +
STACK CFI 14a13 .cfa: $rsp 32 +
STACK CFI 14a15 .cfa: $rsp 24 +
STACK CFI 14a17 .cfa: $rsp 16 +
STACK CFI 14a19 .cfa: $rsp 8 +
STACK CFI 14a1a .cfa: $rsp 64 +
STACK CFI INIT 14a40 257 .cfa: $rsp 8 + .ra: .cfa -8 + ^
STACK CFI 14a62 $r15: .cfa -16 + ^ .cfa: $rsp 16 +
STACK CFI 14a64 $r14: .cfa -24 + ^ .cfa: $rsp 24 +
STACK CFI 14a66 $r13: .cfa -32 + ^ .cfa: $rsp 32 +
STACK CFI 14a68 $r12: .cfa -40 + ^ .cfa: $rsp 40 +
STACK CFI 14a69 $rbp: .cfa -48 + ^ .cfa: $rsp 48 +
STACK CFI 14a6a $rbx: .cfa -56 + ^ .cfa: $rsp 56 +
STACK CFI 14a71 .cfa: $rsp 80 +
STACK CFI 14aa1 .cfa: $rsp 56 +
STACK CFI 14aa2 $rbx: $rbx .cfa: $rsp 48 +
STACK CFI 14aa3 $rbp: $rbp .cfa: $rsp 40 +
STACK CFI 14aa5 $r12: $r12 .cfa: $rsp 32 +
STACK CFI 14aa7 $r13: $r13 .cfa: $rsp 24 +
STACK CFI 14aa9 $r14: $r14 .cfa: $rsp 16 +
STACK CFI 14aab $r15: $r15 .cfa: $rsp 8 +
STACK CFI 14ab0 $r12: .cfa -40 + ^ $r13: .cfa -32 + ^ $r14: .cfa -24 + ^ $r15: .cfa -16 + ^ $rbp: .cfa -48 + ^ $rbx: .cfa -56 + ^ .cfa: $rsp 80 +
STACK CFI INIT 14ca0 250 .cfa: $rsp 8 + .ra: .cfa -8 + ^
STACK CFI 14ca2 $r15: .cfa -16 + ^ .cfa: $rsp 16 +
STACK CFI 14ca4 $r14: .cfa -24 + ^ .cfa: $rsp 24 +
STACK CFI 14ca6 $r13: .cfa -32 + ^ .cfa: $rsp 32 +
STACK CFI 14ca8 $r12: .cfa -40 + ^ .cfa: $rsp 40 +
STACK CFI 14cac $rbp: .cfa -48 + ^ .cfa: $rsp 48 +
STACK CFI 14cad $rbx: .cfa -56 + ^ .cfa: $rsp 56 +
STACK CFI 14cb4 .cfa: $rsp 80 +
STACK CFI 14d60 .cfa: $rsp 56 +
STACK CFI 14d61 .cfa: $rsp 48 +
STACK CFI 14d62 .cfa: $rsp 40 +
STACK CFI 14d64 .cfa: $rsp 32 +
STACK CFI 14d66 .cfa: $rsp 24 +
STACK CFI 14d68 .cfa: $rsp 16 +
STACK CFI 14d6a .cfa: $rsp 8 +
STACK CFI 14d70 .cfa: $rsp 80 +
STACK CFI INIT 108f0 e0e .cfa: $rsp 8 + .ra: .cfa -8 + ^
STACK CFI 108f2 $r15: .cfa -16 + ^ .cfa: $rsp 16 +
STACK CFI 108f4 $r14: .cfa -24 + ^ .cfa: $rsp 24 +
STACK CFI 108fa $r13: .cfa -32 + ^ .cfa: $rsp 32 +
STACK CFI 108fc $r12: .cfa -40 + ^ .cfa: $rsp 40 +
STACK CFI 108fd $rbp: .cfa -48 + ^ .cfa: $rsp 48 +
STACK CFI 108fe $rbx: .cfa -56 + ^ .cfa: $rsp 56 +
STACK CFI 10905 .cfa: $rsp 2448 +
STACK CFI 10bb1 .cfa: $rsp 56 +
STACK CFI 10bb2 .cfa: $rsp 48 +
STACK CFI 10bb3 .cfa: $rsp 40 +
STACK CFI 10bb5 .cfa: $rsp 32 +
STACK CFI 10bb7 .cfa: $rsp 24 +
STACK CFI 10bb9 .cfa: $rsp 16 +
STACK CFI 10bbb .cfa: $rsp 8 +
STACK CFI 10bc0 .cfa: $rsp 2448 +
STACK CFI INIT 11700 21d9 .cfa: $rsp 8 + .ra: .cfa -8 + ^
STACK CFI 11701 $rbp: .cfa -16 + ^ .cfa: $rsp 16 +
STACK CFI 11709 .cfa: $rbp 16 +
STACK CFI 11711 $r12: .cfa -48 + ^ $r13: .cfa -40 + ^ $r14: .cfa -32 + ^ $r15: .cfa -24 + ^
STACK CFI 11716 $rbx: .cfa -56 + ^
STACK CFI 1185f .cfa: $rsp 8 +
STACK CFI 11860 .cfa: $rbp 16 +
STACK CFI INIT 138e0 343 .cfa: $rsp 8 + .ra: .cfa -8 + ^
STACK CFI 138e2 $r15: .cfa -16 + ^ .cfa: $rsp 16 +
STACK CFI 138e4 $r14: .cfa -24 + ^ .cfa: $rsp 24 +
STACK CFI 138e9 $r13: .cfa -32 + ^ .cfa: $rsp 32 +
STACK CFI 138eb $r12: .cfa -40 + ^ .cfa: $rsp 40 +
STACK CFI 138ef $rbp: .cfa -48 + ^ .cfa: $rsp 48 +
STACK CFI 138f0 $rbx: .cfa -56 + ^ .cfa: $rsp 56 +
STACK CFI 138f7 .cfa: $rsp 240 +
STACK CFI 13a85 .cfa: $rsp 56 +
STACK CFI 13a86 .cfa: $rsp 48 +
STACK CFI 13a87 .cfa: $rsp 40 +
STACK CFI 13a89 .cfa: $rsp 32 +
STACK CFI 13a8b .cfa: $rsp 24 +
STACK CFI 13a8d .cfa: $rsp 16 +
STACK CFI 13a8f .cfa: $rsp 8 +
STACK CFI 13a90 .cfa: $rsp 240 +
STACK CFI INIT 13c30 496 .cfa: $rsp 8 + .ra: .cfa -8 + ^
STACK CFI 13c32 $r15: .cfa -16 + ^ .cfa: $rsp 16 +
STACK CFI 13c34 $r14: .cfa -24 + ^ .cfa: $rsp 24 +
STACK CFI 13c39 $r13: .cfa -32 + ^ .cfa: $rsp 32 +
STACK CFI 13c3b $r12: .cfa -40 + ^ .cfa: $rsp 40 +
STACK CFI 13c3c $rbp: .cfa -48 + ^ .cfa: $rsp 48 +
STACK CFI 13c3d $rbx: .cfa -56 + ^ .cfa: $rsp 56 +
STACK CFI 13c46 .cfa: $rsp 544 +
STACK CFI 13eaf .cfa: $rsp 56 +
STACK CFI 13eb0 .cfa: $rsp 48 +
STACK CFI 13eb1 .cfa: $rsp 40 +
STACK CFI 13eb3 .cfa: $rsp 32 +
STACK CFI 13eb5 .cfa: $rsp 24 +
STACK CFI 13eb7 .cfa: $rsp 16 +
STACK CFI 13eb9 .cfa: $rsp 8 +
STACK CFI 13eba .cfa: $rsp 544 +
STACK CFI INIT 140d0 422 .cfa: $rsp 8 + .ra: .cfa -8 + ^
STACK CFI 140d2 $r15: .cfa -16 + ^ .cfa: $rsp 16 +
STACK CFI 140d4 $r14: .cfa -24 + ^ .cfa: $rsp 24 +
STACK CFI 140d9 $r13: .cfa -32 + ^ .cfa: $rsp 32 +
STACK CFI 140db $r12: .cfa -40 + ^ .cfa: $rsp 40 +
STACK CFI 140df $rbp: .cfa -48 + ^ .cfa: $rsp 48 +
STACK CFI 140e0 $rbx: .cfa -56 + ^ .cfa: $rsp 56 +
STACK CFI 140ee .cfa: $rsp 480 +
STACK CFI 14180 .cfa: $rsp 56 +
STACK CFI 14181 .cfa: $rsp 48 +
STACK CFI 14182 .cfa: $rsp 40 +
STACK CFI 14184 .cfa: $rsp 32 +
STACK CFI 14186 .cfa: $rsp 24 +
STACK CFI 14188 .cfa: $rsp 16 +
STACK CFI 1418a .cfa: $rsp 8 +
STACK CFI 14190 .cfa: $rsp 480 +
STACK CFI INIT 14500 109 .cfa: $rsp 8 + .ra: .cfa -8 + ^
STACK CFI 14501 $rbp: .cfa -16 + ^ .cfa: $rsp 16 +
STACK CFI 14518 .cfa: $rbp 16 +
STACK CFI 1451f $r12: .cfa -40 + ^ $r13: .cfa -32 + ^ $r14: .cfa -24 + ^ $rbx: .cfa -48 + ^
STACK CFI 145c6 .cfa: $rsp 8 +
STACK CFI 145c7 .cfa: $rbp 16 +
STACK CFI INIT 14610 109 .cfa: $rsp 8 + .ra: .cfa -8 + ^
STACK CFI 14611 $rbp: .cfa -16 + ^ .cfa: $rsp 16 +
STACK CFI 14625 .cfa: $rbp 16 +
STACK CFI 1462c $r12: .cfa -40 + ^ $r13: .cfa -32 + ^ $r14: .cfa -24 + ^ $rbx: .cfa -48 + ^
STACK CFI 146d6 .cfa: $rsp 8 +
STACK CFI 146d7 .cfa: $rbp 16 +
STACK CFI INIT 14720 26 .cfa: $rsp 8 + .ra: .cfa -8 + ^
STACK CFI 14724 .cfa: $rsp 16 +
STACK CFI 14726 .cfa: $rsp 24 +
STACK CFI 14728 .cfa: $rsp 32 +
STACK CFI 14745 .cfa: $rsp 8 +
STACK CFI INIT 14750 25 .cfa: $rsp 8 + .ra: .cfa -8 + ^
STACK CFI 14754 .cfa: $rsp 16 +
STACK CFI 14756 .cfa: $rsp 24 +
STACK CFI 14758 .cfa: $rsp 32 +
STACK CFI 14774 .cfa: $rsp 8 +
STACK CFI INIT 14780 24 .cfa: $rsp 8 + .ra: .cfa -8 + ^
STACK CFI 14784 .cfa: $rsp 16 +
STACK CFI 14788 .cfa: $rsp 24 +
STACK CFI 1478a .cfa: $rsp 32 +
STACK CFI 147a3 .cfa: $rsp 8 +
STACK CFI INIT 147b0 23 .cfa: $rsp 8 + .ra: .cfa -8 + ^
STACK CFI 147b4 .cfa: $rsp 16 +
STACK CFI 147b8 .cfa: $rsp 24 +
STACK CFI 147ba .cfa: $rsp 32 +
STACK CFI 147d2 .cfa: $rsp 8 +
STACK CFI INIT 14ef0 23 .cfa: $rsp 8 + .ra: .cfa -8 + ^
STACK CFI 14f09 .cfa: $rsp 16 +
STACK CFI INIT 14f20 1a .cfa: $rsp 8 + .ra: .cfa -8 + ^
STACK CFI INIT 14f40 78 .cfa: $rsp 8 + .ra: .cfa -8 + ^
STACK CFI 14f42 $r12: .cfa -16 + ^ .cfa: $rsp 16 +
STACK CFI 14f43 $rbp: .cfa -24 + ^ .cfa: $rsp 24 +
STACK CFI 14f47 $rbx: .cfa -32 + ^ .cfa: $rsp 32 +
STACK CFI 14f7f .cfa: $rsp 24 +
STACK CFI 14f80 .cfa: $rsp 16 +
STACK CFI 14f82 .cfa: $rsp 8 +
STACK CFI 14f88 .cfa: $rsp 32 +
STACK CFI 14f95 .cfa: $rsp 24 +
STACK CFI 14f96 .cfa: $rsp 16 +
STACK CFI 14f98 .cfa: $rsp 8 +
STACK CFI 14f99 .cfa: $rsp 32 +
STACK CFI INIT 14fc0 2c .cfa: $rsp 8 + .ra: .cfa -8 + ^
STACK CFI 14fd4 .cfa: $rsp 16 +
STACK CFI INIT 14ff0 5d .cfa: $rsp 8 + .ra: .cfa -8 + ^
STACK CFI 14ff2 $r12: .cfa -16 + ^ .cfa: $rsp 16 +
STACK CFI 14ff6 $rbp: .cfa -24 + ^ .cfa: $rsp 24 +
STACK CFI 14ff7 $rbx: .cfa -32 + ^ .cfa: $rsp 32 +
STACK CFI 1503a .cfa: $rsp 24 +
STACK CFI 1503b .cfa: $rsp 16 +
STACK CFI 1503d .cfa: $rsp 8 +
STACK CFI 15040 .cfa: $rsp 32 +
STACK CFI INIT 15050 15 .cfa: $rsp 8 + .ra: .cfa -8 + ^
STACK CFI INIT 15070 b6 .cfa: $rsp 8 + .ra: .cfa -8 + ^
STACK CFI 15072 $r13: .cfa -16 + ^ .cfa: $rsp 16 +
STACK CFI 15074 $r12: .cfa -24 + ^ .cfa: $rsp 24 +
STACK CFI 15075 $rbp: .cfa -32 + ^ .cfa: $rsp 32 +
STACK CFI 15076 $rbx: .cfa -40 + ^ .cfa: $rsp 40 +
STACK CFI 1507a .cfa: $rsp 48 +
STACK CFI 150ae .cfa: $rsp 40 +
STACK CFI 150af .cfa: $rsp 32 +
STACK CFI 150b0 .cfa: $rsp 24 +
STACK CFI 150b2 .cfa: $rsp 16 +
STACK CFI 150b4 .cfa: $rsp 8 +
STACK CFI 150b8 .cfa: $rsp 48 +
STACK CFI INIT 15130 ff .cfa: $rsp 8 + .ra: .cfa -8 + ^
STACK CFI 15131 $rbp: .cfa -16 + ^ .cfa: $rsp 16 +
STACK CFI 15132 $rbx: .cfa -24 + ^ .cfa: $rsp 24 +
STACK CFI 15136 .cfa: $rsp 32 +
STACK CFI 151b9 .cfa: $rsp 24 +
STACK CFI 151ba .cfa: $rsp 16 +
STACK CFI 151bb .cfa: $rsp 8 +
STACK CFI 151c0 .cfa: $rsp 32 +
STACK CFI 151cd .cfa: $rsp 24 +
STACK CFI 151d0 .cfa: $rsp 16 +
STACK CFI 151d1 .cfa: $rsp 8 +
STACK CFI 151d2 .cfa: $rsp 32 +
STACK CFI INIT 15230 f0 .cfa: $rsp 8 + .ra: .cfa -8 + ^
STACK CFI 15232 $r15: .cfa -16 + ^ .cfa: $rsp 16 +
STACK CFI 15234 $r14: .cfa -24 + ^ .cfa: $rsp 24 +
STACK CFI 15236 $r13: .cfa -32 + ^ .cfa: $rsp 32 +
STACK CFI 15238 $r12: .cfa -40 + ^ .cfa: $rsp 40 +
STACK CFI 15239 $rbp: .cfa -48 + ^ .cfa: $rsp 48 +
STACK CFI 1523a $rbx: .cfa -56 + ^ .cfa: $rsp 56 +
STACK CFI 1523e .cfa: $rsp 80 +
STACK CFI 152ea .cfa: $rsp 56 +
STACK CFI 152eb .cfa: $rsp 48 +
STACK CFI 152ec .cfa: $rsp 40 +
STACK CFI 152ee .cfa: $rsp 32 +
STACK CFI 152f0 .cfa: $rsp 24 +
STACK CFI 152f2 .cfa: $rsp 16 +
STACK CFI 152f4 .cfa: $rsp 8 +
STACK CFI 152f5 .cfa: $rsp 80 +
STACK CFI INIT 15320 ef .cfa: $rsp 8 + .ra: .cfa -8 + ^
STACK CFI 15322 $r15: .cfa -16 + ^ .cfa: $rsp 16 +
STACK CFI 15324 $r14: .cfa -24 + ^ .cfa: $rsp 24 +
STACK CFI 15326 $r13: .cfa -32 + ^ .cfa: $rsp 32 +
STACK CFI 15328 $r12: .cfa -40 + ^ .cfa: $rsp 40 +
STACK CFI 15329 $rbp: .cfa -48 + ^ .cfa: $rsp 48 +
STACK CFI 1532a $rbx: .cfa -56 + ^ .cfa: $rsp 56 +
STACK CFI 1532e .cfa: $rsp 80 +
STACK CFI 153d9 .cfa: $rsp 56 +
STACK CFI 153da .cfa: $rsp 48 +
STACK CFI 153db .cfa: $rsp 40 +
STACK CFI 153dd .cfa: $rsp 32 +
STACK CFI 153df .cfa: $rsp 24 +
STACK CFI 153e1 .cfa: $rsp 16 +
STACK CFI 153e3 .cfa: $rsp 8 +
STACK CFI 153e4 .cfa: $rsp 80 +
STACK CFI INIT 15410 41 .cfa: $rsp 8 + .ra: .cfa -8 + ^
STACK CFI 15411 $rbx: .cfa -16 + ^ .cfa: $rsp 16 +
STACK CFI 15431 .cfa: $rsp 8 +
STACK CFI 15432 .cfa: $rsp 16 +
STACK CFI INIT 15460 89 .cfa: $rsp 8 + .ra: .cfa -8 + ^
STACK CFI 15464 .cfa: $rsp 16 +
STACK CFI 15487 .cfa: $rsp 8 +
STACK CFI 1548c .cfa: $rsp 16 +
STACK CFI INIT 154f0 df .cfa: $rsp 8 + .ra: .cfa -8 + ^
STACK CFI 154f2 $r12: .cfa -16 + ^ .cfa: $rsp 16 +
STACK CFI 154f3 $rbp: .cfa -24 + ^ .cfa: $rsp 24 +
STACK CFI 154f4 $rbx: .cfa -32 + ^ .cfa: $rsp 32 +
STACK CFI 154f8 .cfa: $rsp 64 +
STACK CFI 15555 .cfa: $rsp 32 +
STACK CFI 15556 .cfa: $rsp 24 +
STACK CFI 15557 .cfa: $rsp 16 +
STACK CFI 15559 .cfa: $rsp 8 +
STACK CFI 15560 .cfa: $rsp 64 +
STACK CFI INIT 155f0 23a .cfa: $rsp 8 + .ra: .cfa -8 + ^
STACK CFI 155f2 $r15: .cfa -16 + ^ .cfa: $rsp 16 +
STACK CFI 155f4 $r14: .cfa -24 + ^ .cfa: $rsp 24 +
STACK CFI 155f6 $r13: .cfa -32 + ^ .cfa: $rsp 32 +
STACK CFI 155f8 $r12: .cfa -40 + ^ .cfa: $rsp 40 +
STACK CFI 155f9 $rbp: .cfa -48 + ^ .cfa: $rsp 48 +
STACK CFI 155fa $rbx: .cfa -56 + ^ .cfa: $rsp 56 +
STACK CFI 155fe .cfa: $rsp 128 +
STACK CFI 156f5 .cfa: $rsp 56 +
STACK CFI 156f6 .cfa: $rsp 48 +
STACK CFI 156f7 .cfa: $rsp 40 +
STACK CFI 156f9 .cfa: $rsp 32 +
STACK CFI 156fb .cfa: $rsp 24 +
STACK CFI 156fd .cfa: $rsp 16 +
STACK CFI 156ff .cfa: $rsp 8 +
STACK CFI 15700 .cfa: $rsp 128 +
STACK CFI INIT 155d0 5 .cfa: $rsp 8 + .ra: .cfa -8 + ^
STACK CFI INIT 15830 23a .cfa: $rsp 8 + .ra: .cfa -8 + ^
STACK CFI 15832 $r15: .cfa -16 + ^ .cfa: $rsp 16 +
STACK CFI 15834 $r14: .cfa -24 + ^ .cfa: $rsp 24 +
STACK CFI 15836 $r13: .cfa -32 + ^ .cfa: $rsp 32 +
STACK CFI 15838 $r12: .cfa -40 + ^ .cfa: $rsp 40 +
STACK CFI 15839 $rbp: .cfa -48 + ^ .cfa: $rsp 48 +
STACK CFI 1583a $rbx: .cfa -56 + ^ .cfa: $rsp 56 +
STACK CFI 1583e .cfa: $rsp 128 +
STACK CFI 1592c .cfa: $rsp 56 +
STACK CFI 1592d .cfa: $rsp 48 +
STACK CFI 1592e .cfa: $rsp 40 +
STACK CFI 15930 .cfa: $rsp 32 +
STACK CFI 15932 .cfa: $rsp 24 +
STACK CFI 15934 .cfa: $rsp 16 +
STACK CFI 15936 .cfa: $rsp 8 +
STACK CFI 15940 .cfa: $rsp 128 +
STACK CFI INIT 155e0 5 .cfa: $rsp 8 + .ra: .cfa -8 + ^
STACK CFI INIT 15a70 c2 .cfa: $rsp 8 + .ra: .cfa -8 + ^
STACK CFI 15a72 $r12: .cfa -16 + ^ .cfa: $rsp 16 +
STACK CFI 15a73 $rbp: .cfa -24 + ^ .cfa: $rsp 24 +
STACK CFI 15a77 $rbx: .cfa -32 + ^ .cfa: $rsp 32 +
STACK CFI 15a7e .cfa: $rsp 48 +
STACK CFI 15aea .cfa: $rsp 32 +
STACK CFI 15aeb .cfa: $rsp 24 +
STACK CFI 15aec .cfa: $rsp 16 +
STACK CFI 15aee .cfa: $rsp 8 +
STACK CFI 15af0 .cfa: $rsp 48 +
STACK CFI INIT 15b40 b1 .cfa: $rsp 8 + .ra: .cfa -8 + ^
STACK CFI 15b42 $r15: .cfa -16 + ^ .cfa: $rsp 16 +
STACK CFI 15b44 $r14: .cfa -24 + ^ .cfa: $rsp 24 +
STACK CFI 15b48 $r13: .cfa -32 + ^ .cfa: $rsp 32 +
STACK CFI 15b4a $r12: .cfa -40 + ^ .cfa: $rsp 40 +
STACK CFI 15b4e $rbp: .cfa -48 + ^ .cfa: $rsp 48 +
STACK CFI 15b4f $rbx: .cfa -56 + ^ .cfa: $rsp 56 +
STACK CFI 15b62 .cfa: $rsp 96 +
STACK CFI 15bd9 .cfa: $rsp 56 +
STACK CFI 15bda .cfa: $rsp 48 +
STACK CFI 15bdb .cfa: $rsp 40 +
STACK CFI 15bdd .cfa: $rsp 32 +
STACK CFI 15bdf .cfa: $rsp 24 +
STACK CFI 15be1 .cfa: $rsp 16 +
STACK CFI 15be3 .cfa: $rsp 8 +
STACK CFI 15be8 .cfa: $rsp 96 +
STACK CFI INIT 15c00 7b .cfa: $rsp 8 + .ra: .cfa -8 + ^
STACK CFI 15c01 $rbx: .cfa -16 + ^ .cfa: $rsp 16 +
STACK CFI 15c0d .cfa: $rsp 64 +
STACK CFI 15c74 .cfa: $rsp 16 +
STACK CFI 15c75 .cfa: $rsp 8 +
STACK CFI 15c76 .cfa: $rsp 64 +
STACK CFI INIT 15c80 173 .cfa: $rsp 8 + .ra: .cfa -8 + ^
STACK CFI 15c82 $r14: .cfa -16 + ^ .cfa: $rsp 16 +
STACK CFI 15c84 $r13: .cfa -24 + ^ .cfa: $rsp 24 +
STACK CFI 15c86 $r12: .cfa -32 + ^ .cfa: $rsp 32 +
STACK CFI 15c87 $rbp: .cfa -40 + ^ .cfa: $rsp 40 +
STACK CFI 15c8a $rbx: .cfa -48 + ^ .cfa: $rsp 48 +
STACK CFI 15c94 .cfa: $rsp 80 +
STACK CFI 15d9f .cfa: $rsp 48 +
STACK CFI 15da0 .cfa: $rsp 40 +
STACK CFI 15da1 .cfa: $rsp 32 +
STACK CFI 15da3 .cfa: $rsp 24 +
STACK CFI 15da5 .cfa: $rsp 16 +
STACK CFI 15da7 .cfa: $rsp 8 +
STACK CFI 15db0 .cfa: $rsp 80 +
STACK CFI INIT 15fe0 2bd .cfa: $rsp 8 + .ra: .cfa -8 + ^
STACK CFI 15feb $r15: .cfa -16 + ^ .cfa: $rsp 16 +
STACK CFI 15fed $r14: .cfa -24 + ^ .cfa: $rsp 24 +
STACK CFI 15ff2 $r13: .cfa -32 + ^ .cfa: $rsp 32 +
STACK CFI 15ff4 $r12: .cfa -40 + ^ .cfa: $rsp 40 +
STACK CFI 15ff5 $rbp: .cfa -48 + ^ .cfa: $rsp 48 +
STACK CFI 15ff6 $rbx: .cfa -56 + ^ .cfa: $rsp 56 +
STACK CFI 16000 .cfa: $rsp 80 +
STACK CFI 16081 .cfa: $rsp 56 +
STACK CFI 16082 $rbx: $rbx .cfa: $rsp 48 +
STACK CFI 16083 $rbp: $rbp .cfa: $rsp 40 +
STACK CFI 16085 $r12: $r12 .cfa: $rsp 32 +
STACK CFI 16087 $r13: $r13 .cfa: $rsp 24 +
STACK CFI 16089 $r14: $r14 .cfa: $rsp 16 +
STACK CFI 1608b $r15: $r15 .cfa: $rsp 8 +
STACK CFI 16090 $r12: .cfa -40 + ^ $r13: .cfa -32 + ^ $r14: .cfa -24 + ^ $r15: .cfa -16 + ^ $rbp: .cfa -48 + ^ $rbx: .cfa -56 + ^ .cfa: $rsp 80 +
STACK CFI 160e1 .cfa: $rsp 56 +
STACK CFI 160e2 $rbx: $rbx .cfa: $rsp 48 +
STACK CFI 160e3 $rbp: $rbp .cfa: $rsp 40 +
STACK CFI 160e5 $r12: $r12 .cfa: $rsp 32 +
STACK CFI 160e7 $r13: $r13 .cfa: $rsp 24 +
STACK CFI 160e9 $r14: $r14 .cfa: $rsp 16 +
STACK CFI 160eb $r15: $r15 .cfa: $rsp 8 +
STACK CFI 160f0 $r12: .cfa -40 + ^ $r13: .cfa -32 + ^ $r14: .cfa -24 + ^ $r15: .cfa -16 + ^ $rbp: .cfa -48 + ^ $rbx: .cfa -56 + ^ .cfa: $rsp 80 +
STACK CFI 1620e .cfa: $rsp 56 +
STACK CFI 1620f $rbx: $rbx .cfa: $rsp 48 +
STACK CFI 16210 $rbp: $rbp .cfa: $rsp 40 +
STACK CFI 16212 $r12: $r12 .cfa: $rsp 32 +
STACK CFI 16214 $r13: $r13 .cfa: $rsp 24 +
STACK CFI 16216 $r14: $r14 .cfa: $rsp 16 +
STACK CFI 16218 $r15: $r15 .cfa: $rsp 8 +
STACK CFI 16220 $r12: .cfa -40 + ^ $r13: .cfa -32 + ^ $r14: .cfa -24 + ^ $r15: .cfa -16 + ^ $rbp: .cfa -48 + ^ $rbx: .cfa -56 + ^ .cfa: $rsp 80 +
STACK CFI INIT 162a0 14d .cfa: $rsp 8 + .ra: .cfa -8 + ^
STACK CFI 162ea $r15: .cfa -16 + ^ .cfa: $rsp 16 +
STACK CFI 162ec $r14: .cfa -24 + ^ .cfa: $rsp 24 +
STACK CFI 162ee $r13: .cfa -32 + ^ .cfa: $rsp 32 +
STACK CFI 162f0 $r12: .cfa -40 + ^ .cfa: $rsp 40 +
STACK CFI 162f1 $rbp: .cfa -48 + ^ .cfa: $rsp 48 +
STACK CFI 162f2 $rbx: .cfa -56 + ^ .cfa: $rsp 56 +
STACK CFI 162fc .cfa: $rsp 64 +
STACK CFI 163b9 .cfa: $rsp 56 +
STACK CFI 163ba $rbx: $rbx .cfa: $rsp 48 +
STACK CFI 163bb $rbp: $rbp .cfa: $rsp 40 +
STACK CFI 163bd $r12: $r12 .cfa: $rsp 32 +
STACK CFI 163bf $r13: $r13 .cfa: $rsp 24 +
STACK CFI 163c1 $r14: $r14 .cfa: $rsp 16 +
STACK CFI 163c3 $r15: $r15 .cfa: $rsp 8 +
STACK CFI 163c8 $r12: .cfa -40 + ^ $r13: .cfa -32 + ^ $r14: .cfa -24 + ^ $r15: .cfa -16 + ^ $rbp: .cfa -48 + ^ $rbx: .cfa -56 + ^ .cfa: $rsp 64 +
STACK CFI INIT 15e00 f0 .cfa: $rsp 8 + .ra: .cfa -8 + ^
STACK CFI 15e02 $r12: .cfa -16 + ^ .cfa: $rsp 16 +
STACK CFI 15e03 $rbp: .cfa -24 + ^ .cfa: $rsp 24 +
STACK CFI 15e07 $rbx: .cfa -32 + ^ .cfa: $rsp 32 +
STACK CFI 15e0e .cfa: $rsp 64 +
STACK CFI 15ebd .cfa: $rsp 32 +
STACK CFI 15ebe .cfa: $rsp 24 +
STACK CFI 15ebf .cfa: $rsp 16 +
STACK CFI 15ec1 .cfa: $rsp 8 +
STACK CFI 15ec8 .cfa: $rsp 64 +
STACK CFI INIT 15ef0 e8 .cfa: $rsp 8 + .ra: .cfa -8 + ^
STACK CFI 15ef2 $r12: .cfa -16 + ^ .cfa: $rsp 16 +
STACK CFI 15ef3 $rbp: .cfa -24 + ^ .cfa: $rsp 24 +
STACK CFI 15ef7 $rbx: .cfa -32 + ^ .cfa: $rsp 32 +
STACK CFI 15efe .cfa: $rsp 64 +
STACK CFI 15fab .cfa: $rsp 32 +
STACK CFI 15fac .cfa: $rsp 24 +
STACK CFI 15fad .cfa: $rsp 16 +
STACK CFI 15faf .cfa: $rsp 8 +
STACK CFI 15fb0 .cfa: $rsp 64 +
STACK CFI INIT 163f0 1f .cfa: $rsp 8 + .ra: .cfa -8 + ^
STACK CFI 163fb .cfa: $rsp 16 +
STACK CFI 1640e .cfa: $rsp 8 +
STACK CFI INIT 16410 5 .cfa: $rsp 8 + .ra: .cfa -8 + ^
STACK CFI INIT 16420 452 .cfa: $rsp 8 + .ra: .cfa -8 + ^
STACK CFI 16422 $r15: .cfa -16 + ^ .cfa: $rsp 16 +
STACK CFI 16424 $r14: .cfa -24 + ^ .cfa: $rsp 24 +
STACK CFI 16426 $r13: .cfa -32 + ^ .cfa: $rsp 32 +
STACK CFI 16428 $r12: .cfa -40 + ^ .cfa: $rsp 40 +
STACK CFI 16429 $rbp: .cfa -48 + ^ .cfa: $rsp 48 +
STACK CFI 1642a $rbx: .cfa -56 + ^ .cfa: $rsp 56 +
STACK CFI 1642e .cfa: $rsp 96 +
STACK CFI 16477 .cfa: $rsp 56 +
STACK CFI 1647a .cfa: $rsp 48 +
STACK CFI 1647b .cfa: $rsp 40 +
STACK CFI 1647d .cfa: $rsp 32 +
STACK CFI 1647f .cfa: $rsp 24 +
STACK CFI 16481 .cfa: $rsp 16 +
STACK CFI 16483 .cfa: $rsp 8 +
STACK CFI 16488 .cfa: $rsp 96 +
STACK CFI 165ae .cfa: $rsp 56 +
STACK CFI 165af .cfa: $rsp 48 +
STACK CFI 165b0 .cfa: $rsp 40 +
STACK CFI 165b2 .cfa: $rsp 32 +
STACK CFI 165b4 .cfa: $rsp 24 +
STACK CFI 165b6 .cfa: $rsp 16 +
STACK CFI 165b8 .cfa: $rsp 8 +
STACK CFI 165c0 .cfa: $rsp 96 +
STACK CFI INIT 16880 287 .cfa: $rsp 8 + .ra: .cfa -8 + ^
STACK CFI 16885 $r14: .cfa -16 + ^ .cfa: $rsp 16 +
STACK CFI 16887 $r13: .cfa -24 + ^ .cfa: $rsp 24 +
STACK CFI 16889 $r12: .cfa -32 + ^ .cfa: $rsp 32 +
STACK CFI 1688a $rbp: .cfa -40 + ^ .cfa: $rsp 40 +
STACK CFI 1688b $rbx: .cfa -48 + ^ .cfa: $rsp 48 +
STACK CFI 168ca .cfa: $rsp 40 +
STACK CFI 168cd .cfa: $rsp 32 +
STACK CFI 168cf .cfa: $rsp 24 +
STACK CFI 168d1 .cfa: $rsp 16 +
STACK CFI 168d3 .cfa: $rsp 8 +
STACK CFI 168d8 .cfa: $rsp 48 +
STACK CFI 16979 .cfa: $rsp 40 +
STACK CFI 1697a .cfa: $rsp 32 +
STACK CFI 1697c .cfa: $rsp 24 +
STACK CFI 1697e .cfa: $rsp 16 +
STACK CFI 16980 .cfa: $rsp 8 +
STACK CFI 16988 .cfa: $rsp 48 +
STACK CFI INIT 16b10 135 .cfa: $rsp 8 + .ra: .cfa -8 + ^
STACK CFI 16b12 $r15: .cfa -16 + ^ .cfa: $rsp 16 +
STACK CFI 16b14 $r14: .cfa -24 + ^ .cfa: $rsp 24 +
STACK CFI 16b16 $r13: .cfa -32 + ^ .cfa: $rsp 32 +
STACK CFI 16b18 $r12: .cfa -40 + ^ .cfa: $rsp 40 +
STACK CFI 16b1c $rbp: .cfa -48 + ^ .cfa: $rsp 48 +
STACK CFI 16b1d $rbx: .cfa -56 + ^ .cfa: $rsp 56 +
STACK CFI 16b21 .cfa: $rsp 96 +
STACK CFI 16c0e .cfa: $rsp 56 +
STACK CFI 16c0f .cfa: $rsp 48 +
STACK CFI 16c10 .cfa: $rsp 40 +
STACK CFI 16c12 .cfa: $rsp 32 +
STACK CFI 16c14 .cfa: $rsp 24 +
STACK CFI 16c16 .cfa: $rsp 16 +
STACK CFI 16c18 .cfa: $rsp 8 +
STACK CFI 16c19 .cfa: $rsp 96 +
STACK CFI INIT 16c50 e2 .cfa: $rsp 8 + .ra: .cfa -8 + ^
STACK CFI 16c52 $r13: .cfa -16 + ^ .cfa: $rsp 16 +
STACK CFI 16c54 $r12: .cfa -24 + ^ .cfa: $rsp 24 +
STACK CFI 16c55 $rbp: .cfa -32 + ^ .cfa: $rsp 32 +
STACK CFI 16c56 $rbx: .cfa -40 + ^ .cfa: $rsp 40 +
STACK CFI 16c5e .cfa: $rsp 64 +
STACK CFI 16cc0 .cfa: $rsp 40 +
STACK CFI 16cc1 .cfa: $rsp 32 +
STACK CFI 16cc2 .cfa: $rsp 24 +
STACK CFI 16cc4 .cfa: $rsp 16 +
STACK CFI 16cc6 .cfa: $rsp 8 +
STACK CFI 16cd0 .cfa: $rsp 64 +
STACK CFI INIT 16d40 c7 .cfa: $rsp 8 + .ra: .cfa -8 + ^
STACK CFI 16d41 $rbx: .cfa -16 + ^ .cfa: $rsp 16 +
STACK CFI 16d48 .cfa: $rsp 48 +
STACK CFI 16dd7 .cfa: $rsp 16 +
STACK CFI 16dd8 .cfa: $rsp 8 +
STACK CFI 16de0 .cfa: $rsp 48 +
STACK CFI INIT 16e10 49 .cfa: $rsp 8 + .ra: .cfa -8 + ^
STACK CFI 16e11 $rbx: .cfa -16 + ^ .cfa: $rsp 16 +
STACK CFI 16e18 .cfa: $rsp 32 +
STACK CFI 16e4f .cfa: $rsp 16 +
STACK CFI 16e53 .cfa: $rsp 8 +
STACK CFI 16e54 .cfa: $rsp 32 +
STACK CFI INIT 16e60 462 .cfa: $rsp 8 + .ra: .cfa -8 + ^
STACK CFI 16e62 $r15: .cfa -16 + ^ .cfa: $rsp 16 +
STACK CFI 16e64 $r14: .cfa -24 + ^ .cfa: $rsp 24 +
STACK CFI 16e69 $r13: .cfa -32 + ^ .cfa: $rsp 32 +
STACK CFI 16e6b $r12: .cfa -40 + ^ .cfa: $rsp 40 +
STACK CFI 16e6c $rbp: .cfa -48 + ^ .cfa: $rsp 48 +
STACK CFI 16e6d $rbx: .cfa -56 + ^ .cfa: $rsp 56 +
STACK CFI 16e79 .cfa: $rsp 144 +
STACK CFI 16f2f .cfa: $rsp 56 +
STACK CFI 16f30 .cfa: $rsp 48 +
STACK CFI 16f31 .cfa: $rsp 40 +
STACK CFI 16f33 .cfa: $rsp 32 +
STACK CFI 16f35 .cfa: $rsp 24 +
STACK CFI 16f37 .cfa: $rsp 16 +
STACK CFI 16f39 .cfa: $rsp 8 +
STACK CFI 16f40 .cfa: $rsp 144 +
STACK CFI 16fd9 .cfa: $rsp 152 +
STACK CFI 16fdf .cfa: $rsp 160 +
STACK CFI 16ff6 .cfa: $rsp 152 +
STACK CFI 16ffc .cfa: $rsp 144 +
STACK CFI INIT 172d0 7c .cfa: $rsp 8 + .ra: .cfa -8 + ^
STACK CFI 172d1 $rbp: .cfa -16 + ^ .cfa: $rsp 16 +
STACK CFI 172d2 $rbx: .cfa -24 + ^ .cfa: $rsp 24 +
STACK CFI 172db .cfa: $rsp 64 +
STACK CFI 1732a .cfa: $rsp 24 +
STACK CFI 1732b .cfa: $rsp 16 +
STACK CFI 1732c .cfa: $rsp 8 +
STACK CFI 17330 .cfa: $rsp 64 +
STACK CFI INIT 17450 16 .cfa: $rsp 8 + .ra: .cfa -8 + ^
STACK CFI 17454 .cfa: $rsp 16 +
STACK CFI 1745f .cfa: $rsp 8 +
STACK CFI INIT 17350 73 .cfa: $rsp 8 + .ra: .cfa -8 + ^
STACK CFI 17351 $rbx: .cfa -16 + ^ .cfa: $rsp 16 +
STACK CFI 173c2 .cfa: $rsp 8 +
STACK CFI INIT 173d0 75 .cfa: $rsp 8 + .ra: .cfa -8 + ^
STACK CFI 173d4 $rbx: .cfa -16 + ^ .cfa: $rsp 16 +
STACK CFI 173f3 .cfa: $rsp 24 +
STACK CFI 173f7 .cfa: $rsp 32 +
STACK CFI 173fc .cfa: $rsp 40 +
STACK CFI 17401 .cfa: $rsp 48 +
STACK CFI 17412 .cfa: $rsp 16 +
STACK CFI 17425 .cfa: $rsp 8 +
STACK CFI 17426 .cfa: $rsp 16 +
STACK CFI INIT 17470 1e .cfa: $rsp 8 + .ra: .cfa -8 + ^
STACK CFI INIT 17490 46 .cfa: $rsp 8 + .ra: .cfa -8 + ^
STACK CFI INIT 174e0 56 .cfa: $rsp 8 + .ra: .cfa -8 + ^
STACK CFI INIT 17540 4c .cfa: $rsp 8 + .ra: .cfa -8 + ^
STACK CFI INIT 17590 39 .cfa: $rsp 8 + .ra: .cfa -8 + ^
STACK CFI INIT 175d0 3c .cfa: $rsp 8 + .ra: .cfa -8 + ^
STACK CFI INIT 17610 34 .cfa: $rsp 8 + .ra: .cfa -8 + ^
STACK CFI INIT 17650 26 .cfa: $rsp 8 + .ra: .cfa -8 + ^
STACK CFI INIT 17680 34 .cfa: $rsp 8 + .ra: .cfa -8 + ^
STACK CFI INIT 176c0 7c .cfa: $rsp 8 + .ra: .cfa -8 + ^
STACK CFI INIT 17740 3a .cfa: $rsp 8 + .ra: .cfa -8 + ^
STACK CFI INIT 17780 1f .cfa: $rsp 8 + .ra: .cfa -8 + ^
STACK CFI INIT 177a0 38 .cfa: $rsp 8 + .ra: .cfa -8 + ^
STACK CFI INIT 177e0 3b .cfa: $rsp 8 + .ra: .cfa -8 + ^
STACK CFI 177e6 $rbx: .cfa -16 + ^ .cfa: $rsp 16 +
STACK CFI 17803 $rbx: $rbx .cfa: $rsp 8 +
STACK CFI 17808 $rbx: .cfa -16 + ^ .cfa: $rsp 16 +
STACK CFI 17817 $rbx: $rbx .cfa: $rsp 8 +
STACK CFI INIT 17820 6c .cfa: $rsp 8 + .ra: .cfa -8 + ^
STACK CFI 17824 .cfa: $rsp 32 +
STACK CFI 17878 .cfa: $rsp 8 +
STACK CFI 17880 .cfa: $rsp 32 +
STACK CFI INIT 17890 10 .cfa: $rsp 8 + .ra: .cfa -8 + ^
STACK CFI INIT 178a0 4b .cfa: $rsp 8 + .ra: .cfa -8 + ^
STACK CFI 178a1 $rbp: .cfa -16 + ^ .cfa: $rsp 16 +
STACK CFI 178a2 $rbx: .cfa -24 + ^ .cfa: $rsp 24 +
STACK CFI 178a9 .cfa: $rsp 32 +
STACK CFI 178dc .cfa: $rsp 24 +
STACK CFI 178dd .cfa: $rsp 16 +
STACK CFI 178de .cfa: $rsp 8 +
STACK CFI 178e0 .cfa: $rsp 32 +
STACK CFI INIT 178f0 5 .cfa: $rsp 8 + .ra: .cfa -8 + ^
STACK CFI INIT 17900 1af .cfa: $rsp 8 + .ra: .cfa -8 + ^
STACK CFI 17902 $r15: .cfa -16 + ^ .cfa: $rsp 16 +
STACK CFI 17904 $r14: .cfa -24 + ^ .cfa: $rsp 24 +
STACK CFI 17906 $r13: .cfa -32 + ^ .cfa: $rsp 32 +
STACK CFI 17908 $r12: .cfa -40 + ^ .cfa: $rsp 40 +
STACK CFI 1790c $rbp: .cfa -48 + ^ .cfa: $rsp 48 +
STACK CFI 1790d $rbx: .cfa -56 + ^ .cfa: $rsp 56 +
STACK CFI 1791c .cfa: $rsp 224 +
STACK CFI 17a0d .cfa: $rsp 56 +
STACK CFI 17a0e .cfa: $rsp 48 +
STACK CFI 17a0f .cfa: $rsp 40 +
STACK CFI 17a11 .cfa: $rsp 32 +
STACK CFI 17a13 .cfa: $rsp 24 +
STACK CFI 17a15 .cfa: $rsp 16 +
STACK CFI 17a17 .cfa: $rsp 8 +
STACK CFI 17a20 .cfa: $rsp 224 +
STACK CFI INIT 17ab0 14 .cfa: $rsp 8 + .ra: .cfa -8 + ^
STACK CFI INIT 17ad0 40 .cfa: $rsp 8 + .ra: .cfa -8 + ^
STACK CFI 17ad6 $rbx: .cfa -16 + ^ .cfa: $rsp 16 +
STACK CFI 17af1 .cfa: $rsp 8 +
STACK CFI 17af8 .cfa: $rsp 16 +
STACK CFI 17b0f .cfa: $rsp 8 +
STACK CFI INIT 17b10 2 .cfa: $rsp 8 + .ra: .cfa -8 + ^
STACK CFI INIT 17b20 213 .cfa: $rsp 8 + .ra: .cfa -8 + ^
STACK CFI 17b22 $r15: .cfa -16 + ^ .cfa: $rsp 16 +
STACK CFI 17b24 $r14: .cfa -24 + ^ .cfa: $rsp 24 +
STACK CFI 17b2b $r13: .cfa -32 + ^ .cfa: $rsp 32 +
STACK CFI 17b2d $r12: .cfa -40 + ^ .cfa: $rsp 40 +
STACK CFI 17b2e $rbp: .cfa -48 + ^ .cfa: $rsp 48 +
STACK CFI 17b2f $rbx: .cfa -56 + ^ .cfa: $rsp 56 +
STACK CFI 17b39 .cfa: $rsp 208 +
STACK CFI 17cc7 .cfa: $rsp 56 +
STACK CFI 17cc8 .cfa: $rsp 48 +
STACK CFI 17cc9 .cfa: $rsp 40 +
STACK CFI 17ccb .cfa: $rsp 32 +
STACK CFI 17ccd .cfa: $rsp 24 +
STACK CFI 17ccf .cfa: $rsp 16 +
STACK CFI 17cd1 .cfa: $rsp 8 +
STACK CFI 17cd8 .cfa: $rsp 208 +
STACK CFI INIT 17d40 5 .cfa: $rsp 8 + .ra: .cfa -8 + ^
STACK CFI INIT 17d50 23 .cfa: $rsp 8 + .ra: .cfa -8 + ^
STACK CFI 17d55 $rbx: .cfa -16 + ^ .cfa: $rsp 16 +
STACK CFI 17d6f $rbx: $rbx .cfa: $rsp 8 +
STACK CFI INIT 17d80 8 .cfa: $rsp 8 + .ra: .cfa -8 + ^
STACK CFI INIT 17d90 2fc .cfa: $rsp 8 + .ra: .cfa -8 + ^
STACK CFI INIT 18090 44 .cfa: $rsp 8 + .ra: .cfa -8 + ^
STACK CFI 180bc .cfa: $rsp 16 +
STACK CFI INIT 180e0 47 .cfa: $rsp 8 + .ra: .cfa -8 + ^
STACK CFI 1810f .cfa: $rsp 16 +
STACK CFI INIT 18130 8 .cfa: $rsp 8 + .ra: .cfa -8 + ^
STACK CFI INIT 18140 8 .cfa: $rsp 8 + .ra: .cfa -8 + ^
STACK CFI INIT 18150 25c .cfa: $rsp 8 + .ra: .cfa -8 + ^
STACK CFI INIT 183b0 c7 .cfa: $rsp 8 + .ra: .cfa -8 + ^
STACK CFI INIT 18480 fd .cfa: $rsp 8 + .ra: .cfa -8 + ^
STACK CFI 18481 $rbp: .cfa -16 + ^ .cfa: $rsp 16 +
STACK CFI 18482 $rbx: .cfa -24 + ^ .cfa: $rsp 24 +
STACK CFI 18509 .cfa: $rsp 16 +
STACK CFI 1850a .cfa: $rsp 8 +
STACK CFI 18510 .cfa: $rsp 24 +
STACK CFI 1856a .cfa: $rsp 16 +
STACK CFI 1856b .cfa: $rsp 8 +
STACK CFI 1856c .cfa: $rsp 24 +
STACK CFI INIT 18580 118 .cfa: $rsp 8 + .ra: .cfa -8 + ^
STACK CFI 18585 $r14: .cfa -16 + ^ .cfa: $rsp 16 +
STACK CFI 18587 $r13: .cfa -24 + ^ .cfa: $rsp 24 +
STACK CFI 1858c $r12: .cfa -32 + ^ .cfa: $rsp 32 +
STACK CFI 1858d $rbp: .cfa -40 + ^ .cfa: $rsp 40 +
STACK CFI 18591 $rbx: .cfa -48 + ^ .cfa: $rsp 48 +
STACK CFI 18626 .cfa: $rsp 40 +
STACK CFI 18632 .cfa: $rsp 32 +
STACK CFI 18634 .cfa: $rsp 24 +
STACK CFI 18636 .cfa: $rsp 16 +
STACK CFI 18638 .cfa: $rsp 8 +
STACK CFI 18640 .cfa: $rsp 48 +
STACK CFI 1865f .cfa: $rsp 40 +
STACK CFI 18668 .cfa: $rsp 32 +
STACK CFI 1866a .cfa: $rsp 24 +
STACK CFI 1866c .cfa: $rsp 16 +
STACK CFI 1866e .cfa: $rsp 8 +
STACK CFI 18670 .cfa: $rsp 48 +
STACK CFI 18671 .cfa: $rsp 40 +
STACK CFI 1867d .cfa: $rsp 32 +
STACK CFI 1867f .cfa: $rsp 24 +
STACK CFI 18681 .cfa: $rsp 16 +
STACK CFI 18683 .cfa: $rsp 8 +
STACK CFI 18684 .cfa: $rsp 48 +
STACK CFI 18685 .cfa: $rsp 40 +
STACK CFI 18691 .cfa: $rsp 32 +
STACK CFI 18693 .cfa: $rsp 24 +
STACK CFI 18695 .cfa: $rsp 16 +
STACK CFI 18697 .cfa: $rsp 8 +
STACK CFI INIT 186a0 1ff .cfa: $rsp 8 + .ra: .cfa -8 + ^
STACK CFI 186a2 $r13: .cfa -16 + ^ .cfa: $rsp 16 +
STACK CFI 186a4 $r12: .cfa -24 + ^ .cfa: $rsp 24 +
STACK CFI 186a5 $rbp: .cfa -32 + ^ .cfa: $rsp 32 +
STACK CFI 186a6 $rbx: .cfa -40 + ^ .cfa: $rsp 40 +
STACK CFI 187c2 .cfa: $rsp 32 +
STACK CFI 187c3 .cfa: $rsp 24 +
STACK CFI 187c8 .cfa: $rsp 16 +
STACK CFI 187ca .cfa: $rsp 8 +
STACK CFI 187d0 .cfa: $rsp 40 +
STACK CFI 187e5 .cfa: $rsp 32 +
STACK CFI 187e6 .cfa: $rsp 24 +
STACK CFI 187e8 .cfa: $rsp 16 +
STACK CFI 187ea .cfa: $rsp 8 +
STACK CFI 187f0 .cfa: $rsp 40 +
STACK CFI 18815 .cfa: $rsp 32 +
STACK CFI 18816 .cfa: $rsp 24 +
STACK CFI 18818 .cfa: $rsp 16 +
STACK CFI 1881a .cfa: $rsp 8 +
STACK CFI 18820 .cfa: $rsp 40 +
STACK CFI 18849 .cfa: $rsp 32 +
STACK CFI 1884a .cfa: $rsp 24 +
STACK CFI 1884c .cfa: $rsp 16 +
STACK CFI 1884e .cfa: $rsp 8 +
STACK CFI 1884f .cfa: $rsp 40 +
STACK CFI INIT 188a0 2b .cfa: $rsp 8 + .ra: .cfa -8 + ^
STACK CFI INIT 188d0 26f .cfa: $rsp 8 + .ra: .cfa -8 + ^
STACK CFI 188d2 $r15: .cfa -16 + ^ .cfa: $rsp 16 +
STACK CFI 188d4 $r14: .cfa -24 + ^ .cfa: $rsp 24 +
STACK CFI 188d6 $r13: .cfa -32 + ^ .cfa: $rsp 32 +
STACK CFI 188d8 $r12: .cfa -40 + ^ .cfa: $rsp 40 +
STACK CFI 188d9 $rbp: .cfa -48 + ^ .cfa: $rsp 48 +
STACK CFI 188da $rbx: .cfa -56 + ^ .cfa: $rsp 56 +
STACK CFI 188de .cfa: $rsp 80 +
STACK CFI 18a2f .cfa: $rsp 56 +
STACK CFI 18a30 .cfa: $rsp 48 +
STACK CFI 18a31 .cfa: $rsp 40 +
STACK CFI 18a33 .cfa: $rsp 32 +
STACK CFI 18a35 .cfa: $rsp 24 +
STACK CFI 18a37 .cfa: $rsp 16 +
STACK CFI 18a39 .cfa: $rsp 8 +
STACK CFI 18a40 .cfa: $rsp 80 +
STACK CFI INIT 18b40 19a .cfa: $rsp 8 + .ra: .cfa -8 + ^
STACK CFI 18b42 $r13: .cfa -16 + ^ .cfa: $rsp 16 +
STACK CFI 18b44 $r12: .cfa -24 + ^ .cfa: $rsp 24 +
STACK CFI 18b47 $rbp: .cfa -32 + ^ .cfa: $rsp 32 +
STACK CFI 18b48 $rbx: .cfa -40 + ^ .cfa: $rsp 40 +
STACK CFI 18c2d .cfa: $rsp 32 +
STACK CFI 18c2e .cfa: $rsp 24 +
STACK CFI 18c30 .cfa: $rsp 16 +
STACK CFI 18c32 .cfa: $rsp 8 +
STACK CFI 18c38 .cfa: $rsp 40 +
STACK CFI 18cbc .cfa: $rsp 32 +
STACK CFI 18cbd .cfa: $rsp 24 +
STACK CFI 18cbf .cfa: $rsp 16 +
STACK CFI 18cc1 .cfa: $rsp 8 +
STACK CFI 18cc2 .cfa: $rsp 40 +
STACK CFI INIT 18ce0 287 .cfa: $rsp 8 + .ra: .cfa -8 + ^
STACK CFI 18ce2 $r15: .cfa -16 + ^ .cfa: $rsp 16 +
STACK CFI 18ce4 $r14: .cfa -24 + ^ .cfa: $rsp 24 +
STACK CFI 18ce6 $r13: .cfa -32 + ^ .cfa: $rsp 32 +
STACK CFI 18ce8 $r12: .cfa -40 + ^ .cfa: $rsp 40 +
STACK CFI 18ce9 $rbp: .cfa -48 + ^ .cfa: $rsp 48 +
STACK CFI 18cea $rbx: .cfa -56 + ^ .cfa: $rsp 56 +
STACK CFI 18cee .cfa: $rsp 88 +
STACK CFI 18e75 .cfa: $rsp 56 +
STACK CFI 18e76 .cfa: $rsp 48 +
STACK CFI 18e77 .cfa: $rsp 40 +
STACK CFI 18e79 .cfa: $rsp 32 +
STACK CFI 18e7b .cfa: $rsp 24 +
STACK CFI 18e7d .cfa: $rsp 16 +
STACK CFI 18e7f .cfa: $rsp 8 +
STACK CFI 18e80 .cfa: $rsp 88 +
STACK CFI INIT 18f70 65 .cfa: $rsp 8 + .ra: .cfa -8 + ^
STACK CFI 18f72 $r15: .cfa -16 + ^ .cfa: $rsp 16 +
STACK CFI 18f74 $r14: .cfa -24 + ^ .cfa: $rsp 24 +
STACK CFI 18f79 $r13: .cfa -32 + ^ .cfa: $rsp 32 +
STACK CFI 18f7b $r12: .cfa -40 + ^ .cfa: $rsp 40 +
STACK CFI 18f83 $rbp: .cfa -48 + ^ .cfa: $rsp 48 +
STACK CFI 18f8b $rbx: .cfa -56 + ^ .cfa: $rsp 56 +
STACK CFI 18f98 .cfa: $rsp 64 +
STACK CFI 18fca .cfa: $rsp 56 +
STACK CFI 18fcb .cfa: $rsp 48 +
STACK CFI 18fcc .cfa: $rsp 40 +
STACK CFI 18fce .cfa: $rsp 32 +
STACK CFI 18fd0 .cfa: $rsp 24 +
STACK CFI 18fd2 .cfa: $rsp 16 +
STACK CFI 18fd4 .cfa: $rsp 8 +
STACK CFI INIT 18fe0 2 .cfa: $rsp 8 + .ra: .cfa -8 + ^
