MODULE Linux x86_64 678DC3D7E4AA1C9A021552C67CEF46C60 submarine_internal
INFO CODE_ID D7C38D67AAE49A1C021552C67CEF46C6209191A8
FUNC 1be0 4a 0 google_breakpad::PageAllocator::FreeAll()
FUNC 1c2a 20 0 google_breakpad::ProcCpuInfoReader::GetValueAndLen(unsigned long*)
FUNC 1c4a 20 0 google_breakpad::TypedMDRVA<MDRawDirectory>::CopyIndex(unsigned int, MDRawDirectory*)
FUNC 1c6a 1d 0 google_breakpad::TypedMDRVA<MDRawDirectory>::CopyIndex(unsigned int, MDRawDirectory*)
FUNC 1c88 20 0 google_breakpad::TypedMDRVA<unsigned int>::CopyIndexAfterObject(unsigned int, void const*, unsigned long)
FUNC 1ca8 20 0 MinidumpWriter::MinidumpWriter
FUNC 1cc8 2c 0 MinidumpWriter::~MinidumpWriter
FUNC 1cf4 1ec 0 MinidumpWriter::WriteFile
FUNC 1ee0 67 0 MinidumpWriter::WriteProcFile
FUNC 2046 48 0 dumpCallback
FUNC 208e ba 0 _0()
FUNC 2148 ba 0 _1()
FUNC 2202 ba 0 _2()
FUNC 22bc ba 0 _3()
FUNC 2376 ba 0 _4()
FUNC 2430 ba 0 _5()
FUNC 24ea ba 0 _6()
FUNC 25a4 ba 0 _7()
FUNC 265e ba 0 _8()
FUNC 2718 ba 0 _9()
FUNC 27d2 ba 0 _A()
FUNC 288c ba 0 _B()
FUNC 2946 ba 0 _C()
FUNC 2a00 ba 0 _D()
FUNC 2aba ba 0 _E()
FUNC 2b74 ba 0 _F()
FUNC 2c2e ba 0 _G()
FUNC 2ce8 ba 0 _H()
FUNC 2da2 ba 0 _I()
FUNC 2e5c ba 0 _J()
FUNC 2f16 ba 0 _K()
FUNC 2fd0 ba 0 _L()
FUNC 308a ba 0 _M()
FUNC 3144 ba 0 _N()
FUNC 31fe ba 0 _O()
FUNC 32b8 ba 0 _P()
FUNC 3372 ba 0 _Q()
FUNC 342c ba 0 _R()
FUNC 34e6 ba 0 _S()
FUNC 35a0 ba 0 _T()
FUNC 365a ba 0 _U()
FUNC 3714 ba 0 _V()
FUNC 37ce ba 0 _W()
FUNC 3888 ba 0 _X()
FUNC 3942 ba 0 _Y()
FUNC 39fc ba 0 _Z()
FUNC 3ab6 ba 0 _EQ()
FUNC 3b70 254 0 main
FUNC 3dc4 3a 0 google_breakpad::MicrodumpExtraInfo::MicrodumpExtraInfo()
FUNC 3dfe a0 0 google_breakpad::MinidumpDescriptor::MinidumpDescriptor(std::__cxx11::basic_string<char, std::char_traits<char>, std::allocator<char> > const&)
FUNC 3e9e 12 0 google_breakpad::MinidumpDescriptor::path() const
FUNC 3eb0 2f 0 google_breakpad::MinidumpDescriptor::~MinidumpDescriptor()
FUNC 3ee0 14b 0 google_breakpad::ExceptionHandler::InstallHandlersLocked()
FUNC 4030 7c 0 google_breakpad::ExceptionHandler::RestoreHandlersLocked()
FUNC 40b0 341 0 google_breakpad::ExceptionHandler::~ExceptionHandler()
FUNC 4400 d1 0 google_breakpad::ExceptionHandler::SendContinueSignalToChild()
FUNC 44e0 4bc 0 google_breakpad::ExceptionHandler::GenerateDump(google_breakpad::ExceptionHandler::CrashContext*)
FUNC 49a0 1da 0 google_breakpad::ExceptionHandler::HandleSignal(int, siginfo_t*, void*)
FUNC 4b80 1c1 0 google_breakpad::ExceptionHandler::SignalHandler(int, siginfo_t*, void*)
FUNC 4d50 7f 0 google_breakpad::ExceptionHandler::SimulateSignalDelivery(int)
FUNC 4dd0 e5 0 google_breakpad::ExceptionHandler::WaitForContinueSignal()
FUNC 4ec0 8b 0 google_breakpad::ExceptionHandler::DoDump(int, void const*, unsigned long)
FUNC 4f50 28 0 google_breakpad::ExceptionHandler::ThreadEntry(void*)
FUNC 4f80 195 0 google_breakpad::ExceptionHandler::WriteMinidump()
FUNC 5120 e3 0 google_breakpad::ExceptionHandler::AddMappingInfo(std::__cxx11::basic_string<char, std::char_traits<char>, std::allocator<char> > const&, unsigned char const*, unsigned long, unsigned long, unsigned long)
FUNC 5210 91 0 google_breakpad::ExceptionHandler::RegisterAppMemory(void*, unsigned long)
FUNC 52b0 52 0 google_breakpad::ExceptionHandler::UnregisterAppMemory(void*)
FUNC 5310 23d 0 google_breakpad::ExceptionHandler::WriteMinidumpForChild(int, int, std::__cxx11::basic_string<char, std::char_traits<char>, std::allocator<char> > const&, bool (*)(google_breakpad::MinidumpDescriptor const&, void*, bool), void*)
FUNC 5550 396 0 google_breakpad::ExceptionHandler::ExceptionHandler(google_breakpad::MinidumpDescriptor const&, bool (*)(void*), bool (*)(google_breakpad::MinidumpDescriptor const&, void*, bool), void*, bool, int)
FUNC 58f0 27d 0 google_breakpad::ExceptionHandler::WriteMinidump(std::__cxx11::basic_string<char, std::char_traits<char>, std::allocator<char> > const&, bool (*)(google_breakpad::MinidumpDescriptor const&, void*, bool), void*)
FUNC 5b70 ea 0 void std::vector<google_breakpad::ExceptionHandler*, std::allocator<google_breakpad::ExceptionHandler*> >::_M_emplace_back_aux<google_breakpad::ExceptionHandler*>(google_breakpad::ExceptionHandler*&&)
FUNC 5c60 c2 0 void std::__cxx11::basic_string<char, std::char_traits<char>, std::allocator<char> >::_M_construct<char*>(char*, char*, std::forward_iterator_tag)
FUNC 5d30 a4 0 google_breakpad::MinidumpDescriptor::MinidumpDescriptor(google_breakpad::MinidumpDescriptor const&)
FUNC 5de0 317 0 google_breakpad::MinidumpDescriptor::UpdatePath()
FUNC 6100 a2 0 google_breakpad::MinidumpDescriptor::operator=(google_breakpad::MinidumpDescriptor const&)
FUNC 61b0 33 0 logger::write(char const*, unsigned long)
FUNC 61f0 1ab5 0 google_breakpad::WriteMicrodump(int, void const*, unsigned long, std::__cxx11::list<google_breakpad::MappingEntry, std::allocator<google_breakpad::MappingEntry> > const&, google_breakpad::MicrodumpExtraInfo const&)
FUNC 7cb0 3ea 0 void std::vector<unsigned char, google_breakpad::PageStdAllocator<unsigned char> >::_M_range_insert<unsigned char const*>(__gnu_cxx::__normal_iterator<unsigned char*, std::vector<unsigned char, google_breakpad::PageStdAllocator<unsigned char> > >, unsigned char const*, unsigned char const*, std::forward_iterator_tag)
FUNC 80a0 6 0 google_breakpad::LinuxDumper::LateInit()
FUNC 80b0 835 0 google_breakpad::LinuxDumper::LinuxDumper(int, char const*)
FUNC 88f0 67 0 google_breakpad::LinuxDumper::~LinuxDumper()
FUNC 8960 12 0 google_breakpad::LinuxDumper::~LinuxDumper()
FUNC 8980 4a 0 google_breakpad::LinuxDumper::GetMappingAbsolutePath(google_breakpad::MappingInfo const&, char*) const
FUNC 89d0 19f 0 ElfFileSoName
FUNC 8b70 1a7 0 google_breakpad::LinuxDumper::HandleDeletedFileInMapping(char*) const
FUNC 8d20 e6 0 google_breakpad::LinuxDumper::GetMappingEffectiveNameAndPath(google_breakpad::MappingInfo const&, char*, unsigned long, char*, unsigned long)
FUNC 8e10 119 0 google_breakpad::LinuxDumper::ReadAuxv()
FUNC 8f30 32 0 google_breakpad::LinuxDumper::Init()
FUNC 8f70 4b 0 google_breakpad::LinuxDumper::FindMapping(void const*) const
FUNC 8fc0 7d 0 google_breakpad::LinuxDumper::GetStackInfo(void const**, unsigned long*, unsigned long)
FUNC 9040 53 0 google_breakpad::LinuxDumper::HandleDeletedFileInMapping(char*) const
FUNC 90a0 34b 0 google_breakpad::LinuxDumper::ElfFileIdentifierForMapping(google_breakpad::MappingInfo const&, bool, unsigned int, google_breakpad::wasteful_vector<unsigned char>&)
FUNC 93f0 930 0 google_breakpad::LinuxDumper::EnumerateMappings()
FUNC 9d20 143 0 google_breakpad::PageAllocator::Alloc(unsigned long)
FUNC 9e70 288 0 std::vector<google_breakpad::MappingInfo*, google_breakpad::PageStdAllocator<google_breakpad::MappingInfo*> >::_M_default_append(unsigned long)
FUNC a100 3 0 google_breakpad::LinuxPtraceDumper::IsPostMortem() const
FUNC a110 187 0 google_breakpad::LinuxPtraceDumper::CopyFromProcess(void*, int, void const*, unsigned long)
FUNC a2a0 bb 0 google_breakpad::LinuxPtraceDumper::BuildProcPath(char*, int, char const*) const
FUNC a360 bc 0 google_breakpad::LinuxPtraceDumper::ThreadsResume()
FUNC a420 5fd 0 google_breakpad::LinuxPtraceDumper::EnumerateThreads()
FUNC aa20 51d 0 google_breakpad::LinuxPtraceDumper::GetThreadInfoByIndex(unsigned long, google_breakpad::ThreadInfo*)
FUNC af40 27 0 google_breakpad::LinuxPtraceDumper::LinuxPtraceDumper(int)
FUNC af70 251 0 google_breakpad::LinuxPtraceDumper::ThreadsSuspend()
FUNC b1d0 13 0 google_breakpad::LinuxPtraceDumper::~LinuxPtraceDumper()
FUNC b1f0 20 0 google_breakpad::LinuxPtraceDumper::~LinuxPtraceDumper()
FUNC b210 288 0 std::vector<int, google_breakpad::PageStdAllocator<int> >::_M_default_append(unsigned long)
FUNC b4a0 e0e 0 MinidumpWriter::WriteThreadListStream
FUNC c2b0 21d9 0 MinidumpWriter::Dump
FUNC e490 343 0 google_breakpad::WriteMinidump(char const*, std::__cxx11::list<google_breakpad::MappingEntry, std::allocator<google_breakpad::MappingEntry> > const&, std::__cxx11::list<google_breakpad::AppMemory, std::allocator<google_breakpad::AppMemory> > const&, google_breakpad::LinuxDumper*)
FUNC e7e0 496 0 google_breakpad::WriteMinidump(char const*, int, int)
FUNC ec80 422 0 WriteMinidumpImpl
FUNC f0b0 109 0 google_breakpad::WriteMinidump(char const*, int, void const*, unsigned long)
FUNC f1c0 109 0 google_breakpad::WriteMinidump(int, int, void const*, unsigned long)
FUNC f2d0 26 0 google_breakpad::WriteMinidump(char const*, int, void const*, unsigned long, std::__cxx11::list<google_breakpad::MappingEntry, std::allocator<google_breakpad::MappingEntry> > const&, std::__cxx11::list<google_breakpad::AppMemory, std::allocator<google_breakpad::AppMemory> > const&)
FUNC f300 25 0 google_breakpad::WriteMinidump(int, int, void const*, unsigned long, std::__cxx11::list<google_breakpad::MappingEntry, std::allocator<google_breakpad::MappingEntry> > const&, std::__cxx11::list<google_breakpad::AppMemory, std::allocator<google_breakpad::AppMemory> > const&)
FUNC f330 24 0 google_breakpad::WriteMinidump(char const*, long, int, void const*, unsigned long, std::__cxx11::list<google_breakpad::MappingEntry, std::allocator<google_breakpad::MappingEntry> > const&, std::__cxx11::list<google_breakpad::AppMemory, std::allocator<google_breakpad::AppMemory> > const&)
FUNC f360 23 0 google_breakpad::WriteMinidump(int, long, int, void const*, unsigned long, std::__cxx11::list<google_breakpad::MappingEntry, std::allocator<google_breakpad::MappingEntry> > const&, std::__cxx11::list<google_breakpad::AppMemory, std::allocator<google_breakpad::AppMemory> > const&)
FUNC f390 259 0 google_breakpad::ProcCpuInfoReader::GetNextField(char const**)
FUNC f5f0 257 0 std::vector<char, google_breakpad::PageStdAllocator<char> >::resize(unsigned long)
FUNC f850 250 0 void std::vector<MDMemoryDescriptor, google_breakpad::PageStdAllocator<MDMemoryDescriptor> >::_M_emplace_back_aux<MDMemoryDescriptor const&>(MDMemoryDescriptor const&)
FUNC faa0 23 0 google_breakpad::TypedMDRVA<MDString>::CopyIndexAfterObject(unsigned int, void const*, unsigned long)
FUNC fad0 1a 0 google_breakpad::MinidumpFileWriter::MinidumpFileWriter()
FUNC faf0 78 0 google_breakpad::MinidumpFileWriter::Open(char const*)
FUNC fb70 2c 0 google_breakpad::MinidumpFileWriter::SetFile(int)
FUNC fba0 5d 0 google_breakpad::MinidumpFileWriter::Close()
FUNC fc00 15 0 google_breakpad::MinidumpFileWriter::~MinidumpFileWriter()
FUNC fc20 b6 0 google_breakpad::MinidumpFileWriter::Allocate(unsigned long)
FUNC fce0 ff 0 google_breakpad::MinidumpFileWriter::Copy(unsigned int, void const*, long)
FUNC fde0 f0 0 google_breakpad::MinidumpFileWriter::CopyStringToMDString(wchar_t const*, unsigned int, google_breakpad::TypedMDRVA<MDString>*)
FUNC fed0 ef 0 google_breakpad::MinidumpFileWriter::CopyStringToMDString(char const*, unsigned int, google_breakpad::TypedMDRVA<MDString>*)
FUNC ffc0 41 0 google_breakpad::UntypedMDRVA::Allocate(unsigned long)
FUNC 10010 89 0 google_breakpad::UntypedMDRVA::Copy(unsigned int, void const*, unsigned long)
FUNC 100a0 df 0 google_breakpad::MinidumpFileWriter::WriteMemory(void const*, unsigned long, MDMemoryDescriptor*)
FUNC 10180 5 0 google_breakpad::MinidumpFileWriter::WriteString(wchar_t const*, unsigned int, MDLocationDescriptor*)
FUNC 10190 5 0 google_breakpad::MinidumpFileWriter::WriteString(char const*, unsigned int, MDLocationDescriptor*)
FUNC 101a0 23a 0 bool google_breakpad::MinidumpFileWriter::WriteStringCore<wchar_t>(wchar_t const*, unsigned int, MDLocationDescriptor*)
FUNC 103e0 23a 0 bool google_breakpad::MinidumpFileWriter::WriteStringCore<char>(char const*, unsigned int, MDLocationDescriptor*)
FUNC 10620 c2 0 void std::__cxx11::basic_string<char, std::char_traits<char>, std::allocator<char> >::_M_construct<char const*>(char const*, char const*, std::forward_iterator_tag)
FUNC 106f0 b1 0 google_breakpad::UTF8ToUTF16Char(char const*, int, unsigned short*)
FUNC 107b0 7b 0 google_breakpad::UTF32ToUTF16Char(wchar_t, unsigned short*)
FUNC 10830 173 0 google_breakpad::UTF16ToUTF8[abi:cxx11](std::vector<unsigned short, std::allocator<unsigned short> > const&, bool)
FUNC 109b0 f0 0 google_breakpad::UTF32ToUTF16(wchar_t const*, std::vector<unsigned short, std::allocator<unsigned short> >*)
FUNC 10aa0 e8 0 google_breakpad::UTF8ToUTF16(char const*, std::vector<unsigned short, std::allocator<unsigned short> >*)
FUNC 10b90 2bd 0 std::vector<unsigned short, std::allocator<unsigned short> >::_M_fill_insert(__gnu_cxx::__normal_iterator<unsigned short*, std::vector<unsigned short, std::allocator<unsigned short> > >, unsigned long, unsigned short const&)
FUNC 10e50 14d 0 std::vector<unsigned short, std::allocator<unsigned short> >::_M_default_append(unsigned long)
FUNC 10fa0 1f 0 google_breakpad::IsValidElf(void const*)
FUNC 10fc0 5 0 google_breakpad::ElfClass(void const*)
FUNC 10fd0 452 0 google_breakpad::FindElfSection(void const*, char const*, unsigned int, void const**, unsigned long*, int*)
FUNC 11430 287 0 google_breakpad::FindElfSegment(void const*, unsigned int, void const**, unsigned long*, int*)
FUNC 116c0 135 0 google_breakpad::bytes_to_hex_string
FUNC 11800 e2 0 google_breakpad::FileID::FileID(char const*)
FUNC 118f0 c7 0 google_breakpad::FileID::ConvertIdentifierToUUIDString[abi:cxx11](google_breakpad::wasteful_vector<unsigned char> const&)
FUNC 119c0 49 0 google_breakpad::FileID::ConvertIdentifierToString[abi:cxx11](google_breakpad::wasteful_vector<unsigned char> const&)
FUNC 11a10 462 0 google_breakpad::FileID::ElfFileIdentifierFromMappedFile(void const*, google_breakpad::wasteful_vector<unsigned char>&)
FUNC 11e80 7c 0 google_breakpad::FileID::ElfFileIdentifier(google_breakpad::wasteful_vector<unsigned char>&)
FUNC 11f00 73 0 CreateGUID(MDGUID*)
FUNC 11f80 75 0 GUIDToString(MDGUID const*, char*, int)
FUNC 12000 16 0 GUIDGenerator::InitOnceImpl()
FUNC 12020 1e 0 my_strlen
FUNC 12040 46 0 my_strcmp
FUNC 12090 56 0 my_strncmp
FUNC 120f0 4c 0 my_strtoui
FUNC 12140 39 0 my_uint_len
FUNC 12180 3c 0 my_uitos
FUNC 121c0 34 0 my_strchr
FUNC 12200 26 0 my_strrchr
FUNC 12230 34 0 my_memchr
FUNC 12270 7c 0 my_read_hex_ptr
FUNC 122f0 3a 0 my_read_decimal_ptr
FUNC 12330 1f 0 my_memset
FUNC 12350 38 0 my_strlcpy
FUNC 12390 3b 0 my_strlcat
FUNC 123d0 6c 0 my_isspace
FUNC 12440 10 0 google_breakpad::MemoryMappedFile::MemoryMappedFile()
FUNC 12450 4b 0 google_breakpad::MemoryMappedFile::Unmap()
FUNC 124a0 5 0 google_breakpad::MemoryMappedFile::~MemoryMappedFile()
FUNC 124b0 1af 0 google_breakpad::MemoryMappedFile::Map(char const*, unsigned long)
FUNC 12660 14 0 google_breakpad::MemoryMappedFile::MemoryMappedFile(char const*, unsigned long)
FUNC 12680 40 0 google_breakpad::SafeReadLink(char const*, char*, unsigned long)
FUNC 126c0 2 0 CrashGenerationClientImpl::~CrashGenerationClientImpl
FUNC 126d0 213 0 CrashGenerationClientImpl::RequestDump
FUNC 128f0 5 0 CrashGenerationClientImpl::~CrashGenerationClientImpl
FUNC 12900 23 0 google_breakpad::CrashGenerationClient::TryCreate(int)
FUNC 12930 8 0 google_breakpad::ThreadInfo::GetInstructionPointer() const
FUNC 12940 2fc 0 google_breakpad::ThreadInfo::FillCPUContext(MDRawContextAMD64*) const
FUNC 12c40 44 0 google_breakpad::ThreadInfo::GetGeneralPurposeRegisters(void**, unsigned long*)
FUNC 12c90 47 0 google_breakpad::ThreadInfo::GetFloatingPointRegisters(void**, unsigned long*)
FUNC 12ce0 8 0 google_breakpad::UContextReader::GetStackPointer(ucontext const*)
FUNC 12cf0 8 0 google_breakpad::UContextReader::GetInstructionPointer(ucontext const*)
FUNC 12d00 25c 0 google_breakpad::UContextReader::FillCPUContext(MDRawContextAMD64*, ucontext const*, _libc_fpstate const*)
FUNC 12f60 c7 0 isLegalUTF8
FUNC 13030 fd 0 ConvertUTF32toUTF16
FUNC 13130 118 0 ConvertUTF16toUTF32
FUNC 13250 1ff 0 ConvertUTF16toUTF8
FUNC 13450 2b 0 isLegalUTF8Sequence
FUNC 13480 26f 0 ConvertUTF8toUTF16
FUNC 136f0 19a 0 ConvertUTF32toUTF8
FUNC 13890 287 0 ConvertUTF8toUTF32
PUBLIC 17d8 0 _init
PUBLIC 1be0 0 google_breakpad::PageAllocator::FreeAll() [clone .isra.7]
PUBLIC 1c2a 0 google_breakpad::ProcCpuInfoReader::GetValueAndLen(unsigned long*) [clone .isra.20] [clone .part.21]
PUBLIC 1c4a 0 google_breakpad::TypedMDRVA<MDRawDirectory>::CopyIndex(unsigned int, MDRawDirectory*) [clone .isra.32] [clone .part.33]
PUBLIC 1c6a 0 google_breakpad::TypedMDRVA<MDRawDirectory>::CopyIndex(unsigned int, MDRawDirectory*) [clone .isra.32]
PUBLIC 1c88 0 google_breakpad::TypedMDRVA<unsigned int>::CopyIndexAfterObject(unsigned int, void const*, unsigned long) [clone .isra.34] [clone .part.35]
PUBLIC 1ca8 0 (anonymous namespace)::MinidumpWriter::MinidumpWriter(char const*, int, google_breakpad::ExceptionHandler::CrashContext const*, std::__cxx11::list<google_breakpad::MappingEntry, std::allocator<google_breakpad::MappingEntry> > const&, std::__cxx11::list<google_breakpad::AppMemory, std::allocator<google_breakpad::AppMemory> > const&, google_breakpad::LinuxDumper*) [clone .part.93]
PUBLIC 1cc8 0 (anonymous namespace)::MinidumpWriter::~MinidumpWriter() [clone .constprop.119]
PUBLIC 1cf4 0 (anonymous namespace)::MinidumpWriter::WriteFile(MDLocationDescriptor*, char const*) [clone .constprop.116]
PUBLIC 1ee0 0 (anonymous namespace)::MinidumpWriter::WriteProcFile(MDLocationDescriptor*, int, char const*) [clone .constprop.115]
PUBLIC 1f50 0 _start
PUBLIC 1f80 0 deregister_tm_clones
PUBLIC 1fc0 0 register_tm_clones
PUBLIC 2000 0 __do_global_dtors_aux
PUBLIC 2020 0 frame_dummy
PUBLIC 2046 0 dumpCallback(google_breakpad::MinidumpDescriptor const&, void*, bool)
PUBLIC 208e 0 _0()
PUBLIC 2148 0 _1()
PUBLIC 2202 0 _2()
PUBLIC 22bc 0 _3()
PUBLIC 2376 0 _4()
PUBLIC 2430 0 _5()
PUBLIC 24ea 0 _6()
PUBLIC 25a4 0 _7()
PUBLIC 265e 0 _8()
PUBLIC 2718 0 _9()
PUBLIC 27d2 0 _A()
PUBLIC 288c 0 _B()
PUBLIC 2946 0 _C()
PUBLIC 2a00 0 _D()
PUBLIC 2aba 0 _E()
PUBLIC 2b74 0 _F()
PUBLIC 2c2e 0 _G()
PUBLIC 2ce8 0 _H()
PUBLIC 2da2 0 _I()
PUBLIC 2e5c 0 _J()
PUBLIC 2f16 0 _K()
PUBLIC 2fd0 0 _L()
PUBLIC 308a 0 _M()
PUBLIC 3144 0 _N()
PUBLIC 31fe 0 _O()
PUBLIC 32b8 0 _P()
PUBLIC 3372 0 _Q()
PUBLIC 342c 0 _R()
PUBLIC 34e6 0 _S()
PUBLIC 35a0 0 _T()
PUBLIC 365a 0 _U()
PUBLIC 3714 0 _V()
PUBLIC 37ce 0 _W()
PUBLIC 3888 0 _X()
PUBLIC 3942 0 _Y()
PUBLIC 39fc 0 _Z()
PUBLIC 3ab6 0 _EQ()
PUBLIC 3b70 0 main
PUBLIC 3dc4 0 google_breakpad::MicrodumpExtraInfo::MicrodumpExtraInfo()
PUBLIC 3dfe 0 google_breakpad::MinidumpDescriptor::MinidumpDescriptor(std::__cxx11::basic_string<char, std::char_traits<char>, std::allocator<char> > const&)
PUBLIC 3e9e 0 google_breakpad::MinidumpDescriptor::path() const
PUBLIC 3eb0 0 google_breakpad::MinidumpDescriptor::~MinidumpDescriptor()
PUBLIC 3ee0 0 google_breakpad::ExceptionHandler::InstallHandlersLocked()
PUBLIC 4030 0 google_breakpad::ExceptionHandler::RestoreHandlersLocked()
PUBLIC 40b0 0 google_breakpad::ExceptionHandler::~ExceptionHandler()
PUBLIC 4400 0 google_breakpad::ExceptionHandler::SendContinueSignalToChild()
PUBLIC 44e0 0 google_breakpad::ExceptionHandler::GenerateDump(google_breakpad::ExceptionHandler::CrashContext*)
PUBLIC 49a0 0 google_breakpad::ExceptionHandler::HandleSignal(int, siginfo_t*, void*)
PUBLIC 4b80 0 google_breakpad::ExceptionHandler::SignalHandler(int, siginfo_t*, void*)
PUBLIC 4d50 0 google_breakpad::ExceptionHandler::SimulateSignalDelivery(int)
PUBLIC 4dd0 0 google_breakpad::ExceptionHandler::WaitForContinueSignal()
PUBLIC 4ec0 0 google_breakpad::ExceptionHandler::DoDump(int, void const*, unsigned long)
PUBLIC 4f50 0 google_breakpad::ExceptionHandler::ThreadEntry(void*)
PUBLIC 4f80 0 google_breakpad::ExceptionHandler::WriteMinidump()
PUBLIC 5120 0 google_breakpad::ExceptionHandler::AddMappingInfo(std::__cxx11::basic_string<char, std::char_traits<char>, std::allocator<char> > const&, unsigned char const*, unsigned long, unsigned long, unsigned long)
PUBLIC 5210 0 google_breakpad::ExceptionHandler::RegisterAppMemory(void*, unsigned long)
PUBLIC 52b0 0 google_breakpad::ExceptionHandler::UnregisterAppMemory(void*)
PUBLIC 5310 0 google_breakpad::ExceptionHandler::WriteMinidumpForChild(int, int, std::__cxx11::basic_string<char, std::char_traits<char>, std::allocator<char> > const&, bool (*)(google_breakpad::MinidumpDescriptor const&, void*, bool), void*)
PUBLIC 5550 0 google_breakpad::ExceptionHandler::ExceptionHandler(google_breakpad::MinidumpDescriptor const&, bool (*)(void*), bool (*)(google_breakpad::MinidumpDescriptor const&, void*, bool), void*, bool, int)
PUBLIC 58f0 0 google_breakpad::ExceptionHandler::WriteMinidump(std::__cxx11::basic_string<char, std::char_traits<char>, std::allocator<char> > const&, bool (*)(google_breakpad::MinidumpDescriptor const&, void*, bool), void*)
PUBLIC 5b70 0 void std::vector<google_breakpad::ExceptionHandler*, std::allocator<google_breakpad::ExceptionHandler*> >::_M_emplace_back_aux<google_breakpad::ExceptionHandler*>(google_breakpad::ExceptionHandler*&&)
PUBLIC 5c60 0 void std::__cxx11::basic_string<char, std::char_traits<char>, std::allocator<char> >::_M_construct<char*>(char*, char*, std::forward_iterator_tag) [clone .isra.16]
PUBLIC 5d30 0 google_breakpad::MinidumpDescriptor::MinidumpDescriptor(google_breakpad::MinidumpDescriptor const&)
PUBLIC 5de0 0 google_breakpad::MinidumpDescriptor::UpdatePath()
PUBLIC 6100 0 google_breakpad::MinidumpDescriptor::operator=(google_breakpad::MinidumpDescriptor const&)
PUBLIC 61b0 0 logger::write(char const*, unsigned long)
PUBLIC 61f0 0 google_breakpad::WriteMicrodump(int, void const*, unsigned long, std::__cxx11::list<google_breakpad::MappingEntry, std::allocator<google_breakpad::MappingEntry> > const&, google_breakpad::MicrodumpExtraInfo const&)
PUBLIC 7cb0 0 void std::vector<unsigned char, google_breakpad::PageStdAllocator<unsigned char> >::_M_range_insert<unsigned char const*>(__gnu_cxx::__normal_iterator<unsigned char*, std::vector<unsigned char, google_breakpad::PageStdAllocator<unsigned char> > >, unsigned char const*, unsigned char const*, std::forward_iterator_tag)
PUBLIC 80a0 0 google_breakpad::LinuxDumper::LateInit()
PUBLIC 80b0 0 google_breakpad::LinuxDumper::LinuxDumper(int, char const*)
PUBLIC 88f0 0 google_breakpad::LinuxDumper::~LinuxDumper()
PUBLIC 8960 0 google_breakpad::LinuxDumper::~LinuxDumper()
PUBLIC 8980 0 google_breakpad::LinuxDumper::GetMappingAbsolutePath(google_breakpad::MappingInfo const&, char*) const
PUBLIC 89d0 0 google_breakpad::(anonymous namespace)::ElfFileSoName(google_breakpad::LinuxDumper const&, google_breakpad::MappingInfo const&, char*, unsigned long) [clone .constprop.56]
PUBLIC 8b70 0 google_breakpad::LinuxDumper::HandleDeletedFileInMapping(char*) const [clone .part.10] [clone .constprop.57]
PUBLIC 8d20 0 google_breakpad::LinuxDumper::GetMappingEffectiveNameAndPath(google_breakpad::MappingInfo const&, char*, unsigned long, char*, unsigned long)
PUBLIC 8e10 0 google_breakpad::LinuxDumper::ReadAuxv()
PUBLIC 8f30 0 google_breakpad::LinuxDumper::Init()
PUBLIC 8f70 0 google_breakpad::LinuxDumper::FindMapping(void const*) const
PUBLIC 8fc0 0 google_breakpad::LinuxDumper::GetStackInfo(void const**, unsigned long*, unsigned long)
PUBLIC 9040 0 google_breakpad::LinuxDumper::HandleDeletedFileInMapping(char*) const
PUBLIC 90a0 0 google_breakpad::LinuxDumper::ElfFileIdentifierForMapping(google_breakpad::MappingInfo const&, bool, unsigned int, google_breakpad::wasteful_vector<unsigned char>&)
PUBLIC 93f0 0 google_breakpad::LinuxDumper::EnumerateMappings()
PUBLIC 9d20 0 google_breakpad::PageAllocator::Alloc(unsigned long)
PUBLIC 9e70 0 std::vector<google_breakpad::MappingInfo*, google_breakpad::PageStdAllocator<google_breakpad::MappingInfo*> >::_M_default_append(unsigned long)
PUBLIC a100 0 google_breakpad::LinuxPtraceDumper::IsPostMortem() const
PUBLIC a110 0 google_breakpad::LinuxPtraceDumper::CopyFromProcess(void*, int, void const*, unsigned long)
PUBLIC a2a0 0 google_breakpad::LinuxPtraceDumper::BuildProcPath(char*, int, char const*) const
PUBLIC a360 0 google_breakpad::LinuxPtraceDumper::ThreadsResume()
PUBLIC a420 0 google_breakpad::LinuxPtraceDumper::EnumerateThreads()
PUBLIC aa20 0 google_breakpad::LinuxPtraceDumper::GetThreadInfoByIndex(unsigned long, google_breakpad::ThreadInfo*)
PUBLIC af40 0 google_breakpad::LinuxPtraceDumper::LinuxPtraceDumper(int)
PUBLIC af70 0 google_breakpad::LinuxPtraceDumper::ThreadsSuspend()
PUBLIC b1d0 0 google_breakpad::LinuxPtraceDumper::~LinuxPtraceDumper()
PUBLIC b1f0 0 google_breakpad::LinuxPtraceDumper::~LinuxPtraceDumper()
PUBLIC b210 0 std::vector<int, google_breakpad::PageStdAllocator<int> >::_M_default_append(unsigned long)
PUBLIC b4a0 0 (anonymous namespace)::MinidumpWriter::WriteThreadListStream(MDRawDirectory*) [clone .constprop.105]
PUBLIC c2b0 0 (anonymous namespace)::MinidumpWriter::Dump() [clone .constprop.104]
PUBLIC e490 0 google_breakpad::WriteMinidump(char const*, std::__cxx11::list<google_breakpad::MappingEntry, std::allocator<google_breakpad::MappingEntry> > const&, std::__cxx11::list<google_breakpad::AppMemory, std::allocator<google_breakpad::AppMemory> > const&, google_breakpad::LinuxDumper*)
PUBLIC e7e0 0 google_breakpad::WriteMinidump(char const*, int, int)
PUBLIC ec80 0 (anonymous namespace)::WriteMinidumpImpl(char const*, int, long, int, void const*, unsigned long, std::__cxx11::list<google_breakpad::MappingEntry, std::allocator<google_breakpad::MappingEntry> > const&, std::__cxx11::list<google_breakpad::AppMemory, std::allocator<google_breakpad::AppMemory> > const&)
PUBLIC f0b0 0 google_breakpad::WriteMinidump(char const*, int, void const*, unsigned long)
PUBLIC f1c0 0 google_breakpad::WriteMinidump(int, int, void const*, unsigned long)
PUBLIC f2d0 0 google_breakpad::WriteMinidump(char const*, int, void const*, unsigned long, std::__cxx11::list<google_breakpad::MappingEntry, std::allocator<google_breakpad::MappingEntry> > const&, std::__cxx11::list<google_breakpad::AppMemory, std::allocator<google_breakpad::AppMemory> > const&)
PUBLIC f300 0 google_breakpad::WriteMinidump(int, int, void const*, unsigned long, std::__cxx11::list<google_breakpad::MappingEntry, std::allocator<google_breakpad::MappingEntry> > const&, std::__cxx11::list<google_breakpad::AppMemory, std::allocator<google_breakpad::AppMemory> > const&)
PUBLIC f330 0 google_breakpad::WriteMinidump(char const*, long, int, void const*, unsigned long, std::__cxx11::list<google_breakpad::MappingEntry, std::allocator<google_breakpad::MappingEntry> > const&, std::__cxx11::list<google_breakpad::AppMemory, std::allocator<google_breakpad::AppMemory> > const&)
PUBLIC f360 0 google_breakpad::WriteMinidump(int, long, int, void const*, unsigned long, std::__cxx11::list<google_breakpad::MappingEntry, std::allocator<google_breakpad::MappingEntry> > const&, std::__cxx11::list<google_breakpad::AppMemory, std::allocator<google_breakpad::AppMemory> > const&)
PUBLIC f390 0 google_breakpad::ProcCpuInfoReader::GetNextField(char const**)
PUBLIC f5f0 0 std::vector<char, google_breakpad::PageStdAllocator<char> >::resize(unsigned long)
PUBLIC f850 0 void std::vector<MDMemoryDescriptor, google_breakpad::PageStdAllocator<MDMemoryDescriptor> >::_M_emplace_back_aux<MDMemoryDescriptor const&>(MDMemoryDescriptor const&)
PUBLIC faa0 0 google_breakpad::TypedMDRVA<MDString>::CopyIndexAfterObject(unsigned int, void const*, unsigned long) [clone .isra.7] [clone .part.8]
PUBLIC fad0 0 google_breakpad::MinidumpFileWriter::MinidumpFileWriter()
PUBLIC faf0 0 google_breakpad::MinidumpFileWriter::Open(char const*)
PUBLIC fb70 0 google_breakpad::MinidumpFileWriter::SetFile(int)
PUBLIC fba0 0 google_breakpad::MinidumpFileWriter::Close()
PUBLIC fc00 0 google_breakpad::MinidumpFileWriter::~MinidumpFileWriter()
PUBLIC fc20 0 google_breakpad::MinidumpFileWriter::Allocate(unsigned long)
PUBLIC fce0 0 google_breakpad::MinidumpFileWriter::Copy(unsigned int, void const*, long)
PUBLIC fde0 0 google_breakpad::MinidumpFileWriter::CopyStringToMDString(wchar_t const*, unsigned int, google_breakpad::TypedMDRVA<MDString>*)
PUBLIC fed0 0 google_breakpad::MinidumpFileWriter::CopyStringToMDString(char const*, unsigned int, google_breakpad::TypedMDRVA<MDString>*)
PUBLIC ffc0 0 google_breakpad::UntypedMDRVA::Allocate(unsigned long)
PUBLIC 10010 0 google_breakpad::UntypedMDRVA::Copy(unsigned int, void const*, unsigned long)
PUBLIC 100a0 0 google_breakpad::MinidumpFileWriter::WriteMemory(void const*, unsigned long, MDMemoryDescriptor*)
PUBLIC 10180 0 google_breakpad::MinidumpFileWriter::WriteString(wchar_t const*, unsigned int, MDLocationDescriptor*)
PUBLIC 10190 0 google_breakpad::MinidumpFileWriter::WriteString(char const*, unsigned int, MDLocationDescriptor*)
PUBLIC 101a0 0 bool google_breakpad::MinidumpFileWriter::WriteStringCore<wchar_t>(wchar_t const*, unsigned int, MDLocationDescriptor*)
PUBLIC 103e0 0 bool google_breakpad::MinidumpFileWriter::WriteStringCore<char>(char const*, unsigned int, MDLocationDescriptor*)
PUBLIC 10620 0 void std::__cxx11::basic_string<char, std::char_traits<char>, std::allocator<char> >::_M_construct<char const*>(char const*, char const*, std::forward_iterator_tag) [clone .isra.34]
PUBLIC 106f0 0 google_breakpad::UTF8ToUTF16Char(char const*, int, unsigned short*)
PUBLIC 107b0 0 google_breakpad::UTF32ToUTF16Char(wchar_t, unsigned short*)
PUBLIC 10830 0 google_breakpad::UTF16ToUTF8[abi:cxx11](std::vector<unsigned short, std::allocator<unsigned short> > const&, bool)
PUBLIC 109b0 0 google_breakpad::UTF32ToUTF16(wchar_t const*, std::vector<unsigned short, std::allocator<unsigned short> >*)
PUBLIC 10aa0 0 google_breakpad::UTF8ToUTF16(char const*, std::vector<unsigned short, std::allocator<unsigned short> >*)
PUBLIC 10b90 0 std::vector<unsigned short, std::allocator<unsigned short> >::_M_fill_insert(__gnu_cxx::__normal_iterator<unsigned short*, std::vector<unsigned short, std::allocator<unsigned short> > >, unsigned long, unsigned short const&)
PUBLIC 10e50 0 std::vector<unsigned short, std::allocator<unsigned short> >::_M_default_append(unsigned long)
PUBLIC 10fa0 0 google_breakpad::IsValidElf(void const*)
PUBLIC 10fc0 0 google_breakpad::ElfClass(void const*)
PUBLIC 10fd0 0 google_breakpad::FindElfSection(void const*, char const*, unsigned int, void const**, unsigned long*, int*)
PUBLIC 11430 0 google_breakpad::FindElfSegment(void const*, unsigned int, void const**, unsigned long*, int*)
PUBLIC 116c0 0 google_breakpad::bytes_to_hex_string(unsigned char const*, unsigned long)
PUBLIC 11800 0 google_breakpad::FileID::FileID(char const*)
PUBLIC 118f0 0 google_breakpad::FileID::ConvertIdentifierToUUIDString[abi:cxx11](google_breakpad::wasteful_vector<unsigned char> const&)
PUBLIC 119c0 0 google_breakpad::FileID::ConvertIdentifierToString[abi:cxx11](google_breakpad::wasteful_vector<unsigned char> const&)
PUBLIC 11a10 0 google_breakpad::FileID::ElfFileIdentifierFromMappedFile(void const*, google_breakpad::wasteful_vector<unsigned char>&)
PUBLIC 11e80 0 google_breakpad::FileID::ElfFileIdentifier(google_breakpad::wasteful_vector<unsigned char>&)
PUBLIC 11f00 0 CreateGUID(MDGUID*)
PUBLIC 11f80 0 GUIDToString(MDGUID const*, char*, int)
PUBLIC 12000 0 GUIDGenerator::InitOnceImpl()
PUBLIC 12020 0 my_strlen
PUBLIC 12040 0 my_strcmp
PUBLIC 12090 0 my_strncmp
PUBLIC 120f0 0 my_strtoui
PUBLIC 12140 0 my_uint_len
PUBLIC 12180 0 my_uitos
PUBLIC 121c0 0 my_strchr
PUBLIC 12200 0 my_strrchr
PUBLIC 12230 0 my_memchr
PUBLIC 12270 0 my_read_hex_ptr
PUBLIC 122f0 0 my_read_decimal_ptr
PUBLIC 12330 0 my_memset
PUBLIC 12350 0 my_strlcpy
PUBLIC 12390 0 my_strlcat
PUBLIC 123d0 0 my_isspace
PUBLIC 12440 0 google_breakpad::MemoryMappedFile::MemoryMappedFile()
PUBLIC 12450 0 google_breakpad::MemoryMappedFile::Unmap()
PUBLIC 124a0 0 google_breakpad::MemoryMappedFile::~MemoryMappedFile()
PUBLIC 124b0 0 google_breakpad::MemoryMappedFile::Map(char const*, unsigned long)
PUBLIC 12660 0 google_breakpad::MemoryMappedFile::MemoryMappedFile(char const*, unsigned long)
PUBLIC 12680 0 google_breakpad::SafeReadLink(char const*, char*, unsigned long)
PUBLIC 126c0 0 google_breakpad::(anonymous namespace)::CrashGenerationClientImpl::~CrashGenerationClientImpl()
PUBLIC 126d0 0 google_breakpad::(anonymous namespace)::CrashGenerationClientImpl::RequestDump(void const*, unsigned long)
PUBLIC 128f0 0 google_breakpad::(anonymous namespace)::CrashGenerationClientImpl::~CrashGenerationClientImpl()
PUBLIC 12900 0 google_breakpad::CrashGenerationClient::TryCreate(int)
PUBLIC 12930 0 google_breakpad::ThreadInfo::GetInstructionPointer() const
PUBLIC 12940 0 google_breakpad::ThreadInfo::FillCPUContext(MDRawContextAMD64*) const
PUBLIC 12c40 0 google_breakpad::ThreadInfo::GetGeneralPurposeRegisters(void**, unsigned long*)
PUBLIC 12c90 0 google_breakpad::ThreadInfo::GetFloatingPointRegisters(void**, unsigned long*)
PUBLIC 12ce0 0 google_breakpad::UContextReader::GetStackPointer(ucontext const*)
PUBLIC 12cf0 0 google_breakpad::UContextReader::GetInstructionPointer(ucontext const*)
PUBLIC 12d00 0 google_breakpad::UContextReader::FillCPUContext(MDRawContextAMD64*, ucontext const*, _libc_fpstate const*)
PUBLIC 12f60 0 isLegalUTF8
PUBLIC 13030 0 ConvertUTF32toUTF16
PUBLIC 13130 0 ConvertUTF16toUTF32
PUBLIC 13250 0 ConvertUTF16toUTF8
PUBLIC 13450 0 isLegalUTF8Sequence
PUBLIC 13480 0 ConvertUTF8toUTF16
PUBLIC 136f0 0 ConvertUTF32toUTF8
PUBLIC 13890 0 ConvertUTF8toUTF32
PUBLIC 13b20 0 __libc_csu_init
PUBLIC 13b90 0 __libc_csu_fini
PUBLIC 13b94 0 _fini
STACK CFI INIT 1f50 2a .cfa: $rsp 8 + .ra: .cfa -8 + ^
STACK CFI INIT 1800 3d0 .cfa: $rsp 16 + .ra: .cfa -8 + ^
STACK CFI 1806 .cfa: $rsp 24 +
STACK CFI INIT 3dc4 3a .cfa: $rsp 8 + .ra: .cfa -8 + ^
STACK CFI 3dc5 $rbp: .cfa -16 + ^ .cfa: $rsp 16 +
STACK CFI 3dc8 .cfa: $rbp 16 +
STACK CFI 3dfd .cfa: $rsp 8 +
STACK CFI INIT 3dfe a0 .cfa: $rsp 8 + .ra: .cfa -8 + ^
STACK CFI 3dff $rbp: .cfa -16 + ^ .cfa: $rsp 16 +
STACK CFI 3e02 .cfa: $rbp 16 +
STACK CFI 3e9d .cfa: $rsp 8 +
STACK CFI INIT 3e9e 12 .cfa: $rsp 8 + .ra: .cfa -8 + ^
STACK CFI 3e9f $rbp: .cfa -16 + ^ .cfa: $rsp 16 +
STACK CFI 3ea2 .cfa: $rbp 16 +
STACK CFI 3eaf .cfa: $rsp 8 +
STACK CFI INIT 2046 48 .cfa: $rsp 8 + .ra: .cfa -8 + ^
STACK CFI 2047 $rbp: .cfa -16 + ^ .cfa: $rsp 16 +
STACK CFI 204a .cfa: $rbp 16 +
STACK CFI 208d .cfa: $rsp 8 +
STACK CFI INIT 208e ba .cfa: $rsp 8 + .ra: .cfa -8 + ^
STACK CFI 208f $rbp: .cfa -16 + ^ .cfa: $rsp 16 +
STACK CFI 2092 .cfa: $rbp 16 +
STACK CFI 2147 .cfa: $rsp 8 +
STACK CFI INIT 2148 ba .cfa: $rsp 8 + .ra: .cfa -8 + ^
STACK CFI 2149 $rbp: .cfa -16 + ^ .cfa: $rsp 16 +
STACK CFI 214c .cfa: $rbp 16 +
STACK CFI 2201 .cfa: $rsp 8 +
STACK CFI INIT 2202 ba .cfa: $rsp 8 + .ra: .cfa -8 + ^
STACK CFI 2203 $rbp: .cfa -16 + ^ .cfa: $rsp 16 +
STACK CFI 2206 .cfa: $rbp 16 +
STACK CFI 22bb .cfa: $rsp 8 +
STACK CFI INIT 22bc ba .cfa: $rsp 8 + .ra: .cfa -8 + ^
STACK CFI 22bd $rbp: .cfa -16 + ^ .cfa: $rsp 16 +
STACK CFI 22c0 .cfa: $rbp 16 +
STACK CFI 2375 .cfa: $rsp 8 +
STACK CFI INIT 2376 ba .cfa: $rsp 8 + .ra: .cfa -8 + ^
STACK CFI 2377 $rbp: .cfa -16 + ^ .cfa: $rsp 16 +
STACK CFI 237a .cfa: $rbp 16 +
STACK CFI 242f .cfa: $rsp 8 +
STACK CFI INIT 2430 ba .cfa: $rsp 8 + .ra: .cfa -8 + ^
STACK CFI 2431 $rbp: .cfa -16 + ^ .cfa: $rsp 16 +
STACK CFI 2434 .cfa: $rbp 16 +
STACK CFI 24e9 .cfa: $rsp 8 +
STACK CFI INIT 24ea ba .cfa: $rsp 8 + .ra: .cfa -8 + ^
STACK CFI 24eb $rbp: .cfa -16 + ^ .cfa: $rsp 16 +
STACK CFI 24ee .cfa: $rbp 16 +
STACK CFI 25a3 .cfa: $rsp 8 +
STACK CFI INIT 25a4 ba .cfa: $rsp 8 + .ra: .cfa -8 + ^
STACK CFI 25a5 $rbp: .cfa -16 + ^ .cfa: $rsp 16 +
STACK CFI 25a8 .cfa: $rbp 16 +
STACK CFI 265d .cfa: $rsp 8 +
STACK CFI INIT 265e ba .cfa: $rsp 8 + .ra: .cfa -8 + ^
STACK CFI 265f $rbp: .cfa -16 + ^ .cfa: $rsp 16 +
STACK CFI 2662 .cfa: $rbp 16 +
STACK CFI 2717 .cfa: $rsp 8 +
STACK CFI INIT 2718 ba .cfa: $rsp 8 + .ra: .cfa -8 + ^
STACK CFI 2719 $rbp: .cfa -16 + ^ .cfa: $rsp 16 +
STACK CFI 271c .cfa: $rbp 16 +
STACK CFI 27d1 .cfa: $rsp 8 +
STACK CFI INIT 27d2 ba .cfa: $rsp 8 + .ra: .cfa -8 + ^
STACK CFI 27d3 $rbp: .cfa -16 + ^ .cfa: $rsp 16 +
STACK CFI 27d6 .cfa: $rbp 16 +
STACK CFI 288b .cfa: $rsp 8 +
STACK CFI INIT 288c ba .cfa: $rsp 8 + .ra: .cfa -8 + ^
STACK CFI 288d $rbp: .cfa -16 + ^ .cfa: $rsp 16 +
STACK CFI 2890 .cfa: $rbp 16 +
STACK CFI 2945 .cfa: $rsp 8 +
STACK CFI INIT 2946 ba .cfa: $rsp 8 + .ra: .cfa -8 + ^
STACK CFI 2947 $rbp: .cfa -16 + ^ .cfa: $rsp 16 +
STACK CFI 294a .cfa: $rbp 16 +
STACK CFI 29ff .cfa: $rsp 8 +
STACK CFI INIT 2a00 ba .cfa: $rsp 8 + .ra: .cfa -8 + ^
STACK CFI 2a01 $rbp: .cfa -16 + ^ .cfa: $rsp 16 +
STACK CFI 2a04 .cfa: $rbp 16 +
STACK CFI 2ab9 .cfa: $rsp 8 +
STACK CFI INIT 2aba ba .cfa: $rsp 8 + .ra: .cfa -8 + ^
STACK CFI 2abb $rbp: .cfa -16 + ^ .cfa: $rsp 16 +
STACK CFI 2abe .cfa: $rbp 16 +
STACK CFI 2b73 .cfa: $rsp 8 +
STACK CFI INIT 2b74 ba .cfa: $rsp 8 + .ra: .cfa -8 + ^
STACK CFI 2b75 $rbp: .cfa -16 + ^ .cfa: $rsp 16 +
STACK CFI 2b78 .cfa: $rbp 16 +
STACK CFI 2c2d .cfa: $rsp 8 +
STACK CFI INIT 2c2e ba .cfa: $rsp 8 + .ra: .cfa -8 + ^
STACK CFI 2c2f $rbp: .cfa -16 + ^ .cfa: $rsp 16 +
STACK CFI 2c32 .cfa: $rbp 16 +
STACK CFI 2ce7 .cfa: $rsp 8 +
STACK CFI INIT 2ce8 ba .cfa: $rsp 8 + .ra: .cfa -8 + ^
STACK CFI 2ce9 $rbp: .cfa -16 + ^ .cfa: $rsp 16 +
STACK CFI 2cec .cfa: $rbp 16 +
STACK CFI 2da1 .cfa: $rsp 8 +
STACK CFI INIT 2da2 ba .cfa: $rsp 8 + .ra: .cfa -8 + ^
STACK CFI 2da3 $rbp: .cfa -16 + ^ .cfa: $rsp 16 +
STACK CFI 2da6 .cfa: $rbp 16 +
STACK CFI 2e5b .cfa: $rsp 8 +
STACK CFI INIT 2e5c ba .cfa: $rsp 8 + .ra: .cfa -8 + ^
STACK CFI 2e5d $rbp: .cfa -16 + ^ .cfa: $rsp 16 +
STACK CFI 2e60 .cfa: $rbp 16 +
STACK CFI 2f15 .cfa: $rsp 8 +
STACK CFI INIT 2f16 ba .cfa: $rsp 8 + .ra: .cfa -8 + ^
STACK CFI 2f17 $rbp: .cfa -16 + ^ .cfa: $rsp 16 +
STACK CFI 2f1a .cfa: $rbp 16 +
STACK CFI 2fcf .cfa: $rsp 8 +
STACK CFI INIT 2fd0 ba .cfa: $rsp 8 + .ra: .cfa -8 + ^
STACK CFI 2fd1 $rbp: .cfa -16 + ^ .cfa: $rsp 16 +
STACK CFI 2fd4 .cfa: $rbp 16 +
STACK CFI 3089 .cfa: $rsp 8 +
STACK CFI INIT 308a ba .cfa: $rsp 8 + .ra: .cfa -8 + ^
STACK CFI 308b $rbp: .cfa -16 + ^ .cfa: $rsp 16 +
STACK CFI 308e .cfa: $rbp 16 +
STACK CFI 3143 .cfa: $rsp 8 +
STACK CFI INIT 3144 ba .cfa: $rsp 8 + .ra: .cfa -8 + ^
STACK CFI 3145 $rbp: .cfa -16 + ^ .cfa: $rsp 16 +
STACK CFI 3148 .cfa: $rbp 16 +
STACK CFI 31fd .cfa: $rsp 8 +
STACK CFI INIT 31fe ba .cfa: $rsp 8 + .ra: .cfa -8 + ^
STACK CFI 31ff $rbp: .cfa -16 + ^ .cfa: $rsp 16 +
STACK CFI 3202 .cfa: $rbp 16 +
STACK CFI 32b7 .cfa: $rsp 8 +
STACK CFI INIT 32b8 ba .cfa: $rsp 8 + .ra: .cfa -8 + ^
STACK CFI 32b9 $rbp: .cfa -16 + ^ .cfa: $rsp 16 +
STACK CFI 32bc .cfa: $rbp 16 +
STACK CFI 3371 .cfa: $rsp 8 +
STACK CFI INIT 3372 ba .cfa: $rsp 8 + .ra: .cfa -8 + ^
STACK CFI 3373 $rbp: .cfa -16 + ^ .cfa: $rsp 16 +
STACK CFI 3376 .cfa: $rbp 16 +
STACK CFI 342b .cfa: $rsp 8 +
STACK CFI INIT 342c ba .cfa: $rsp 8 + .ra: .cfa -8 + ^
STACK CFI 342d $rbp: .cfa -16 + ^ .cfa: $rsp 16 +
STACK CFI 3430 .cfa: $rbp 16 +
STACK CFI 34e5 .cfa: $rsp 8 +
STACK CFI INIT 34e6 ba .cfa: $rsp 8 + .ra: .cfa -8 + ^
STACK CFI 34e7 $rbp: .cfa -16 + ^ .cfa: $rsp 16 +
STACK CFI 34ea .cfa: $rbp 16 +
STACK CFI 359f .cfa: $rsp 8 +
STACK CFI INIT 35a0 ba .cfa: $rsp 8 + .ra: .cfa -8 + ^
STACK CFI 35a1 $rbp: .cfa -16 + ^ .cfa: $rsp 16 +
STACK CFI 35a4 .cfa: $rbp 16 +
STACK CFI 3659 .cfa: $rsp 8 +
STACK CFI INIT 365a ba .cfa: $rsp 8 + .ra: .cfa -8 + ^
STACK CFI 365b $rbp: .cfa -16 + ^ .cfa: $rsp 16 +
STACK CFI 365e .cfa: $rbp 16 +
STACK CFI 3713 .cfa: $rsp 8 +
STACK CFI INIT 3714 ba .cfa: $rsp 8 + .ra: .cfa -8 + ^
STACK CFI 3715 $rbp: .cfa -16 + ^ .cfa: $rsp 16 +
STACK CFI 3718 .cfa: $rbp 16 +
STACK CFI 37cd .cfa: $rsp 8 +
STACK CFI INIT 37ce ba .cfa: $rsp 8 + .ra: .cfa -8 + ^
STACK CFI 37cf $rbp: .cfa -16 + ^ .cfa: $rsp 16 +
STACK CFI 37d2 .cfa: $rbp 16 +
STACK CFI 3887 .cfa: $rsp 8 +
STACK CFI INIT 3888 ba .cfa: $rsp 8 + .ra: .cfa -8 + ^
STACK CFI 3889 $rbp: .cfa -16 + ^ .cfa: $rsp 16 +
STACK CFI 388c .cfa: $rbp 16 +
STACK CFI 3941 .cfa: $rsp 8 +
STACK CFI INIT 3942 ba .cfa: $rsp 8 + .ra: .cfa -8 + ^
STACK CFI 3943 $rbp: .cfa -16 + ^ .cfa: $rsp 16 +
STACK CFI 3946 .cfa: $rbp 16 +
STACK CFI 39fb .cfa: $rsp 8 +
STACK CFI INIT 39fc ba .cfa: $rsp 8 + .ra: .cfa -8 + ^
STACK CFI 39fd $rbp: .cfa -16 + ^ .cfa: $rsp 16 +
STACK CFI 3a00 .cfa: $rbp 16 +
STACK CFI 3ab5 .cfa: $rsp 8 +
STACK CFI INIT 3ab6 ba .cfa: $rsp 8 + .ra: .cfa -8 + ^
STACK CFI 3ab7 $rbp: .cfa -16 + ^ .cfa: $rsp 16 +
STACK CFI 3aba .cfa: $rbp 16 +
STACK CFI 3b6f .cfa: $rsp 8 +
STACK CFI INIT 3eb0 2f .cfa: $rsp 8 + .ra: .cfa -8 + ^
STACK CFI 3eb1 $rbp: .cfa -16 + ^ .cfa: $rsp 16 +
STACK CFI 3eb4 .cfa: $rbp 16 +
STACK CFI 3ede .cfa: $rsp 8 +
STACK CFI INIT 3b70 254 .cfa: $rsp 8 + .ra: .cfa -8 + ^
STACK CFI 3b71 $rbp: .cfa -16 + ^ .cfa: $rsp 16 +
STACK CFI 3b74 .cfa: $rbp 16 +
STACK CFI 3b7c $rbx: .cfa -24 + ^
STACK CFI 3dc3 .cfa: $rsp 8 +
STACK CFI INIT 3ee0 14b .cfa: $rsp 8 + .ra: .cfa -8 + ^
STACK CFI 3ee2 $r14: .cfa -16 + ^ .cfa: $rsp 16 +
STACK CFI 3ee4 $r13: .cfa -24 + ^ .cfa: $rsp 24 +
STACK CFI 3ee6 $r12: .cfa -32 + ^ .cfa: $rsp 32 +
STACK CFI 3ee7 $rbp: .cfa -40 + ^ .cfa: $rsp 40 +
STACK CFI 3ee8 $rbx: .cfa -48 + ^ .cfa: $rsp 48 +
STACK CFI 3eef .cfa: $rsp 208 +
STACK CFI 3f80 .cfa: $rsp 48 +
STACK CFI 3f81 .cfa: $rsp 40 +
STACK CFI 3f82 .cfa: $rsp 32 +
STACK CFI 3f84 .cfa: $rsp 24 +
STACK CFI 3f86 .cfa: $rsp 16 +
STACK CFI 3f88 .cfa: $rsp 8 +
STACK CFI 3f90 .cfa: $rsp 208 +
STACK CFI INIT 4030 7c .cfa: $rsp 8 + .ra: .cfa -8 + ^
STACK CFI 403b $r13: .cfa -16 + ^ .cfa: $rsp 16 +
STACK CFI 403d $r12: .cfa -24 + ^ .cfa: $rsp 24 +
STACK CFI 4045 $rbp: .cfa -32 + ^ .cfa: $rsp 32 +
STACK CFI 4046 $rbx: .cfa -40 + ^ .cfa: $rsp 40 +
STACK CFI 405e .cfa: $rsp 48 +
STACK CFI 4091 .cfa: $rsp 40 +
STACK CFI 4092 $rbx: $rbx .cfa: $rsp 32 +
STACK CFI 4093 $rbp: $rbp .cfa: $rsp 24 +
STACK CFI 4095 $r12: $r12 .cfa: $rsp 16 +
STACK CFI 4097 $r13: $r13 .cfa: $rsp 8 +
STACK CFI 40a0 $r12: .cfa -24 + ^ $r13: .cfa -16 + ^ $rbp: .cfa -32 + ^ $rbx: .cfa -40 + ^ .cfa: $rsp 48 +
STACK CFI INIT 40b0 341 .cfa: $rsp 8 + .ra: .cfa -8 + ^
STACK CFI 40b2 $r12: .cfa -16 + ^ .cfa: $rsp 16 +
STACK CFI 40b3 $rbp: .cfa -24 + ^ .cfa: $rsp 24 +
STACK CFI 40b4 $rbx: .cfa -32 + ^ .cfa: $rsp 32 +
STACK CFI 40c2 .cfa: $rsp 96 +
STACK CFI 4273 .cfa: $rsp 32 +
STACK CFI 4274 .cfa: $rsp 24 +
STACK CFI 4275 .cfa: $rsp 16 +
STACK CFI 4277 .cfa: $rsp 8 +
STACK CFI 4280 .cfa: $rsp 96 +
STACK CFI INIT 4400 d1 .cfa: $rsp 8 + .ra: .cfa -8 + ^
STACK CFI 4402 $r15: .cfa -16 + ^ .cfa: $rsp 16 +
STACK CFI 4404 $r14: .cfa -24 + ^ .cfa: $rsp 24 +
STACK CFI 4409 $r13: .cfa -32 + ^ .cfa: $rsp 32 +
STACK CFI 440b $r12: .cfa -40 + ^ .cfa: $rsp 40 +
STACK CFI 4413 $rbp: .cfa -48 + ^ .cfa: $rsp 48 +
STACK CFI 4414 $rbx: .cfa -56 + ^ .cfa: $rsp 56 +
STACK CFI 4423 .cfa: $rsp 64 +
STACK CFI 444e .cfa: $rsp 56 +
STACK CFI 444f .cfa: $rsp 48 +
STACK CFI 4450 .cfa: $rsp 40 +
STACK CFI 4452 .cfa: $rsp 32 +
STACK CFI 4454 .cfa: $rsp 24 +
STACK CFI 4456 .cfa: $rsp 16 +
STACK CFI 4458 .cfa: $rsp 8 +
STACK CFI 4460 .cfa: $rsp 64 +
STACK CFI 44ac .cfa: $rsp 56 +
STACK CFI 44b9 .cfa: $rsp 48 +
STACK CFI 44ba .cfa: $rsp 40 +
STACK CFI 44bc .cfa: $rsp 32 +
STACK CFI 44be .cfa: $rsp 24 +
STACK CFI 44c0 .cfa: $rsp 16 +
STACK CFI 44c2 .cfa: $rsp 8 +
STACK CFI 44c7 .cfa: $rsp 64 +
STACK CFI INIT 44e0 4bc .cfa: $rsp 8 + .ra: .cfa -8 + ^
STACK CFI 44e2 $r15: .cfa -16 + ^ .cfa: $rsp 16 +
STACK CFI 44e4 $r14: .cfa -24 + ^ .cfa: $rsp 24 +
STACK CFI 44e6 $r13: .cfa -32 + ^ .cfa: $rsp 32 +
STACK CFI 44e8 $r12: .cfa -40 + ^ .cfa: $rsp 40 +
STACK CFI 44e9 $rbp: .cfa -48 + ^ .cfa: $rsp 48 +
STACK CFI 44ea $rbx: .cfa -56 + ^ .cfa: $rsp 56 +
STACK CFI 44f4 .cfa: $rsp 144 +
STACK CFI 4534 .cfa: $rsp 56 +
STACK CFI 4535 .cfa: $rsp 48 +
STACK CFI 4536 .cfa: $rsp 40 +
STACK CFI 4538 .cfa: $rsp 32 +
STACK CFI 453a .cfa: $rsp 24 +
STACK CFI 453c .cfa: $rsp 16 +
STACK CFI 453e .cfa: $rsp 8 +
STACK CFI 4540 .cfa: $rsp 144 +
STACK CFI INIT 49a0 1da .cfa: $rsp 8 + .ra: .cfa -8 + ^
STACK CFI 49a2 $r13: .cfa -16 + ^ .cfa: $rsp 16 +
STACK CFI 49a4 $r12: .cfa -24 + ^ .cfa: $rsp 24 +
STACK CFI 49a8 $rbp: .cfa -32 + ^ .cfa: $rsp 32 +
STACK CFI 49a9 $rbx: .cfa -40 + ^ .cfa: $rsp 40 +
STACK CFI 49b3 .cfa: $rsp 48 +
STACK CFI 49c9 .cfa: $rsp 40 +
STACK CFI 49ca .cfa: $rsp 32 +
STACK CFI 49cb .cfa: $rsp 24 +
STACK CFI 49cd .cfa: $rsp 16 +
STACK CFI 49cf .cfa: $rsp 8 +
STACK CFI 49d0 .cfa: $rsp 48 +
STACK CFI 4b3d .cfa: $rsp 40 +
STACK CFI 4b48 .cfa: $rsp 32 +
STACK CFI 4b49 .cfa: $rsp 24 +
STACK CFI 4b4b .cfa: $rsp 16 +
STACK CFI 4b4d .cfa: $rsp 8 +
STACK CFI 4b58 .cfa: $rsp 48 +
STACK CFI INIT 4b80 1c1 .cfa: $rsp 8 + .ra: .cfa -8 + ^
STACK CFI 4b82 $r14: .cfa -16 + ^ .cfa: $rsp 16 +
STACK CFI 4b84 $r13: .cfa -24 + ^ .cfa: $rsp 24 +
STACK CFI 4b89 $r12: .cfa -32 + ^ .cfa: $rsp 32 +
STACK CFI 4b8a $rbp: .cfa -40 + ^ .cfa: $rsp 40 +
STACK CFI 4b8e $rbx: .cfa -48 + ^ .cfa: $rsp 48 +
STACK CFI 4b9f .cfa: $rsp 208 +
STACK CFI 4c7a .cfa: $rsp 48 +
STACK CFI 4c7b .cfa: $rsp 40 +
STACK CFI 4c7c .cfa: $rsp 32 +
STACK CFI 4c7e .cfa: $rsp 24 +
STACK CFI 4c80 .cfa: $rsp 16 +
STACK CFI 4c82 .cfa: $rsp 8 +
STACK CFI 4c88 .cfa: $rsp 208 +
STACK CFI INIT 4d50 7f .cfa: $rsp 8 + .ra: .cfa -8 + ^
STACK CFI 4d57 .cfa: $rsp 1104 +
STACK CFI 4dc9 .cfa: $rsp 8 +
STACK CFI 4dca .cfa: $rsp 1104 +
STACK CFI INIT 4dd0 e5 .cfa: $rsp 8 + .ra: .cfa -8 + ^
STACK CFI 4dd2 $r15: .cfa -16 + ^ .cfa: $rsp 16 +
STACK CFI 4dd4 $r14: .cfa -24 + ^ .cfa: $rsp 24 +
STACK CFI 4dd9 $r13: .cfa -32 + ^ .cfa: $rsp 32 +
STACK CFI 4ddb $r12: .cfa -40 + ^ .cfa: $rsp 40 +
STACK CFI 4ddf $rbp: .cfa -48 + ^ .cfa: $rsp 48 +
STACK CFI 4de0 $rbx: .cfa -56 + ^ .cfa: $rsp 56 +
STACK CFI 4de9 .cfa: $rsp 80 +
STACK CFI 4e3a .cfa: $rsp 56 +
STACK CFI 4e3b .cfa: $rsp 48 +
STACK CFI 4e3c .cfa: $rsp 40 +
STACK CFI 4e3e .cfa: $rsp 32 +
STACK CFI 4e40 .cfa: $rsp 24 +
STACK CFI 4e42 .cfa: $rsp 16 +
STACK CFI 4e44 .cfa: $rsp 8 +
STACK CFI 4e48 .cfa: $rsp 80 +
STACK CFI INIT 4ec0 8b .cfa: $rsp 8 + .ra: .cfa -8 + ^
STACK CFI 4ed6 .cfa: $rsp 16 +
STACK CFI 4ef6 .cfa: $rsp 24 +
STACK CFI 4efc .cfa: $rsp 32 +
STACK CFI 4f09 .cfa: $rsp 24 +
STACK CFI 4f0a .cfa: $rsp 16 +
STACK CFI 4f0e .cfa: $rsp 8 +
STACK CFI 4f28 .cfa: $rsp 16 +
STACK CFI 4f33 .cfa: $rsp 24 +
STACK CFI 4f38 .cfa: $rsp 32 +
STACK CFI 4f45 .cfa: $rsp 24 +
STACK CFI 4f46 .cfa: $rsp 16 +
STACK CFI 4f4a .cfa: $rsp 8 +
STACK CFI INIT 4f50 28 .cfa: $rsp 8 + .ra: .cfa -8 + ^
STACK CFI 4f51 $rbx: .cfa -16 + ^ .cfa: $rsp 16 +
STACK CFI 4f77 .cfa: $rsp 8 +
STACK CFI INIT 4f80 195 .cfa: $rsp 8 + .ra: .cfa -8 + ^
STACK CFI 4f81 $rbx: .cfa -16 + ^ .cfa: $rsp 16 +
STACK CFI 4f88 .cfa: $rsp 1632 +
STACK CFI 501e .cfa: $rsp 16 +
STACK CFI 501f .cfa: $rsp 8 +
STACK CFI 5020 .cfa: $rsp 1632 +
STACK CFI INIT 5120 e3 .cfa: $rsp 8 + .ra: .cfa -8 + ^
STACK CFI 5122 $r14: .cfa -16 + ^ .cfa: $rsp 16 +
STACK CFI 5124 $r13: .cfa -24 + ^ .cfa: $rsp 24 +
STACK CFI 5128 $rbp: .cfa -32 + ^ .cfa: $rsp 32 +
STACK CFI 5129 $rbx: .cfa -40 + ^ .cfa: $rsp 40 +
STACK CFI 5138 .cfa: $rsp 640 +
STACK CFI 51f7 .cfa: $rsp 40 +
STACK CFI 51f8 .cfa: $rsp 32 +
STACK CFI 51f9 .cfa: $rsp 24 +
STACK CFI 51fb .cfa: $rsp 16 +
STACK CFI 51fd .cfa: $rsp 8 +
STACK CFI 51fe .cfa: $rsp 640 +
STACK CFI INIT 5210 91 .cfa: $rsp 8 + .ra: .cfa -8 + ^
STACK CFI 5212 $r13: .cfa -16 + ^ .cfa: $rsp 16 +
STACK CFI 5214 $r12: .cfa -24 + ^ .cfa: $rsp 24 +
STACK CFI 5215 $rbp: .cfa -32 + ^ .cfa: $rsp 32 +
STACK CFI 5216 $rbx: .cfa -40 + ^ .cfa: $rsp 40 +
STACK CFI 5221 .cfa: $rsp 48 +
STACK CFI 524a .cfa: $rsp 40 +
STACK CFI 524b .cfa: $rsp 32 +
STACK CFI 524c .cfa: $rsp 24 +
STACK CFI 524e .cfa: $rsp 16 +
STACK CFI 5250 .cfa: $rsp 8 +
STACK CFI 5258 .cfa: $rsp 48 +
STACK CFI 529a .cfa: $rsp 40 +
STACK CFI 529b .cfa: $rsp 32 +
STACK CFI 529c .cfa: $rsp 24 +
STACK CFI 529e .cfa: $rsp 16 +
STACK CFI 52a0 .cfa: $rsp 8 +
STACK CFI INIT 52b0 52 .cfa: $rsp 8 + .ra: .cfa -8 + ^
STACK CFI 52b1 $rbx: .cfa -16 + ^ .cfa: $rsp 16 +
STACK CFI 52f2 .cfa: $rsp 8 +
STACK CFI 5300 .cfa: $rsp 16 +
STACK CFI 5301 .cfa: $rsp 8 +
STACK CFI INIT 5310 23d .cfa: $rsp 8 + .ra: .cfa -8 + ^
STACK CFI 5312 $r15: .cfa -16 + ^ .cfa: $rsp 16 +
STACK CFI 5314 $r14: .cfa -24 + ^ .cfa: $rsp 24 +
STACK CFI 5319 $r13: .cfa -32 + ^ .cfa: $rsp 32 +
STACK CFI 531b $r12: .cfa -40 + ^ .cfa: $rsp 40 +
STACK CFI 531f $rbp: .cfa -48 + ^ .cfa: $rsp 48 +
STACK CFI 5320 $rbx: .cfa -56 + ^ .cfa: $rsp 56 +
STACK CFI 5330 .cfa: $rsp 224 +
STACK CFI 5492 .cfa: $rsp 56 +
STACK CFI 5493 .cfa: $rsp 48 +
STACK CFI 5494 .cfa: $rsp 40 +
STACK CFI 5496 .cfa: $rsp 32 +
STACK CFI 5498 .cfa: $rsp 24 +
STACK CFI 549a .cfa: $rsp 16 +
STACK CFI 549c .cfa: $rsp 8 +
STACK CFI 54a0 .cfa: $rsp 224 +
STACK CFI INIT 5b70 ea .cfa: $rsp 8 + .ra: .cfa -8 + ^
STACK CFI 5b72 $r15: .cfa -16 + ^ .cfa: $rsp 16 +
STACK CFI 5b74 $r14: .cfa -24 + ^ .cfa: $rsp 24 +
STACK CFI 5b79 $r13: .cfa -32 + ^ .cfa: $rsp 32 +
STACK CFI 5b7b $r12: .cfa -40 + ^ .cfa: $rsp 40 +
STACK CFI 5b7f $rbp: .cfa -48 + ^ .cfa: $rsp 48 +
STACK CFI 5b80 $rbx: .cfa -56 + ^ .cfa: $rsp 56 +
STACK CFI 5b84 .cfa: $rsp 64 +
STACK CFI 5c0a .cfa: $rsp 56 +
STACK CFI 5c0b .cfa: $rsp 48 +
STACK CFI 5c0c .cfa: $rsp 40 +
STACK CFI 5c0e .cfa: $rsp 32 +
STACK CFI 5c10 .cfa: $rsp 24 +
STACK CFI 5c12 .cfa: $rsp 16 +
STACK CFI 5c14 .cfa: $rsp 8 +
STACK CFI 5c18 .cfa: $rsp 64 +
STACK CFI INIT 5550 396 .cfa: $rsp 8 + .ra: .cfa -8 + ^
STACK CFI 5552 $r15: .cfa -16 + ^ .cfa: $rsp 16 +
STACK CFI 5554 $r14: .cfa -24 + ^ .cfa: $rsp 24 +
STACK CFI 5559 $r13: .cfa -32 + ^ .cfa: $rsp 32 +
STACK CFI 555f $r12: .cfa -40 + ^ .cfa: $rsp 40 +
STACK CFI 5560 $rbp: .cfa -48 + ^ .cfa: $rsp 48 +
STACK CFI 5561 $rbx: .cfa -56 + ^ .cfa: $rsp 56 +
STACK CFI 5568 .cfa: $rsp 80 +
STACK CFI 56ae .cfa: $rsp 56 +
STACK CFI 56af .cfa: $rsp 48 +
STACK CFI 56b0 .cfa: $rsp 40 +
STACK CFI 56b2 .cfa: $rsp 32 +
STACK CFI 56b4 .cfa: $rsp 24 +
STACK CFI 56b6 .cfa: $rsp 16 +
STACK CFI 56b8 .cfa: $rsp 8 +
STACK CFI 56c0 .cfa: $rsp 80 +
STACK CFI INIT 58f0 27d .cfa: $rsp 8 + .ra: .cfa -8 + ^
STACK CFI 58f1 $rbp: .cfa -16 + ^ .cfa: $rsp 16 +
STACK CFI 58f4 .cfa: $rbp 16 +
STACK CFI 58fc $r12: .cfa -48 + ^ $r13: .cfa -40 + ^ $r14: .cfa -32 + ^ $r15: .cfa -24 + ^
STACK CFI 5900 $rbx: .cfa -56 + ^
STACK CFI 5ab1 .cfa: $rsp 8 +
STACK CFI 5ab8 .cfa: $rbp 16 +
STACK CFI INIT 5c60 c2 .cfa: $rsp 8 + .ra: .cfa -8 + ^
STACK CFI 5c62 $r12: .cfa -16 + ^ .cfa: $rsp 16 +
STACK CFI 5c63 $rbp: .cfa -24 + ^ .cfa: $rsp 24 +
STACK CFI 5c67 $rbx: .cfa -32 + ^ .cfa: $rsp 32 +
STACK CFI 5c6e .cfa: $rsp 48 +
STACK CFI 5cda .cfa: $rsp 32 +
STACK CFI 5cdb .cfa: $rsp 24 +
STACK CFI 5cdc .cfa: $rsp 16 +
STACK CFI 5cde .cfa: $rsp 8 +
STACK CFI 5ce0 .cfa: $rsp 48 +
STACK CFI INIT 5d30 a4 .cfa: $rsp 8 + .ra: .cfa -8 + ^
STACK CFI 5d31 $rbp: .cfa -16 + ^ .cfa: $rsp 16 +
STACK CFI 5d32 $rbx: .cfa -24 + ^ .cfa: $rsp 24 +
STACK CFI 5d40 .cfa: $rsp 32 +
STACK CFI 5db2 .cfa: $rsp 24 +
STACK CFI 5db3 .cfa: $rsp 16 +
STACK CFI 5db4 .cfa: $rsp 8 +
STACK CFI 5db5 .cfa: $rsp 32 +
STACK CFI INIT 5de0 317 .cfa: $rsp 8 + .ra: .cfa -8 + ^
STACK CFI 5de2 $r13: .cfa -16 + ^ .cfa: $rsp 16 +
STACK CFI 5de4 $r12: .cfa -24 + ^ .cfa: $rsp 24 +
STACK CFI 5de5 $rbp: .cfa -32 + ^ .cfa: $rsp 32 +
STACK CFI 5de6 $rbx: .cfa -40 + ^ .cfa: $rsp 40 +
STACK CFI 5ded .cfa: $rsp 208 +
STACK CFI 6039 .cfa: $rsp 40 +
STACK CFI 603a .cfa: $rsp 32 +
STACK CFI 603b .cfa: $rsp 24 +
STACK CFI 603d .cfa: $rsp 16 +
STACK CFI 603f .cfa: $rsp 8 +
STACK CFI 6040 .cfa: $rsp 208 +
STACK CFI INIT 6100 a2 .cfa: $rsp 8 + .ra: .cfa -8 + ^
STACK CFI 6101 $rbp: .cfa -16 + ^ .cfa: $rsp 16 +
STACK CFI 6102 $rbx: .cfa -24 + ^ .cfa: $rsp 24 +
STACK CFI 6106 .cfa: $rsp 32 +
STACK CFI 617d .cfa: $rsp 24 +
STACK CFI 6181 .cfa: $rsp 16 +
STACK CFI 6182 .cfa: $rsp 8 +
STACK CFI 6183 .cfa: $rsp 32 +
STACK CFI INIT 61b0 33 .cfa: $rsp 8 + .ra: .cfa -8 + ^
STACK CFI 61bc $rbx: .cfa -16 + ^ .cfa: $rsp 16 +
STACK CFI 61e2 .cfa: $rsp 8 +
STACK CFI INIT 7cb0 3ea .cfa: $rsp 8 + .ra: .cfa -8 + ^
STACK CFI 7cbb $r15: .cfa -16 + ^ .cfa: $rsp 16 +
STACK CFI 7cbd $r14: .cfa -24 + ^ .cfa: $rsp 24 +
STACK CFI 7cc2 $r13: .cfa -32 + ^ .cfa: $rsp 32 +
STACK CFI 7cc4 $r12: .cfa -40 + ^ .cfa: $rsp 40 +
STACK CFI 7cc8 $rbp: .cfa -48 + ^ .cfa: $rsp 48 +
STACK CFI 7cc9 $rbx: .cfa -56 + ^ .cfa: $rsp 56 +
STACK CFI 7cd9 .cfa: $rsp 96 +
STACK CFI 7d4c .cfa: $rsp 56 +
STACK CFI 7d4d $rbx: $rbx .cfa: $rsp 48 +
STACK CFI 7d4e $rbp: $rbp .cfa: $rsp 40 +
STACK CFI 7d50 $r12: $r12 .cfa: $rsp 32 +
STACK CFI 7d52 $r13: $r13 .cfa: $rsp 24 +
STACK CFI 7d54 $r14: $r14 .cfa: $rsp 16 +
STACK CFI 7d56 $r15: $r15 .cfa: $rsp 8 +
STACK CFI 7d60 $r12: .cfa -40 + ^ $r13: .cfa -32 + ^ $r14: .cfa -24 + ^ $r15: .cfa -16 + ^ $rbp: .cfa -48 + ^ $rbx: .cfa -56 + ^ .cfa: $rsp 96 +
STACK CFI 7dd0 .cfa: $rsp 56 +
STACK CFI 7dd7 $rbx: $rbx .cfa: $rsp 48 +
STACK CFI 7dd8 $rbp: $rbp .cfa: $rsp 40 +
STACK CFI 7dda $r12: $r12 .cfa: $rsp 32 +
STACK CFI 7ddc $r13: $r13 .cfa: $rsp 24 +
STACK CFI 7dde $r14: $r14 .cfa: $rsp 16 +
STACK CFI 7de0 $r15: $r15 .cfa: $rsp 8 +
STACK CFI 7de8 $r12: .cfa -40 + ^ $r13: .cfa -32 + ^ $r14: .cfa -24 + ^ $r15: .cfa -16 + ^ $rbp: .cfa -48 + ^ $rbx: .cfa -56 + ^ .cfa: $rsp 96 +
STACK CFI 7ecd .cfa: $rsp 56 +
STACK CFI 7ece $rbx: $rbx .cfa: $rsp 48 +
STACK CFI 7ecf $rbp: $rbp .cfa: $rsp 40 +
STACK CFI 7ed1 $r12: $r12 .cfa: $rsp 32 +
STACK CFI 7ed3 $r13: $r13 .cfa: $rsp 24 +
STACK CFI 7ed5 $r14: $r14 .cfa: $rsp 16 +
STACK CFI 7ed7 $r15: $r15 .cfa: $rsp 8 +
STACK CFI 7ee0 $r12: .cfa -40 + ^ $r13: .cfa -32 + ^ $r14: .cfa -24 + ^ $r15: .cfa -16 + ^ $rbp: .cfa -48 + ^ $rbx: .cfa -56 + ^ .cfa: $rsp 96 +
STACK CFI INIT 61f0 1ab5 .cfa: $rsp 8 + .ra: .cfa -8 + ^
STACK CFI 61f1 $rbp: .cfa -16 + ^ .cfa: $rsp 16 +
STACK CFI 61f4 .cfa: $rbp 16 +
STACK CFI 61fc $r12: .cfa -48 + ^ $r13: .cfa -40 + ^ $r14: .cfa -32 + ^ $r15: .cfa -24 + ^
STACK CFI 6200 $rbx: .cfa -56 + ^
STACK CFI 629a .cfa: $rsp 8 +
STACK CFI 629b .cfa: $rbp 16 +
STACK CFI INIT 80a0 6 .cfa: $rsp 8 + .ra: .cfa -8 + ^
STACK CFI INIT 9d20 143 .cfa: $rsp 8 + .ra: .cfa -8 + ^
STACK CFI 9d2b $r15: .cfa -16 + ^ .cfa: $rsp 16 +
STACK CFI 9d2d $r14: .cfa -24 + ^ .cfa: $rsp 24 +
STACK CFI 9d2f $r13: .cfa -32 + ^ .cfa: $rsp 32 +
STACK CFI 9d31 $r12: .cfa -40 + ^ .cfa: $rsp 40 +
STACK CFI 9d32 $rbp: .cfa -48 + ^ .cfa: $rsp 48 +
STACK CFI 9d33 $rbx: .cfa -56 + ^ .cfa: $rsp 56 +
STACK CFI 9d3a .cfa: $rsp 64 +
STACK CFI 9d6c .cfa: $rsp 56 +
STACK CFI 9d6d $rbx: $rbx .cfa: $rsp 48 +
STACK CFI 9d6e $rbp: $rbp .cfa: $rsp 40 +
STACK CFI 9d70 $r12: $r12 .cfa: $rsp 32 +
STACK CFI 9d72 $r13: $r13 .cfa: $rsp 24 +
STACK CFI 9d74 $r14: $r14 .cfa: $rsp 16 +
STACK CFI 9d76 $r15: $r15 .cfa: $rsp 8 +
STACK CFI 9d80 $r12: .cfa -40 + ^ $r13: .cfa -32 + ^ $r14: .cfa -24 + ^ $r15: .cfa -16 + ^ $rbp: .cfa -48 + ^ $rbx: .cfa -56 + ^ .cfa: $rsp 64 +
STACK CFI 9e2f .cfa: $rsp 56 +
STACK CFI 9e34 $rbx: $rbx .cfa: $rsp 48 +
STACK CFI 9e35 $rbp: $rbp .cfa: $rsp 40 +
STACK CFI 9e37 $r12: $r12 .cfa: $rsp 32 +
STACK CFI 9e39 $r13: $r13 .cfa: $rsp 24 +
STACK CFI 9e3b $r14: $r14 .cfa: $rsp 16 +
STACK CFI 9e3d $r15: $r15 .cfa: $rsp 8 +
STACK CFI 9e40 $r12: .cfa -40 + ^ $r13: .cfa -32 + ^ $r14: .cfa -24 + ^ $r15: .cfa -16 + ^ $rbp: .cfa -48 + ^ $rbx: .cfa -56 + ^ .cfa: $rsp 64 +
STACK CFI 9e54 .cfa: $rsp 56 +
STACK CFI 9e55 $rbx: $rbx .cfa: $rsp 48 +
STACK CFI 9e56 $rbp: $rbp .cfa: $rsp 40 +
STACK CFI 9e58 $r12: $r12 .cfa: $rsp 32 +
STACK CFI 9e5a $r13: $r13 .cfa: $rsp 24 +
STACK CFI 9e5c $r14: $r14 .cfa: $rsp 16 +
STACK CFI 9e5e $r15: $r15 .cfa: $rsp 8 +
STACK CFI INIT 80b0 835 .cfa: $rsp 8 + .ra: .cfa -8 + ^
STACK CFI 80b2 $r15: .cfa -16 + ^ .cfa: $rsp 16 +
STACK CFI 80b4 $r14: .cfa -24 + ^ .cfa: $rsp 24 +
STACK CFI 80bd $r13: .cfa -32 + ^ .cfa: $rsp 32 +
STACK CFI 80bf $r12: .cfa -40 + ^ .cfa: $rsp 40 +
STACK CFI 80c6 $rbp: .cfa -48 + ^ .cfa: $rsp 48 +
STACK CFI 80c7 $rbx: .cfa -56 + ^ .cfa: $rsp 56 +
STACK CFI 80d2 .cfa: $rsp 80 +
STACK CFI 8325 .cfa: $rsp 56 +
STACK CFI 8326 .cfa: $rsp 48 +
STACK CFI 8327 .cfa: $rsp 40 +
STACK CFI 8329 .cfa: $rsp 32 +
STACK CFI 832b .cfa: $rsp 24 +
STACK CFI 832d .cfa: $rsp 16 +
STACK CFI 832f .cfa: $rsp 8 +
STACK CFI 8330 .cfa: $rsp 80 +
STACK CFI INIT 88f0 67 .cfa: $rsp 8 + .ra: .cfa -8 + ^
STACK CFI 88f2 $r13: .cfa -16 + ^ .cfa: $rsp 16 +
STACK CFI 88f4 $r12: .cfa -24 + ^ .cfa: $rsp 24 +
STACK CFI 88f8 $rbp: .cfa -32 + ^ .cfa: $rsp 32 +
STACK CFI 88f9 $rbx: .cfa -40 + ^ .cfa: $rsp 40 +
STACK CFI 8902 .cfa: $rsp 48 +
STACK CFI 8950 .cfa: $rsp 40 +
STACK CFI 8951 .cfa: $rsp 32 +
STACK CFI 8952 .cfa: $rsp 24 +
STACK CFI 8954 .cfa: $rsp 16 +
STACK CFI 8956 .cfa: $rsp 8 +
STACK CFI INIT 8960 12 .cfa: $rsp 8 + .ra: .cfa -8 + ^
STACK CFI 8961 $rbx: .cfa -16 + ^ .cfa: $rsp 16 +
STACK CFI 896d .cfa: $rsp 8 +
STACK CFI INIT 8980 4a .cfa: $rsp 8 + .ra: .cfa -8 + ^
STACK CFI 8981 $rbp: .cfa -16 + ^ .cfa: $rsp 16 +
STACK CFI 8982 $rbx: .cfa -24 + ^ .cfa: $rsp 24 +
STACK CFI 8991 .cfa: $rsp 32 +
STACK CFI 89c5 .cfa: $rsp 24 +
STACK CFI 89c8 .cfa: $rsp 16 +
STACK CFI 89c9 .cfa: $rsp 8 +
STACK CFI INIT 89d0 19f .cfa: $rsp 8 + .ra: .cfa -8 + ^
STACK CFI 89d2 $r14: .cfa -16 + ^ .cfa: $rsp 16 +
STACK CFI 89d4 $r13: .cfa -24 + ^ .cfa: $rsp 24 +
STACK CFI 89d9 $r12: .cfa -32 + ^ .cfa: $rsp 32 +
STACK CFI 89da $rbp: .cfa -40 + ^ .cfa: $rsp 40 +
STACK CFI 89df $rbx: .cfa -48 + ^ .cfa: $rsp 48 +
STACK CFI 89fb .cfa: $rsp 4224 +
STACK CFI 8a39 .cfa: $rsp 48 +
STACK CFI 8a3a .cfa: $rsp 40 +
STACK CFI 8a3b .cfa: $rsp 32 +
STACK CFI 8a3d .cfa: $rsp 24 +
STACK CFI 8a3f .cfa: $rsp 16 +
STACK CFI 8a41 .cfa: $rsp 8 +
STACK CFI 8a48 .cfa: $rsp 4224 +
STACK CFI INIT 8b70 1a7 .cfa: $rsp 8 + .ra: .cfa -8 + ^
STACK CFI 8b72 $r14: .cfa -16 + ^ .cfa: $rsp 16 +
STACK CFI 8b74 $r13: .cfa -24 + ^ .cfa: $rsp 24 +
STACK CFI 8b7d $r12: .cfa -32 + ^ .cfa: $rsp 32 +
STACK CFI 8b7e $rbp: .cfa -40 + ^ .cfa: $rsp 40 +
STACK CFI 8b82 $rbx: .cfa -48 + ^ .cfa: $rsp 48 +
STACK CFI 8b8c .cfa: $rsp 4992 +
STACK CFI 8bd9 .cfa: $rsp 48 +
STACK CFI 8bda .cfa: $rsp 40 +
STACK CFI 8bdb .cfa: $rsp 32 +
STACK CFI 8bdd .cfa: $rsp 24 +
STACK CFI 8bdf .cfa: $rsp 16 +
STACK CFI 8be1 .cfa: $rsp 8 +
STACK CFI 8be8 .cfa: $rsp 4992 +
STACK CFI INIT 8d20 e6 .cfa: $rsp 8 + .ra: .cfa -8 + ^
STACK CFI 8d22 $r15: .cfa -16 + ^ .cfa: $rsp 16 +
STACK CFI 8d24 $r14: .cfa -24 + ^ .cfa: $rsp 24 +
STACK CFI 8d29 $r13: .cfa -32 + ^ .cfa: $rsp 32 +
STACK CFI 8d2b $r12: .cfa -40 + ^ .cfa: $rsp 40 +
STACK CFI 8d2f $rbp: .cfa -48 + ^ .cfa: $rsp 48 +
STACK CFI 8d30 $rbx: .cfa -56 + ^ .cfa: $rsp 56 +
STACK CFI 8d41 .cfa: $rsp 64 +
STACK CFI 8d7b .cfa: $rsp 56 +
STACK CFI 8d82 .cfa: $rsp 48 +
STACK CFI 8d83 .cfa: $rsp 40 +
STACK CFI 8d85 .cfa: $rsp 32 +
STACK CFI 8d87 .cfa: $rsp 24 +
STACK CFI 8d89 .cfa: $rsp 16 +
STACK CFI 8d8b .cfa: $rsp 8 +
STACK CFI 8d90 .cfa: $rsp 64 +
STACK CFI 8dc6 .cfa: $rsp 56 +
STACK CFI 8dc7 .cfa: $rsp 48 +
STACK CFI 8dc8 .cfa: $rsp 40 +
STACK CFI 8dca .cfa: $rsp 32 +
STACK CFI 8dcc .cfa: $rsp 24 +
STACK CFI 8dce .cfa: $rsp 16 +
STACK CFI 8dd0 .cfa: $rsp 8 +
STACK CFI 8dd8 .cfa: $rsp 64 +
STACK CFI 8dee .cfa: $rsp 56 +
STACK CFI 8df8 .cfa: $rsp 48 +
STACK CFI 8df9 .cfa: $rsp 40 +
STACK CFI 8dfb .cfa: $rsp 32 +
STACK CFI 8dfd .cfa: $rsp 24 +
STACK CFI 8dff .cfa: $rsp 16 +
STACK CFI 8e01 .cfa: $rsp 8 +
STACK CFI INIT 8e10 119 .cfa: $rsp 8 + .ra: .cfa -8 + ^
STACK CFI 8e12 $r13: .cfa -16 + ^ .cfa: $rsp 16 +
STACK CFI 8e14 $r12: .cfa -24 + ^ .cfa: $rsp 24 +
STACK CFI 8e18 $rbp: .cfa -32 + ^ .cfa: $rsp 32 +
STACK CFI 8e19 $rbx: .cfa -40 + ^ .cfa: $rsp 40 +
STACK CFI 8e27 .cfa: $rsp 336 +
STACK CFI 8ee9 .cfa: $rsp 40 +
STACK CFI 8eea .cfa: $rsp 32 +
STACK CFI 8eeb .cfa: $rsp 24 +
STACK CFI 8eed .cfa: $rsp 16 +
STACK CFI 8eef .cfa: $rsp 8 +
STACK CFI 8ef0 .cfa: $rsp 336 +
STACK CFI INIT 8f30 32 .cfa: $rsp 8 + .ra: .cfa -8 + ^
STACK CFI 8f31 $rbx: .cfa -16 + ^ .cfa: $rsp 16 +
STACK CFI 8f40 .cfa: $rsp 8 +
STACK CFI 8f48 .cfa: $rsp 16 +
STACK CFI 8f5c .cfa: $rsp 8 +
STACK CFI INIT 8f70 4b .cfa: $rsp 8 + .ra: .cfa -8 + ^
STACK CFI INIT 8fc0 7d .cfa: $rsp 8 + .ra: .cfa -8 + ^
STACK CFI 8fc2 $r13: .cfa -16 + ^ .cfa: $rsp 16 +
STACK CFI 8fc4 $r12: .cfa -24 + ^ .cfa: $rsp 24 +
STACK CFI 8fc8 $rbp: .cfa -32 + ^ .cfa: $rsp 32 +
STACK CFI 8fc9 $rbx: .cfa -40 + ^ .cfa: $rsp 40 +
STACK CFI 8fd6 .cfa: $rsp 48 +
STACK CFI 9020 .cfa: $rsp 40 +
STACK CFI 9021 .cfa: $rsp 32 +
STACK CFI 9022 .cfa: $rsp 24 +
STACK CFI 9024 .cfa: $rsp 16 +
STACK CFI 9026 .cfa: $rsp 8 +
STACK CFI 9030 .cfa: $rsp 48 +
STACK CFI 9034 .cfa: $rsp 40 +
STACK CFI 9037 .cfa: $rsp 32 +
STACK CFI 9038 .cfa: $rsp 24 +
STACK CFI 903a .cfa: $rsp 16 +
STACK CFI 903c .cfa: $rsp 8 +
STACK CFI INIT 9040 53 .cfa: $rsp 8 + .ra: .cfa -8 + ^
STACK CFI 9041 $rbp: .cfa -16 + ^ .cfa: $rsp 16 +
STACK CFI 9042 $rbx: .cfa -24 + ^ .cfa: $rsp 24 +
STACK CFI 904f .cfa: $rsp 32 +
STACK CFI 905e .cfa: $rsp 24 +
STACK CFI 9061 .cfa: $rsp 16 +
STACK CFI 9062 .cfa: $rsp 8 +
STACK CFI 9068 .cfa: $rsp 32 +
STACK CFI 9086 .cfa: $rsp 24 +
STACK CFI 908d .cfa: $rsp 16 +
STACK CFI 908e .cfa: $rsp 8 +
STACK CFI INIT 90a0 34b .cfa: $rsp 8 + .ra: .cfa -8 + ^
STACK CFI 90a2 $r15: .cfa -16 + ^ .cfa: $rsp 16 +
STACK CFI 90a4 $r14: .cfa -24 + ^ .cfa: $rsp 24 +
STACK CFI 90a9 $r13: .cfa -32 + ^ .cfa: $rsp 32 +
STACK CFI 90ab $r12: .cfa -40 + ^ .cfa: $rsp 40 +
STACK CFI 90af $rbp: .cfa -48 + ^ .cfa: $rsp 48 +
STACK CFI 90b0 $rbx: .cfa -56 + ^ .cfa: $rsp 56 +
STACK CFI 90bf .cfa: $rsp 4208 +
STACK CFI 9133 .cfa: $rsp 56 +
STACK CFI 9134 .cfa: $rsp 48 +
STACK CFI 9135 .cfa: $rsp 40 +
STACK CFI 9137 .cfa: $rsp 32 +
STACK CFI 9139 .cfa: $rsp 24 +
STACK CFI 913b .cfa: $rsp 16 +
STACK CFI 913d .cfa: $rsp 8 +
STACK CFI 9140 .cfa: $rsp 4208 +
STACK CFI INIT 9e70 288 .cfa: $rsp 8 + .ra: .cfa -8 + ^
STACK CFI 9ec2 $r15: .cfa -16 + ^ .cfa: $rsp 16 +
STACK CFI 9ec4 $r14: .cfa -24 + ^ .cfa: $rsp 24 +
STACK CFI 9ec9 $r13: .cfa -32 + ^ .cfa: $rsp 32 +
STACK CFI 9ecb $r12: .cfa -40 + ^ .cfa: $rsp 40 +
STACK CFI 9ed6 $rbp: .cfa -48 + ^ .cfa: $rsp 48 +
STACK CFI 9ed7 $rbx: .cfa -56 + ^ .cfa: $rsp 56 +
STACK CFI 9ee4 .cfa: $rsp 80 +
STACK CFI 9faa .cfa: $rsp 56 +
STACK CFI 9fab $rbx: $rbx .cfa: $rsp 48 +
STACK CFI 9fac $rbp: $rbp .cfa: $rsp 40 +
STACK CFI 9fae $r12: $r12 .cfa: $rsp 32 +
STACK CFI 9fb0 $r13: $r13 .cfa: $rsp 24 +
STACK CFI 9fb2 $r14: $r14 .cfa: $rsp 16 +
STACK CFI 9fb4 $r15: $r15 .cfa: $rsp 8 +
STACK CFI 9fb6 $r12: .cfa -40 + ^ $r13: .cfa -32 + ^ $r14: .cfa -24 + ^ $r15: .cfa -16 + ^ $rbp: .cfa -48 + ^ $rbx: .cfa -56 + ^ .cfa: $rsp 80 +
STACK CFI INIT 93f0 930 .cfa: $rsp 8 + .ra: .cfa -8 + ^
STACK CFI 93f2 $r15: .cfa -16 + ^ .cfa: $rsp 16 +
STACK CFI 93f4 $r14: .cfa -24 + ^ .cfa: $rsp 24 +
STACK CFI 93fd $r13: .cfa -32 + ^ .cfa: $rsp 32 +
STACK CFI 93ff $r12: .cfa -40 + ^ .cfa: $rsp 40 +
STACK CFI 9403 $rbp: .cfa -48 + ^ .cfa: $rsp 48 +
STACK CFI 9404 $rbx: .cfa -56 + ^ .cfa: $rsp 56 +
STACK CFI 940b .cfa: $rsp 448 +
STACK CFI 95b0 .cfa: $rsp 56 +
STACK CFI 95b1 .cfa: $rsp 48 +
STACK CFI 95b2 .cfa: $rsp 40 +
STACK CFI 95b4 .cfa: $rsp 32 +
STACK CFI 95b6 .cfa: $rsp 24 +
STACK CFI 95b8 .cfa: $rsp 16 +
STACK CFI 95ba .cfa: $rsp 8 +
STACK CFI 95bb .cfa: $rsp 448 +
STACK CFI INIT a100 3 .cfa: $rsp 8 + .ra: .cfa -8 + ^
STACK CFI INIT a110 187 .cfa: $rsp 8 + .ra: .cfa -8 + ^
STACK CFI a112 $r15: .cfa -16 + ^ .cfa: $rsp 16 +
STACK CFI a114 $r14: .cfa -24 + ^ .cfa: $rsp 24 +
STACK CFI a116 $r13: .cfa -32 + ^ .cfa: $rsp 32 +
STACK CFI a118 $r12: .cfa -40 + ^ .cfa: $rsp 40 +
STACK CFI a119 $rbp: .cfa -48 + ^ .cfa: $rsp 48 +
STACK CFI a11a $rbx: .cfa -56 + ^ .cfa: $rsp 56 +
STACK CFI a11e .cfa: $rsp 112 +
STACK CFI a205 .cfa: $rsp 56 +
STACK CFI a206 .cfa: $rsp 48 +
STACK CFI a207 .cfa: $rsp 40 +
STACK CFI a209 .cfa: $rsp 32 +
STACK CFI a20b .cfa: $rsp 24 +
STACK CFI a20d .cfa: $rsp 16 +
STACK CFI a20f .cfa: $rsp 8 +
STACK CFI a210 .cfa: $rsp 112 +
STACK CFI INIT b1d0 13 .cfa: $rsp 8 + .ra: .cfa -8 + ^
STACK CFI INIT b1f0 20 .cfa: $rsp 8 + .ra: .cfa -8 + ^
STACK CFI b1f8 $rbx: .cfa -16 + ^ .cfa: $rsp 16 +
STACK CFI b20b .cfa: $rsp 8 +
STACK CFI INIT a2a0 bb .cfa: $rsp 8 + .ra: .cfa -8 + ^
STACK CFI a2b8 $r15: .cfa -16 + ^ .cfa: $rsp 16 +
STACK CFI a2ba $r14: .cfa -24 + ^ .cfa: $rsp 24 +
STACK CFI a2bf $r13: .cfa -32 + ^ .cfa: $rsp 32 +
STACK CFI a2c1 $r12: .cfa -40 + ^ .cfa: $rsp 40 +
STACK CFI a2c5 $rbp: .cfa -48 + ^ .cfa: $rsp 48 +
STACK CFI a2c6 $rbx: .cfa -56 + ^ .cfa: $rsp 56 +
STACK CFI a2d0 .cfa: $rsp 64 +
STACK CFI a2e3 .cfa: $rsp 56 +
STACK CFI a2e4 $rbx: $rbx .cfa: $rsp 48 +
STACK CFI a2e5 $rbp: $rbp .cfa: $rsp 40 +
STACK CFI a2e7 $r12: $r12 .cfa: $rsp 32 +
STACK CFI a2e9 $r13: $r13 .cfa: $rsp 24 +
STACK CFI a2eb $r14: $r14 .cfa: $rsp 16 +
STACK CFI a2ed $r15: $r15 .cfa: $rsp 8 +
STACK CFI a2f8 $r12: .cfa -40 + ^ $r13: .cfa -32 + ^ $r14: .cfa -24 + ^ $r15: .cfa -16 + ^ $rbp: .cfa -48 + ^ $rbx: .cfa -56 + ^ .cfa: $rsp 64 +
STACK CFI INIT a360 bc .cfa: $rsp 8 + .ra: .cfa -8 + ^
STACK CFI a371 $r15: .cfa -16 + ^ .cfa: $rsp 16 +
STACK CFI a373 $r14: .cfa -24 + ^ .cfa: $rsp 24 +
STACK CFI a37b $r13: .cfa -32 + ^ .cfa: $rsp 32 +
STACK CFI a37d $r12: .cfa -40 + ^ .cfa: $rsp 40 +
STACK CFI a381 $rbp: .cfa -48 + ^ .cfa: $rsp 48 +
STACK CFI a382 $rbx: .cfa -56 + ^ .cfa: $rsp 56 +
STACK CFI a386 .cfa: $rsp 64 +
STACK CFI a40d .cfa: $rsp 56 +
STACK CFI a411 $rbx: $rbx .cfa: $rsp 48 +
STACK CFI a412 $rbp: $rbp .cfa: $rsp 40 +
STACK CFI a414 $r12: $r12 .cfa: $rsp 32 +
STACK CFI a416 $r13: $r13 .cfa: $rsp 24 +
STACK CFI a418 $r14: $r14 .cfa: $rsp 16 +
STACK CFI a41a $r15: $r15 .cfa: $rsp 8 +
STACK CFI INIT a420 5fd .cfa: $rsp 8 + .ra: .cfa -8 + ^
STACK CFI a422 $r15: .cfa -16 + ^ .cfa: $rsp 16 +
STACK CFI a424 $r14: .cfa -24 + ^ .cfa: $rsp 24 +
STACK CFI a42d $r13: .cfa -32 + ^ .cfa: $rsp 32 +
STACK CFI a42f $r12: .cfa -40 + ^ .cfa: $rsp 40 +
STACK CFI a433 $rbp: .cfa -48 + ^ .cfa: $rsp 48 +
STACK CFI a434 $rbx: .cfa -56 + ^ .cfa: $rsp 56 +
STACK CFI a43b .cfa: $rsp 416 +
STACK CFI a58f .cfa: $rsp 56 +
STACK CFI a590 .cfa: $rsp 48 +
STACK CFI a591 .cfa: $rsp 40 +
STACK CFI a593 .cfa: $rsp 32 +
STACK CFI a595 .cfa: $rsp 24 +
STACK CFI a597 .cfa: $rsp 16 +
STACK CFI a599 .cfa: $rsp 8 +
STACK CFI a5a0 .cfa: $rsp 416 +
STACK CFI INIT aa20 51d .cfa: $rsp 8 + .ra: .cfa -8 + ^
STACK CFI aa22 $r15: .cfa -16 + ^ .cfa: $rsp 16 +
STACK CFI aa24 $r14: .cfa -24 + ^ .cfa: $rsp 24 +
STACK CFI aa26 $r13: .cfa -32 + ^ .cfa: $rsp 32 +
STACK CFI aa28 $r12: .cfa -40 + ^ .cfa: $rsp 40 +
STACK CFI aa2c $rbp: .cfa -48 + ^ .cfa: $rsp 48 +
STACK CFI aa2d $rbx: .cfa -56 + ^ .cfa: $rsp 56 +
STACK CFI aa34 .cfa: $rsp 384 +
STACK CFI ac34 .cfa: $rsp 56 +
STACK CFI ac35 .cfa: $rsp 48 +
STACK CFI ac36 .cfa: $rsp 40 +
STACK CFI ac38 .cfa: $rsp 32 +
STACK CFI ac3a .cfa: $rsp 24 +
STACK CFI ac3c .cfa: $rsp 16 +
STACK CFI ac3e .cfa: $rsp 8 +
STACK CFI ac3f .cfa: $rsp 384 +
STACK CFI INIT af40 27 .cfa: $rsp 8 + .ra: .cfa -8 + ^
STACK CFI af41 $rbx: .cfa -16 + ^ .cfa: $rsp 16 +
STACK CFI af66 .cfa: $rsp 8 +
STACK CFI INIT b210 288 .cfa: $rsp 8 + .ra: .cfa -8 + ^
STACK CFI b262 $r15: .cfa -16 + ^ .cfa: $rsp 16 +
STACK CFI b264 $r14: .cfa -24 + ^ .cfa: $rsp 24 +
STACK CFI b269 $r13: .cfa -32 + ^ .cfa: $rsp 32 +
STACK CFI b26b $r12: .cfa -40 + ^ .cfa: $rsp 40 +
STACK CFI b276 $rbp: .cfa -48 + ^ .cfa: $rsp 48 +
STACK CFI b277 $rbx: .cfa -56 + ^ .cfa: $rsp 56 +
STACK CFI b284 .cfa: $rsp 80 +
STACK CFI b349 .cfa: $rsp 56 +
STACK CFI b34a $rbx: $rbx .cfa: $rsp 48 +
STACK CFI b34b $rbp: $rbp .cfa: $rsp 40 +
STACK CFI b34d $r12: $r12 .cfa: $rsp 32 +
STACK CFI b34f $r13: $r13 .cfa: $rsp 24 +
STACK CFI b351 $r14: $r14 .cfa: $rsp 16 +
STACK CFI b353 $r15: $r15 .cfa: $rsp 8 +
STACK CFI b355 $r12: .cfa -40 + ^ $r13: .cfa -32 + ^ $r14: .cfa -24 + ^ $r15: .cfa -16 + ^ $rbp: .cfa -48 + ^ $rbx: .cfa -56 + ^ .cfa: $rsp 80 +
STACK CFI INIT af70 251 .cfa: $rsp 8 + .ra: .cfa -8 + ^
STACK CFI af72 $r15: .cfa -16 + ^ .cfa: $rsp 16 +
STACK CFI af74 $r14: .cfa -24 + ^ .cfa: $rsp 24 +
STACK CFI af76 $r13: .cfa -32 + ^ .cfa: $rsp 32 +
STACK CFI af78 $r12: .cfa -40 + ^ .cfa: $rsp 40 +
STACK CFI af79 $rbp: .cfa -48 + ^ .cfa: $rsp 48 +
STACK CFI af7a $rbx: .cfa -56 + ^ .cfa: $rsp 56 +
STACK CFI af81 .cfa: $rsp 304 +
STACK CFI b0f5 .cfa: $rsp 56 +
STACK CFI b0f6 .cfa: $rsp 48 +
STACK CFI b0f7 .cfa: $rsp 40 +
STACK CFI b0f9 .cfa: $rsp 32 +
STACK CFI b0fb .cfa: $rsp 24 +
STACK CFI b0fd .cfa: $rsp 16 +
STACK CFI b0ff .cfa: $rsp 8 +
STACK CFI b100 .cfa: $rsp 304 +
STACK CFI INIT 1be0 4a .cfa: $rsp 8 + .ra: .cfa -8 + ^
STACK CFI 1be2 $r13: .cfa -16 + ^ .cfa: $rsp 16 +
STACK CFI 1be4 $r12: .cfa -24 + ^ .cfa: $rsp 24 +
STACK CFI 1be8 $rbp: .cfa -32 + ^ .cfa: $rsp 32 +
STACK CFI 1be9 $rbx: .cfa -40 + ^ .cfa: $rsp 40 +
STACK CFI 1bed .cfa: $rsp 48 +
STACK CFI 1c23 .cfa: $rsp 40 +
STACK CFI 1c24 .cfa: $rsp 32 +
STACK CFI 1c25 .cfa: $rsp 24 +
STACK CFI 1c27 .cfa: $rsp 16 +
STACK CFI 1c29 .cfa: $rsp 8 +
STACK CFI INIT 1c2a 20 .cfa: $rsp 8 + .ra: .cfa -8 + ^
STACK CFI 1c32 .cfa: $rsp 16 +
STACK CFI INIT 1c4a 20 .cfa: $rsp 8 + .ra: .cfa -8 + ^
STACK CFI 1c52 .cfa: $rsp 16 +
STACK CFI INIT 1c6a 1d .cfa: $rsp 8 + .ra: .cfa -8 + ^
STACK CFI 1c70 .cfa: $rsp 16 +
STACK CFI 1c75 .cfa: $rsp 8 +
STACK CFI INIT 1c88 20 .cfa: $rsp 8 + .ra: .cfa -8 + ^
STACK CFI 1c90 .cfa: $rsp 16 +
STACK CFI INIT 1ca8 20 .cfa: $rsp 8 + .ra: .cfa -8 + ^
STACK CFI 1cb0 .cfa: $rsp 16 +
STACK CFI INIT 1cc8 2c .cfa: $rsp 8 + .ra: .cfa -8 + ^
STACK CFI 1cc9 $rbp: .cfa -16 + ^ .cfa: $rsp 16 +
STACK CFI 1cca $rbx: .cfa -24 + ^ .cfa: $rsp 24 +
STACK CFI 1ccf .cfa: $rsp 32 +
STACK CFI 1cea .cfa: $rsp 24 +
STACK CFI 1cee .cfa: $rsp 16 +
STACK CFI 1cef .cfa: $rsp 8 +
STACK CFI INIT 1cf4 1ec .cfa: $rsp 8 + .ra: .cfa -8 + ^
STACK CFI 1cf6 $r15: .cfa -16 + ^ .cfa: $rsp 16 +
STACK CFI 1cf8 $r14: .cfa -24 + ^ .cfa: $rsp 24 +
STACK CFI 1cfa $r13: .cfa -32 + ^ .cfa: $rsp 32 +
STACK CFI 1cfc $r12: .cfa -40 + ^ .cfa: $rsp 40 +
STACK CFI 1d00 $rbp: .cfa -48 + ^ .cfa: $rsp 48 +
STACK CFI 1d01 $rbx: .cfa -56 + ^ .cfa: $rsp 56 +
STACK CFI 1d0a .cfa: $rsp 112 +
STACK CFI 1ed5 .cfa: $rsp 56 +
STACK CFI 1ed6 .cfa: $rsp 48 +
STACK CFI 1ed7 .cfa: $rsp 40 +
STACK CFI 1ed9 .cfa: $rsp 32 +
STACK CFI 1edb .cfa: $rsp 24 +
STACK CFI 1edd .cfa: $rsp 16 +
STACK CFI 1edf .cfa: $rsp 8 +
STACK CFI INIT 1ee0 67 .cfa: $rsp 8 + .ra: .cfa -8 + ^
STACK CFI 1ee2 $r12: .cfa -16 + ^ .cfa: $rsp 16 +
STACK CFI 1ee3 $rbp: .cfa -24 + ^ .cfa: $rsp 24 +
STACK CFI 1ee7 $rbx: .cfa -32 + ^ .cfa: $rsp 32 +
STACK CFI 1ef1 .cfa: $rsp 304 +
STACK CFI 1f42 .cfa: $rsp 32 +
STACK CFI 1f43 .cfa: $rsp 24 +
STACK CFI 1f44 .cfa: $rsp 16 +
STACK CFI 1f46 .cfa: $rsp 8 +
STACK CFI INIT f390 259 .cfa: $rsp 8 + .ra: .cfa -8 + ^
STACK CFI f392 $r15: .cfa -16 + ^ .cfa: $rsp 16 +
STACK CFI f394 $r14: .cfa -24 + ^ .cfa: $rsp 24 +
STACK CFI f39a $r13: .cfa -32 + ^ .cfa: $rsp 32 +
STACK CFI f39c $r12: .cfa -40 + ^ .cfa: $rsp 40 +
STACK CFI f3a0 $rbp: .cfa -48 + ^ .cfa: $rsp 48 +
STACK CFI f3a1 $rbx: .cfa -56 + ^ .cfa: $rsp 56 +
STACK CFI f3a8 .cfa: $rsp 64 +
STACK CFI f40d .cfa: $rsp 56 +
STACK CFI f410 .cfa: $rsp 48 +
STACK CFI f411 .cfa: $rsp 40 +
STACK CFI f413 .cfa: $rsp 32 +
STACK CFI f415 .cfa: $rsp 24 +
STACK CFI f417 .cfa: $rsp 16 +
STACK CFI f419 .cfa: $rsp 8 +
STACK CFI f420 .cfa: $rsp 64 +
STACK CFI f4f3 .cfa: $rsp 56 +
STACK CFI f4f4 .cfa: $rsp 48 +
STACK CFI f4fa .cfa: $rsp 40 +
STACK CFI f4fc .cfa: $rsp 32 +
STACK CFI f4fe .cfa: $rsp 24 +
STACK CFI f500 .cfa: $rsp 16 +
STACK CFI f502 .cfa: $rsp 8 +
STACK CFI f508 .cfa: $rsp 64 +
STACK CFI f5bd .cfa: $rsp 56 +
STACK CFI f5c0 .cfa: $rsp 48 +
STACK CFI f5c1 .cfa: $rsp 40 +
STACK CFI f5c3 .cfa: $rsp 32 +
STACK CFI f5c5 .cfa: $rsp 24 +
STACK CFI f5c7 .cfa: $rsp 16 +
STACK CFI f5c9 .cfa: $rsp 8 +
STACK CFI f5ca .cfa: $rsp 64 +
STACK CFI INIT f5f0 257 .cfa: $rsp 8 + .ra: .cfa -8 + ^
STACK CFI f612 $r15: .cfa -16 + ^ .cfa: $rsp 16 +
STACK CFI f614 $r14: .cfa -24 + ^ .cfa: $rsp 24 +
STACK CFI f616 $r13: .cfa -32 + ^ .cfa: $rsp 32 +
STACK CFI f618 $r12: .cfa -40 + ^ .cfa: $rsp 40 +
STACK CFI f619 $rbp: .cfa -48 + ^ .cfa: $rsp 48 +
STACK CFI f61a $rbx: .cfa -56 + ^ .cfa: $rsp 56 +
STACK CFI f621 .cfa: $rsp 80 +
STACK CFI f651 .cfa: $rsp 56 +
STACK CFI f652 $rbx: $rbx .cfa: $rsp 48 +
STACK CFI f653 $rbp: $rbp .cfa: $rsp 40 +
STACK CFI f655 $r12: $r12 .cfa: $rsp 32 +
STACK CFI f657 $r13: $r13 .cfa: $rsp 24 +
STACK CFI f659 $r14: $r14 .cfa: $rsp 16 +
STACK CFI f65b $r15: $r15 .cfa: $rsp 8 +
STACK CFI f660 $r12: .cfa -40 + ^ $r13: .cfa -32 + ^ $r14: .cfa -24 + ^ $r15: .cfa -16 + ^ $rbp: .cfa -48 + ^ $rbx: .cfa -56 + ^ .cfa: $rsp 80 +
STACK CFI INIT f850 250 .cfa: $rsp 8 + .ra: .cfa -8 + ^
STACK CFI f852 $r15: .cfa -16 + ^ .cfa: $rsp 16 +
STACK CFI f854 $r14: .cfa -24 + ^ .cfa: $rsp 24 +
STACK CFI f856 $r13: .cfa -32 + ^ .cfa: $rsp 32 +
STACK CFI f858 $r12: .cfa -40 + ^ .cfa: $rsp 40 +
STACK CFI f85c $rbp: .cfa -48 + ^ .cfa: $rsp 48 +
STACK CFI f85d $rbx: .cfa -56 + ^ .cfa: $rsp 56 +
STACK CFI f864 .cfa: $rsp 80 +
STACK CFI f910 .cfa: $rsp 56 +
STACK CFI f911 .cfa: $rsp 48 +
STACK CFI f912 .cfa: $rsp 40 +
STACK CFI f914 .cfa: $rsp 32 +
STACK CFI f916 .cfa: $rsp 24 +
STACK CFI f918 .cfa: $rsp 16 +
STACK CFI f91a .cfa: $rsp 8 +
STACK CFI f920 .cfa: $rsp 80 +
STACK CFI INIT b4a0 e0e .cfa: $rsp 8 + .ra: .cfa -8 + ^
STACK CFI b4a2 $r15: .cfa -16 + ^ .cfa: $rsp 16 +
STACK CFI b4a4 $r14: .cfa -24 + ^ .cfa: $rsp 24 +
STACK CFI b4aa $r13: .cfa -32 + ^ .cfa: $rsp 32 +
STACK CFI b4ac $r12: .cfa -40 + ^ .cfa: $rsp 40 +
STACK CFI b4ad $rbp: .cfa -48 + ^ .cfa: $rsp 48 +
STACK CFI b4ae $rbx: .cfa -56 + ^ .cfa: $rsp 56 +
STACK CFI b4b5 .cfa: $rsp 2448 +
STACK CFI b761 .cfa: $rsp 56 +
STACK CFI b762 .cfa: $rsp 48 +
STACK CFI b763 .cfa: $rsp 40 +
STACK CFI b765 .cfa: $rsp 32 +
STACK CFI b767 .cfa: $rsp 24 +
STACK CFI b769 .cfa: $rsp 16 +
STACK CFI b76b .cfa: $rsp 8 +
STACK CFI b770 .cfa: $rsp 2448 +
STACK CFI INIT c2b0 21d9 .cfa: $rsp 8 + .ra: .cfa -8 + ^
STACK CFI c2b1 $rbp: .cfa -16 + ^ .cfa: $rsp 16 +
STACK CFI c2b9 .cfa: $rbp 16 +
STACK CFI c2c1 $r12: .cfa -48 + ^ $r13: .cfa -40 + ^ $r14: .cfa -32 + ^ $r15: .cfa -24 + ^
STACK CFI c2c6 $rbx: .cfa -56 + ^
STACK CFI c40f .cfa: $rsp 8 +
STACK CFI c410 .cfa: $rbp 16 +
STACK CFI INIT e490 343 .cfa: $rsp 8 + .ra: .cfa -8 + ^
STACK CFI e492 $r15: .cfa -16 + ^ .cfa: $rsp 16 +
STACK CFI e494 $r14: .cfa -24 + ^ .cfa: $rsp 24 +
STACK CFI e499 $r13: .cfa -32 + ^ .cfa: $rsp 32 +
STACK CFI e49b $r12: .cfa -40 + ^ .cfa: $rsp 40 +
STACK CFI e49f $rbp: .cfa -48 + ^ .cfa: $rsp 48 +
STACK CFI e4a0 $rbx: .cfa -56 + ^ .cfa: $rsp 56 +
STACK CFI e4a7 .cfa: $rsp 240 +
STACK CFI e635 .cfa: $rsp 56 +
STACK CFI e636 .cfa: $rsp 48 +
STACK CFI e637 .cfa: $rsp 40 +
STACK CFI e639 .cfa: $rsp 32 +
STACK CFI e63b .cfa: $rsp 24 +
STACK CFI e63d .cfa: $rsp 16 +
STACK CFI e63f .cfa: $rsp 8 +
STACK CFI e640 .cfa: $rsp 240 +
STACK CFI INIT e7e0 496 .cfa: $rsp 8 + .ra: .cfa -8 + ^
STACK CFI e7e2 $r15: .cfa -16 + ^ .cfa: $rsp 16 +
STACK CFI e7e4 $r14: .cfa -24 + ^ .cfa: $rsp 24 +
STACK CFI e7e9 $r13: .cfa -32 + ^ .cfa: $rsp 32 +
STACK CFI e7eb $r12: .cfa -40 + ^ .cfa: $rsp 40 +
STACK CFI e7ec $rbp: .cfa -48 + ^ .cfa: $rsp 48 +
STACK CFI e7ed $rbx: .cfa -56 + ^ .cfa: $rsp 56 +
STACK CFI e7f6 .cfa: $rsp 544 +
STACK CFI ea5f .cfa: $rsp 56 +
STACK CFI ea60 .cfa: $rsp 48 +
STACK CFI ea61 .cfa: $rsp 40 +
STACK CFI ea63 .cfa: $rsp 32 +
STACK CFI ea65 .cfa: $rsp 24 +
STACK CFI ea67 .cfa: $rsp 16 +
STACK CFI ea69 .cfa: $rsp 8 +
STACK CFI ea6a .cfa: $rsp 544 +
STACK CFI INIT ec80 422 .cfa: $rsp 8 + .ra: .cfa -8 + ^
STACK CFI ec82 $r15: .cfa -16 + ^ .cfa: $rsp 16 +
STACK CFI ec84 $r14: .cfa -24 + ^ .cfa: $rsp 24 +
STACK CFI ec89 $r13: .cfa -32 + ^ .cfa: $rsp 32 +
STACK CFI ec8b $r12: .cfa -40 + ^ .cfa: $rsp 40 +
STACK CFI ec8f $rbp: .cfa -48 + ^ .cfa: $rsp 48 +
STACK CFI ec90 $rbx: .cfa -56 + ^ .cfa: $rsp 56 +
STACK CFI ec9e .cfa: $rsp 480 +
STACK CFI ed30 .cfa: $rsp 56 +
STACK CFI ed31 .cfa: $rsp 48 +
STACK CFI ed32 .cfa: $rsp 40 +
STACK CFI ed34 .cfa: $rsp 32 +
STACK CFI ed36 .cfa: $rsp 24 +
STACK CFI ed38 .cfa: $rsp 16 +
STACK CFI ed3a .cfa: $rsp 8 +
STACK CFI ed40 .cfa: $rsp 480 +
STACK CFI INIT f0b0 109 .cfa: $rsp 8 + .ra: .cfa -8 + ^
STACK CFI f0b1 $rbp: .cfa -16 + ^ .cfa: $rsp 16 +
STACK CFI f0c8 .cfa: $rbp 16 +
STACK CFI f0cf $r12: .cfa -40 + ^ $r13: .cfa -32 + ^ $r14: .cfa -24 + ^ $rbx: .cfa -48 + ^
STACK CFI f176 .cfa: $rsp 8 +
STACK CFI f177 .cfa: $rbp 16 +
STACK CFI INIT f1c0 109 .cfa: $rsp 8 + .ra: .cfa -8 + ^
STACK CFI f1c1 $rbp: .cfa -16 + ^ .cfa: $rsp 16 +
STACK CFI f1d5 .cfa: $rbp 16 +
STACK CFI f1dc $r12: .cfa -40 + ^ $r13: .cfa -32 + ^ $r14: .cfa -24 + ^ $rbx: .cfa -48 + ^
STACK CFI f286 .cfa: $rsp 8 +
STACK CFI f287 .cfa: $rbp 16 +
STACK CFI INIT f2d0 26 .cfa: $rsp 8 + .ra: .cfa -8 + ^
STACK CFI f2d4 .cfa: $rsp 16 +
STACK CFI f2d6 .cfa: $rsp 24 +
STACK CFI f2d8 .cfa: $rsp 32 +
STACK CFI f2f5 .cfa: $rsp 8 +
STACK CFI INIT f300 25 .cfa: $rsp 8 + .ra: .cfa -8 + ^
STACK CFI f304 .cfa: $rsp 16 +
STACK CFI f306 .cfa: $rsp 24 +
STACK CFI f308 .cfa: $rsp 32 +
STACK CFI f324 .cfa: $rsp 8 +
STACK CFI INIT f330 24 .cfa: $rsp 8 + .ra: .cfa -8 + ^
STACK CFI f334 .cfa: $rsp 16 +
STACK CFI f338 .cfa: $rsp 24 +
STACK CFI f33a .cfa: $rsp 32 +
STACK CFI f353 .cfa: $rsp 8 +
STACK CFI INIT f360 23 .cfa: $rsp 8 + .ra: .cfa -8 + ^
STACK CFI f364 .cfa: $rsp 16 +
STACK CFI f368 .cfa: $rsp 24 +
STACK CFI f36a .cfa: $rsp 32 +
STACK CFI f382 .cfa: $rsp 8 +
STACK CFI INIT faa0 23 .cfa: $rsp 8 + .ra: .cfa -8 + ^
STACK CFI fab9 .cfa: $rsp 16 +
STACK CFI INIT fad0 1a .cfa: $rsp 8 + .ra: .cfa -8 + ^
STACK CFI INIT faf0 78 .cfa: $rsp 8 + .ra: .cfa -8 + ^
STACK CFI faf2 $r12: .cfa -16 + ^ .cfa: $rsp 16 +
STACK CFI faf3 $rbp: .cfa -24 + ^ .cfa: $rsp 24 +
STACK CFI faf7 $rbx: .cfa -32 + ^ .cfa: $rsp 32 +
STACK CFI fb2f .cfa: $rsp 24 +
STACK CFI fb30 .cfa: $rsp 16 +
STACK CFI fb32 .cfa: $rsp 8 +
STACK CFI fb38 .cfa: $rsp 32 +
STACK CFI fb45 .cfa: $rsp 24 +
STACK CFI fb46 .cfa: $rsp 16 +
STACK CFI fb48 .cfa: $rsp 8 +
STACK CFI fb49 .cfa: $rsp 32 +
STACK CFI INIT fb70 2c .cfa: $rsp 8 + .ra: .cfa -8 + ^
STACK CFI fb84 .cfa: $rsp 16 +
STACK CFI INIT fba0 5d .cfa: $rsp 8 + .ra: .cfa -8 + ^
STACK CFI fba2 $r12: .cfa -16 + ^ .cfa: $rsp 16 +
STACK CFI fba6 $rbp: .cfa -24 + ^ .cfa: $rsp 24 +
STACK CFI fba7 $rbx: .cfa -32 + ^ .cfa: $rsp 32 +
STACK CFI fbea .cfa: $rsp 24 +
STACK CFI fbeb .cfa: $rsp 16 +
STACK CFI fbed .cfa: $rsp 8 +
STACK CFI fbf0 .cfa: $rsp 32 +
STACK CFI INIT fc00 15 .cfa: $rsp 8 + .ra: .cfa -8 + ^
STACK CFI INIT fc20 b6 .cfa: $rsp 8 + .ra: .cfa -8 + ^
STACK CFI fc22 $r13: .cfa -16 + ^ .cfa: $rsp 16 +
STACK CFI fc24 $r12: .cfa -24 + ^ .cfa: $rsp 24 +
STACK CFI fc25 $rbp: .cfa -32 + ^ .cfa: $rsp 32 +
STACK CFI fc26 $rbx: .cfa -40 + ^ .cfa: $rsp 40 +
STACK CFI fc2a .cfa: $rsp 48 +
STACK CFI fc5e .cfa: $rsp 40 +
STACK CFI fc5f .cfa: $rsp 32 +
STACK CFI fc60 .cfa: $rsp 24 +
STACK CFI fc62 .cfa: $rsp 16 +
STACK CFI fc64 .cfa: $rsp 8 +
STACK CFI fc68 .cfa: $rsp 48 +
STACK CFI INIT fce0 ff .cfa: $rsp 8 + .ra: .cfa -8 + ^
STACK CFI fce1 $rbp: .cfa -16 + ^ .cfa: $rsp 16 +
STACK CFI fce2 $rbx: .cfa -24 + ^ .cfa: $rsp 24 +
STACK CFI fce6 .cfa: $rsp 32 +
STACK CFI fd69 .cfa: $rsp 24 +
STACK CFI fd6a .cfa: $rsp 16 +
STACK CFI fd6b .cfa: $rsp 8 +
STACK CFI fd70 .cfa: $rsp 32 +
STACK CFI fd7d .cfa: $rsp 24 +
STACK CFI fd80 .cfa: $rsp 16 +
STACK CFI fd81 .cfa: $rsp 8 +
STACK CFI fd82 .cfa: $rsp 32 +
STACK CFI INIT fde0 f0 .cfa: $rsp 8 + .ra: .cfa -8 + ^
STACK CFI fde2 $r15: .cfa -16 + ^ .cfa: $rsp 16 +
STACK CFI fde4 $r14: .cfa -24 + ^ .cfa: $rsp 24 +
STACK CFI fde6 $r13: .cfa -32 + ^ .cfa: $rsp 32 +
STACK CFI fde8 $r12: .cfa -40 + ^ .cfa: $rsp 40 +
STACK CFI fde9 $rbp: .cfa -48 + ^ .cfa: $rsp 48 +
STACK CFI fdea $rbx: .cfa -56 + ^ .cfa: $rsp 56 +
STACK CFI fdee .cfa: $rsp 80 +
STACK CFI fe9a .cfa: $rsp 56 +
STACK CFI fe9b .cfa: $rsp 48 +
STACK CFI fe9c .cfa: $rsp 40 +
STACK CFI fe9e .cfa: $rsp 32 +
STACK CFI fea0 .cfa: $rsp 24 +
STACK CFI fea2 .cfa: $rsp 16 +
STACK CFI fea4 .cfa: $rsp 8 +
STACK CFI fea5 .cfa: $rsp 80 +
STACK CFI INIT fed0 ef .cfa: $rsp 8 + .ra: .cfa -8 + ^
STACK CFI fed2 $r15: .cfa -16 + ^ .cfa: $rsp 16 +
STACK CFI fed4 $r14: .cfa -24 + ^ .cfa: $rsp 24 +
STACK CFI fed6 $r13: .cfa -32 + ^ .cfa: $rsp 32 +
STACK CFI fed8 $r12: .cfa -40 + ^ .cfa: $rsp 40 +
STACK CFI fed9 $rbp: .cfa -48 + ^ .cfa: $rsp 48 +
STACK CFI feda $rbx: .cfa -56 + ^ .cfa: $rsp 56 +
STACK CFI fede .cfa: $rsp 80 +
STACK CFI ff89 .cfa: $rsp 56 +
STACK CFI ff8a .cfa: $rsp 48 +
STACK CFI ff8b .cfa: $rsp 40 +
STACK CFI ff8d .cfa: $rsp 32 +
STACK CFI ff8f .cfa: $rsp 24 +
STACK CFI ff91 .cfa: $rsp 16 +
STACK CFI ff93 .cfa: $rsp 8 +
STACK CFI ff94 .cfa: $rsp 80 +
STACK CFI INIT ffc0 41 .cfa: $rsp 8 + .ra: .cfa -8 + ^
STACK CFI ffc1 $rbx: .cfa -16 + ^ .cfa: $rsp 16 +
STACK CFI ffe1 .cfa: $rsp 8 +
STACK CFI ffe2 .cfa: $rsp 16 +
STACK CFI INIT 10010 89 .cfa: $rsp 8 + .ra: .cfa -8 + ^
STACK CFI 10014 .cfa: $rsp 16 +
STACK CFI 10037 .cfa: $rsp 8 +
STACK CFI 1003c .cfa: $rsp 16 +
STACK CFI INIT 100a0 df .cfa: $rsp 8 + .ra: .cfa -8 + ^
STACK CFI 100a2 $r12: .cfa -16 + ^ .cfa: $rsp 16 +
STACK CFI 100a3 $rbp: .cfa -24 + ^ .cfa: $rsp 24 +
STACK CFI 100a4 $rbx: .cfa -32 + ^ .cfa: $rsp 32 +
STACK CFI 100a8 .cfa: $rsp 64 +
STACK CFI 10105 .cfa: $rsp 32 +
STACK CFI 10106 .cfa: $rsp 24 +
STACK CFI 10107 .cfa: $rsp 16 +
STACK CFI 10109 .cfa: $rsp 8 +
STACK CFI 10110 .cfa: $rsp 64 +
STACK CFI INIT 101a0 23a .cfa: $rsp 8 + .ra: .cfa -8 + ^
STACK CFI 101a2 $r15: .cfa -16 + ^ .cfa: $rsp 16 +
STACK CFI 101a4 $r14: .cfa -24 + ^ .cfa: $rsp 24 +
STACK CFI 101a6 $r13: .cfa -32 + ^ .cfa: $rsp 32 +
STACK CFI 101a8 $r12: .cfa -40 + ^ .cfa: $rsp 40 +
STACK CFI 101a9 $rbp: .cfa -48 + ^ .cfa: $rsp 48 +
STACK CFI 101aa $rbx: .cfa -56 + ^ .cfa: $rsp 56 +
STACK CFI 101ae .cfa: $rsp 128 +
STACK CFI 102a5 .cfa: $rsp 56 +
STACK CFI 102a6 .cfa: $rsp 48 +
STACK CFI 102a7 .cfa: $rsp 40 +
STACK CFI 102a9 .cfa: $rsp 32 +
STACK CFI 102ab .cfa: $rsp 24 +
STACK CFI 102ad .cfa: $rsp 16 +
STACK CFI 102af .cfa: $rsp 8 +
STACK CFI 102b0 .cfa: $rsp 128 +
STACK CFI INIT 10180 5 .cfa: $rsp 8 + .ra: .cfa -8 + ^
STACK CFI INIT 103e0 23a .cfa: $rsp 8 + .ra: .cfa -8 + ^
STACK CFI 103e2 $r15: .cfa -16 + ^ .cfa: $rsp 16 +
STACK CFI 103e4 $r14: .cfa -24 + ^ .cfa: $rsp 24 +
STACK CFI 103e6 $r13: .cfa -32 + ^ .cfa: $rsp 32 +
STACK CFI 103e8 $r12: .cfa -40 + ^ .cfa: $rsp 40 +
STACK CFI 103e9 $rbp: .cfa -48 + ^ .cfa: $rsp 48 +
STACK CFI 103ea $rbx: .cfa -56 + ^ .cfa: $rsp 56 +
STACK CFI 103ee .cfa: $rsp 128 +
STACK CFI 104dc .cfa: $rsp 56 +
STACK CFI 104dd .cfa: $rsp 48 +
STACK CFI 104de .cfa: $rsp 40 +
STACK CFI 104e0 .cfa: $rsp 32 +
STACK CFI 104e2 .cfa: $rsp 24 +
STACK CFI 104e4 .cfa: $rsp 16 +
STACK CFI 104e6 .cfa: $rsp 8 +
STACK CFI 104f0 .cfa: $rsp 128 +
STACK CFI INIT 10190 5 .cfa: $rsp 8 + .ra: .cfa -8 + ^
STACK CFI INIT 10620 c2 .cfa: $rsp 8 + .ra: .cfa -8 + ^
STACK CFI 10622 $r12: .cfa -16 + ^ .cfa: $rsp 16 +
STACK CFI 10623 $rbp: .cfa -24 + ^ .cfa: $rsp 24 +
STACK CFI 10627 $rbx: .cfa -32 + ^ .cfa: $rsp 32 +
STACK CFI 1062e .cfa: $rsp 48 +
STACK CFI 1069a .cfa: $rsp 32 +
STACK CFI 1069b .cfa: $rsp 24 +
STACK CFI 1069c .cfa: $rsp 16 +
STACK CFI 1069e .cfa: $rsp 8 +
STACK CFI 106a0 .cfa: $rsp 48 +
STACK CFI INIT 106f0 b1 .cfa: $rsp 8 + .ra: .cfa -8 + ^
STACK CFI 106f2 $r15: .cfa -16 + ^ .cfa: $rsp 16 +
STACK CFI 106f4 $r14: .cfa -24 + ^ .cfa: $rsp 24 +
STACK CFI 106f8 $r13: .cfa -32 + ^ .cfa: $rsp 32 +
STACK CFI 106fa $r12: .cfa -40 + ^ .cfa: $rsp 40 +
STACK CFI 106fe $rbp: .cfa -48 + ^ .cfa: $rsp 48 +
STACK CFI 106ff $rbx: .cfa -56 + ^ .cfa: $rsp 56 +
STACK CFI 10712 .cfa: $rsp 96 +
STACK CFI 10789 .cfa: $rsp 56 +
STACK CFI 1078a .cfa: $rsp 48 +
STACK CFI 1078b .cfa: $rsp 40 +
STACK CFI 1078d .cfa: $rsp 32 +
STACK CFI 1078f .cfa: $rsp 24 +
STACK CFI 10791 .cfa: $rsp 16 +
STACK CFI 10793 .cfa: $rsp 8 +
STACK CFI 10798 .cfa: $rsp 96 +
STACK CFI INIT 107b0 7b .cfa: $rsp 8 + .ra: .cfa -8 + ^
STACK CFI 107b1 $rbx: .cfa -16 + ^ .cfa: $rsp 16 +
STACK CFI 107bd .cfa: $rsp 64 +
STACK CFI 10824 .cfa: $rsp 16 +
STACK CFI 10825 .cfa: $rsp 8 +
STACK CFI 10826 .cfa: $rsp 64 +
STACK CFI INIT 10830 173 .cfa: $rsp 8 + .ra: .cfa -8 + ^
STACK CFI 10832 $r14: .cfa -16 + ^ .cfa: $rsp 16 +
STACK CFI 10834 $r13: .cfa -24 + ^ .cfa: $rsp 24 +
STACK CFI 10836 $r12: .cfa -32 + ^ .cfa: $rsp 32 +
STACK CFI 10837 $rbp: .cfa -40 + ^ .cfa: $rsp 40 +
STACK CFI 1083a $rbx: .cfa -48 + ^ .cfa: $rsp 48 +
STACK CFI 10844 .cfa: $rsp 80 +
STACK CFI 1094f .cfa: $rsp 48 +
STACK CFI 10950 .cfa: $rsp 40 +
STACK CFI 10951 .cfa: $rsp 32 +
STACK CFI 10953 .cfa: $rsp 24 +
STACK CFI 10955 .cfa: $rsp 16 +
STACK CFI 10957 .cfa: $rsp 8 +
STACK CFI 10960 .cfa: $rsp 80 +
STACK CFI INIT 10b90 2bd .cfa: $rsp 8 + .ra: .cfa -8 + ^
STACK CFI 10b9b $r15: .cfa -16 + ^ .cfa: $rsp 16 +
STACK CFI 10b9d $r14: .cfa -24 + ^ .cfa: $rsp 24 +
STACK CFI 10ba2 $r13: .cfa -32 + ^ .cfa: $rsp 32 +
STACK CFI 10ba4 $r12: .cfa -40 + ^ .cfa: $rsp 40 +
STACK CFI 10ba5 $rbp: .cfa -48 + ^ .cfa: $rsp 48 +
STACK CFI 10ba6 $rbx: .cfa -56 + ^ .cfa: $rsp 56 +
STACK CFI 10bb0 .cfa: $rsp 80 +
STACK CFI 10c31 .cfa: $rsp 56 +
STACK CFI 10c32 $rbx: $rbx .cfa: $rsp 48 +
STACK CFI 10c33 $rbp: $rbp .cfa: $rsp 40 +
STACK CFI 10c35 $r12: $r12 .cfa: $rsp 32 +
STACK CFI 10c37 $r13: $r13 .cfa: $rsp 24 +
STACK CFI 10c39 $r14: $r14 .cfa: $rsp 16 +
STACK CFI 10c3b $r15: $r15 .cfa: $rsp 8 +
STACK CFI 10c40 $r12: .cfa -40 + ^ $r13: .cfa -32 + ^ $r14: .cfa -24 + ^ $r15: .cfa -16 + ^ $rbp: .cfa -48 + ^ $rbx: .cfa -56 + ^ .cfa: $rsp 80 +
STACK CFI 10c91 .cfa: $rsp 56 +
STACK CFI 10c92 $rbx: $rbx .cfa: $rsp 48 +
STACK CFI 10c93 $rbp: $rbp .cfa: $rsp 40 +
STACK CFI 10c95 $r12: $r12 .cfa: $rsp 32 +
STACK CFI 10c97 $r13: $r13 .cfa: $rsp 24 +
STACK CFI 10c99 $r14: $r14 .cfa: $rsp 16 +
STACK CFI 10c9b $r15: $r15 .cfa: $rsp 8 +
STACK CFI 10ca0 $r12: .cfa -40 + ^ $r13: .cfa -32 + ^ $r14: .cfa -24 + ^ $r15: .cfa -16 + ^ $rbp: .cfa -48 + ^ $rbx: .cfa -56 + ^ .cfa: $rsp 80 +
STACK CFI 10dbe .cfa: $rsp 56 +
STACK CFI 10dbf $rbx: $rbx .cfa: $rsp 48 +
STACK CFI 10dc0 $rbp: $rbp .cfa: $rsp 40 +
STACK CFI 10dc2 $r12: $r12 .cfa: $rsp 32 +
STACK CFI 10dc4 $r13: $r13 .cfa: $rsp 24 +
STACK CFI 10dc6 $r14: $r14 .cfa: $rsp 16 +
STACK CFI 10dc8 $r15: $r15 .cfa: $rsp 8 +
STACK CFI 10dd0 $r12: .cfa -40 + ^ $r13: .cfa -32 + ^ $r14: .cfa -24 + ^ $r15: .cfa -16 + ^ $rbp: .cfa -48 + ^ $rbx: .cfa -56 + ^ .cfa: $rsp 80 +
STACK CFI INIT 10e50 14d .cfa: $rsp 8 + .ra: .cfa -8 + ^
STACK CFI 10e9a $r15: .cfa -16 + ^ .cfa: $rsp 16 +
STACK CFI 10e9c $r14: .cfa -24 + ^ .cfa: $rsp 24 +
STACK CFI 10e9e $r13: .cfa -32 + ^ .cfa: $rsp 32 +
STACK CFI 10ea0 $r12: .cfa -40 + ^ .cfa: $rsp 40 +
STACK CFI 10ea1 $rbp: .cfa -48 + ^ .cfa: $rsp 48 +
STACK CFI 10ea2 $rbx: .cfa -56 + ^ .cfa: $rsp 56 +
STACK CFI 10eac .cfa: $rsp 64 +
STACK CFI 10f69 .cfa: $rsp 56 +
STACK CFI 10f6a $rbx: $rbx .cfa: $rsp 48 +
STACK CFI 10f6b $rbp: $rbp .cfa: $rsp 40 +
STACK CFI 10f6d $r12: $r12 .cfa: $rsp 32 +
STACK CFI 10f6f $r13: $r13 .cfa: $rsp 24 +
STACK CFI 10f71 $r14: $r14 .cfa: $rsp 16 +
STACK CFI 10f73 $r15: $r15 .cfa: $rsp 8 +
STACK CFI 10f78 $r12: .cfa -40 + ^ $r13: .cfa -32 + ^ $r14: .cfa -24 + ^ $r15: .cfa -16 + ^ $rbp: .cfa -48 + ^ $rbx: .cfa -56 + ^ .cfa: $rsp 64 +
STACK CFI INIT 109b0 f0 .cfa: $rsp 8 + .ra: .cfa -8 + ^
STACK CFI 109b2 $r12: .cfa -16 + ^ .cfa: $rsp 16 +
STACK CFI 109b3 $rbp: .cfa -24 + ^ .cfa: $rsp 24 +
STACK CFI 109b7 $rbx: .cfa -32 + ^ .cfa: $rsp 32 +
STACK CFI 109be .cfa: $rsp 64 +
STACK CFI 10a6d .cfa: $rsp 32 +
STACK CFI 10a6e .cfa: $rsp 24 +
STACK CFI 10a6f .cfa: $rsp 16 +
STACK CFI 10a71 .cfa: $rsp 8 +
STACK CFI 10a78 .cfa: $rsp 64 +
STACK CFI INIT 10aa0 e8 .cfa: $rsp 8 + .ra: .cfa -8 + ^
STACK CFI 10aa2 $r12: .cfa -16 + ^ .cfa: $rsp 16 +
STACK CFI 10aa3 $rbp: .cfa -24 + ^ .cfa: $rsp 24 +
STACK CFI 10aa7 $rbx: .cfa -32 + ^ .cfa: $rsp 32 +
STACK CFI 10aae .cfa: $rsp 64 +
STACK CFI 10b5b .cfa: $rsp 32 +
STACK CFI 10b5c .cfa: $rsp 24 +
STACK CFI 10b5d .cfa: $rsp 16 +
STACK CFI 10b5f .cfa: $rsp 8 +
STACK CFI 10b60 .cfa: $rsp 64 +
STACK CFI INIT 10fa0 1f .cfa: $rsp 8 + .ra: .cfa -8 + ^
STACK CFI 10fab .cfa: $rsp 16 +
STACK CFI 10fbe .cfa: $rsp 8 +
STACK CFI INIT 10fc0 5 .cfa: $rsp 8 + .ra: .cfa -8 + ^
STACK CFI INIT 10fd0 452 .cfa: $rsp 8 + .ra: .cfa -8 + ^
STACK CFI 10fd2 $r15: .cfa -16 + ^ .cfa: $rsp 16 +
STACK CFI 10fd4 $r14: .cfa -24 + ^ .cfa: $rsp 24 +
STACK CFI 10fd6 $r13: .cfa -32 + ^ .cfa: $rsp 32 +
STACK CFI 10fd8 $r12: .cfa -40 + ^ .cfa: $rsp 40 +
STACK CFI 10fd9 $rbp: .cfa -48 + ^ .cfa: $rsp 48 +
STACK CFI 10fda $rbx: .cfa -56 + ^ .cfa: $rsp 56 +
STACK CFI 10fde .cfa: $rsp 96 +
STACK CFI 11027 .cfa: $rsp 56 +
STACK CFI 1102a .cfa: $rsp 48 +
STACK CFI 1102b .cfa: $rsp 40 +
STACK CFI 1102d .cfa: $rsp 32 +
STACK CFI 1102f .cfa: $rsp 24 +
STACK CFI 11031 .cfa: $rsp 16 +
STACK CFI 11033 .cfa: $rsp 8 +
STACK CFI 11038 .cfa: $rsp 96 +
STACK CFI 1115e .cfa: $rsp 56 +
STACK CFI 1115f .cfa: $rsp 48 +
STACK CFI 11160 .cfa: $rsp 40 +
STACK CFI 11162 .cfa: $rsp 32 +
STACK CFI 11164 .cfa: $rsp 24 +
STACK CFI 11166 .cfa: $rsp 16 +
STACK CFI 11168 .cfa: $rsp 8 +
STACK CFI 11170 .cfa: $rsp 96 +
STACK CFI INIT 11430 287 .cfa: $rsp 8 + .ra: .cfa -8 + ^
STACK CFI 11435 $r14: .cfa -16 + ^ .cfa: $rsp 16 +
STACK CFI 11437 $r13: .cfa -24 + ^ .cfa: $rsp 24 +
STACK CFI 11439 $r12: .cfa -32 + ^ .cfa: $rsp 32 +
STACK CFI 1143a $rbp: .cfa -40 + ^ .cfa: $rsp 40 +
STACK CFI 1143b $rbx: .cfa -48 + ^ .cfa: $rsp 48 +
STACK CFI 1147a .cfa: $rsp 40 +
STACK CFI 1147d .cfa: $rsp 32 +
STACK CFI 1147f .cfa: $rsp 24 +
STACK CFI 11481 .cfa: $rsp 16 +
STACK CFI 11483 .cfa: $rsp 8 +
STACK CFI 11488 .cfa: $rsp 48 +
STACK CFI 11529 .cfa: $rsp 40 +
STACK CFI 1152a .cfa: $rsp 32 +
STACK CFI 1152c .cfa: $rsp 24 +
STACK CFI 1152e .cfa: $rsp 16 +
STACK CFI 11530 .cfa: $rsp 8 +
STACK CFI 11538 .cfa: $rsp 48 +
STACK CFI INIT 116c0 135 .cfa: $rsp 8 + .ra: .cfa -8 + ^
STACK CFI 116c2 $r15: .cfa -16 + ^ .cfa: $rsp 16 +
STACK CFI 116c4 $r14: .cfa -24 + ^ .cfa: $rsp 24 +
STACK CFI 116c6 $r13: .cfa -32 + ^ .cfa: $rsp 32 +
STACK CFI 116c8 $r12: .cfa -40 + ^ .cfa: $rsp 40 +
STACK CFI 116cc $rbp: .cfa -48 + ^ .cfa: $rsp 48 +
STACK CFI 116cd $rbx: .cfa -56 + ^ .cfa: $rsp 56 +
STACK CFI 116d1 .cfa: $rsp 96 +
STACK CFI 117be .cfa: $rsp 56 +
STACK CFI 117bf .cfa: $rsp 48 +
STACK CFI 117c0 .cfa: $rsp 40 +
STACK CFI 117c2 .cfa: $rsp 32 +
STACK CFI 117c4 .cfa: $rsp 24 +
STACK CFI 117c6 .cfa: $rsp 16 +
STACK CFI 117c8 .cfa: $rsp 8 +
STACK CFI 117c9 .cfa: $rsp 96 +
STACK CFI INIT 11800 e2 .cfa: $rsp 8 + .ra: .cfa -8 + ^
STACK CFI 11802 $r13: .cfa -16 + ^ .cfa: $rsp 16 +
STACK CFI 11804 $r12: .cfa -24 + ^ .cfa: $rsp 24 +
STACK CFI 11805 $rbp: .cfa -32 + ^ .cfa: $rsp 32 +
STACK CFI 11806 $rbx: .cfa -40 + ^ .cfa: $rsp 40 +
STACK CFI 1180e .cfa: $rsp 64 +
STACK CFI 11870 .cfa: $rsp 40 +
STACK CFI 11871 .cfa: $rsp 32 +
STACK CFI 11872 .cfa: $rsp 24 +
STACK CFI 11874 .cfa: $rsp 16 +
STACK CFI 11876 .cfa: $rsp 8 +
STACK CFI 11880 .cfa: $rsp 64 +
STACK CFI INIT 118f0 c7 .cfa: $rsp 8 + .ra: .cfa -8 + ^
STACK CFI 118f1 $rbx: .cfa -16 + ^ .cfa: $rsp 16 +
STACK CFI 118f8 .cfa: $rsp 48 +
STACK CFI 11987 .cfa: $rsp 16 +
STACK CFI 11988 .cfa: $rsp 8 +
STACK CFI 11990 .cfa: $rsp 48 +
STACK CFI INIT 119c0 49 .cfa: $rsp 8 + .ra: .cfa -8 + ^
STACK CFI 119c1 $rbx: .cfa -16 + ^ .cfa: $rsp 16 +
STACK CFI 119c8 .cfa: $rsp 32 +
STACK CFI 119ff .cfa: $rsp 16 +
STACK CFI 11a03 .cfa: $rsp 8 +
STACK CFI 11a04 .cfa: $rsp 32 +
STACK CFI INIT 11a10 462 .cfa: $rsp 8 + .ra: .cfa -8 + ^
STACK CFI 11a12 $r15: .cfa -16 + ^ .cfa: $rsp 16 +
STACK CFI 11a14 $r14: .cfa -24 + ^ .cfa: $rsp 24 +
STACK CFI 11a19 $r13: .cfa -32 + ^ .cfa: $rsp 32 +
STACK CFI 11a1b $r12: .cfa -40 + ^ .cfa: $rsp 40 +
STACK CFI 11a1c $rbp: .cfa -48 + ^ .cfa: $rsp 48 +
STACK CFI 11a1d $rbx: .cfa -56 + ^ .cfa: $rsp 56 +
STACK CFI 11a29 .cfa: $rsp 144 +
STACK CFI 11adf .cfa: $rsp 56 +
STACK CFI 11ae0 .cfa: $rsp 48 +
STACK CFI 11ae1 .cfa: $rsp 40 +
STACK CFI 11ae3 .cfa: $rsp 32 +
STACK CFI 11ae5 .cfa: $rsp 24 +
STACK CFI 11ae7 .cfa: $rsp 16 +
STACK CFI 11ae9 .cfa: $rsp 8 +
STACK CFI 11af0 .cfa: $rsp 144 +
STACK CFI 11b89 .cfa: $rsp 152 +
STACK CFI 11b8f .cfa: $rsp 160 +
STACK CFI 11ba6 .cfa: $rsp 152 +
STACK CFI 11bac .cfa: $rsp 144 +
STACK CFI INIT 11e80 7c .cfa: $rsp 8 + .ra: .cfa -8 + ^
STACK CFI 11e81 $rbp: .cfa -16 + ^ .cfa: $rsp 16 +
STACK CFI 11e82 $rbx: .cfa -24 + ^ .cfa: $rsp 24 +
STACK CFI 11e8b .cfa: $rsp 64 +
STACK CFI 11eda .cfa: $rsp 24 +
STACK CFI 11edb .cfa: $rsp 16 +
STACK CFI 11edc .cfa: $rsp 8 +
STACK CFI 11ee0 .cfa: $rsp 64 +
STACK CFI INIT 12000 16 .cfa: $rsp 8 + .ra: .cfa -8 + ^
STACK CFI 12004 .cfa: $rsp 16 +
STACK CFI 1200f .cfa: $rsp 8 +
STACK CFI INIT 11f00 73 .cfa: $rsp 8 + .ra: .cfa -8 + ^
STACK CFI 11f01 $rbx: .cfa -16 + ^ .cfa: $rsp 16 +
STACK CFI 11f72 .cfa: $rsp 8 +
STACK CFI INIT 11f80 75 .cfa: $rsp 8 + .ra: .cfa -8 + ^
STACK CFI 11f84 $rbx: .cfa -16 + ^ .cfa: $rsp 16 +
STACK CFI 11fa3 .cfa: $rsp 24 +
STACK CFI 11fa7 .cfa: $rsp 32 +
STACK CFI 11fac .cfa: $rsp 40 +
STACK CFI 11fb1 .cfa: $rsp 48 +
STACK CFI 11fc2 .cfa: $rsp 16 +
STACK CFI 11fd5 .cfa: $rsp 8 +
STACK CFI 11fd6 .cfa: $rsp 16 +
STACK CFI INIT 12020 1e .cfa: $rsp 8 + .ra: .cfa -8 + ^
STACK CFI INIT 12040 46 .cfa: $rsp 8 + .ra: .cfa -8 + ^
STACK CFI INIT 12090 56 .cfa: $rsp 8 + .ra: .cfa -8 + ^
STACK CFI INIT 120f0 4c .cfa: $rsp 8 + .ra: .cfa -8 + ^
STACK CFI INIT 12140 39 .cfa: $rsp 8 + .ra: .cfa -8 + ^
STACK CFI INIT 12180 3c .cfa: $rsp 8 + .ra: .cfa -8 + ^
STACK CFI INIT 121c0 34 .cfa: $rsp 8 + .ra: .cfa -8 + ^
STACK CFI INIT 12200 26 .cfa: $rsp 8 + .ra: .cfa -8 + ^
STACK CFI INIT 12230 34 .cfa: $rsp 8 + .ra: .cfa -8 + ^
STACK CFI INIT 12270 7c .cfa: $rsp 8 + .ra: .cfa -8 + ^
STACK CFI INIT 122f0 3a .cfa: $rsp 8 + .ra: .cfa -8 + ^
STACK CFI INIT 12330 1f .cfa: $rsp 8 + .ra: .cfa -8 + ^
STACK CFI INIT 12350 38 .cfa: $rsp 8 + .ra: .cfa -8 + ^
STACK CFI INIT 12390 3b .cfa: $rsp 8 + .ra: .cfa -8 + ^
STACK CFI 12396 $rbx: .cfa -16 + ^ .cfa: $rsp 16 +
STACK CFI 123b3 $rbx: $rbx .cfa: $rsp 8 +
STACK CFI 123b8 $rbx: .cfa -16 + ^ .cfa: $rsp 16 +
STACK CFI 123c7 $rbx: $rbx .cfa: $rsp 8 +
STACK CFI INIT 123d0 6c .cfa: $rsp 8 + .ra: .cfa -8 + ^
STACK CFI 123d4 .cfa: $rsp 32 +
STACK CFI 12428 .cfa: $rsp 8 +
STACK CFI 12430 .cfa: $rsp 32 +
STACK CFI INIT 12440 10 .cfa: $rsp 8 + .ra: .cfa -8 + ^
STACK CFI INIT 12450 4b .cfa: $rsp 8 + .ra: .cfa -8 + ^
STACK CFI 12451 $rbp: .cfa -16 + ^ .cfa: $rsp 16 +
STACK CFI 12452 $rbx: .cfa -24 + ^ .cfa: $rsp 24 +
STACK CFI 12459 .cfa: $rsp 32 +
STACK CFI 1248c .cfa: $rsp 24 +
STACK CFI 1248d .cfa: $rsp 16 +
STACK CFI 1248e .cfa: $rsp 8 +
STACK CFI 12490 .cfa: $rsp 32 +
STACK CFI INIT 124a0 5 .cfa: $rsp 8 + .ra: .cfa -8 + ^
STACK CFI INIT 124b0 1af .cfa: $rsp 8 + .ra: .cfa -8 + ^
STACK CFI 124b2 $r15: .cfa -16 + ^ .cfa: $rsp 16 +
STACK CFI 124b4 $r14: .cfa -24 + ^ .cfa: $rsp 24 +
STACK CFI 124b6 $r13: .cfa -32 + ^ .cfa: $rsp 32 +
STACK CFI 124b8 $r12: .cfa -40 + ^ .cfa: $rsp 40 +
STACK CFI 124bc $rbp: .cfa -48 + ^ .cfa: $rsp 48 +
STACK CFI 124bd $rbx: .cfa -56 + ^ .cfa: $rsp 56 +
STACK CFI 124cc .cfa: $rsp 224 +
STACK CFI 125bd .cfa: $rsp 56 +
STACK CFI 125be .cfa: $rsp 48 +
STACK CFI 125bf .cfa: $rsp 40 +
STACK CFI 125c1 .cfa: $rsp 32 +
STACK CFI 125c3 .cfa: $rsp 24 +
STACK CFI 125c5 .cfa: $rsp 16 +
STACK CFI 125c7 .cfa: $rsp 8 +
STACK CFI 125d0 .cfa: $rsp 224 +
STACK CFI INIT 12660 14 .cfa: $rsp 8 + .ra: .cfa -8 + ^
STACK CFI INIT 12680 40 .cfa: $rsp 8 + .ra: .cfa -8 + ^
STACK CFI 12686 $rbx: .cfa -16 + ^ .cfa: $rsp 16 +
STACK CFI 126a1 .cfa: $rsp 8 +
STACK CFI 126a8 .cfa: $rsp 16 +
STACK CFI 126bf .cfa: $rsp 8 +
STACK CFI INIT 126c0 2 .cfa: $rsp 8 + .ra: .cfa -8 + ^
STACK CFI INIT 126d0 213 .cfa: $rsp 8 + .ra: .cfa -8 + ^
STACK CFI 126d2 $r15: .cfa -16 + ^ .cfa: $rsp 16 +
STACK CFI 126d4 $r14: .cfa -24 + ^ .cfa: $rsp 24 +
STACK CFI 126db $r13: .cfa -32 + ^ .cfa: $rsp 32 +
STACK CFI 126dd $r12: .cfa -40 + ^ .cfa: $rsp 40 +
STACK CFI 126de $rbp: .cfa -48 + ^ .cfa: $rsp 48 +
STACK CFI 126df $rbx: .cfa -56 + ^ .cfa: $rsp 56 +
STACK CFI 126e9 .cfa: $rsp 208 +
STACK CFI 12877 .cfa: $rsp 56 +
STACK CFI 12878 .cfa: $rsp 48 +
STACK CFI 12879 .cfa: $rsp 40 +
STACK CFI 1287b .cfa: $rsp 32 +
STACK CFI 1287d .cfa: $rsp 24 +
STACK CFI 1287f .cfa: $rsp 16 +
STACK CFI 12881 .cfa: $rsp 8 +
STACK CFI 12888 .cfa: $rsp 208 +
STACK CFI INIT 128f0 5 .cfa: $rsp 8 + .ra: .cfa -8 + ^
STACK CFI INIT 12900 23 .cfa: $rsp 8 + .ra: .cfa -8 + ^
STACK CFI 12905 $rbx: .cfa -16 + ^ .cfa: $rsp 16 +
STACK CFI 1291f $rbx: $rbx .cfa: $rsp 8 +
STACK CFI INIT 12930 8 .cfa: $rsp 8 + .ra: .cfa -8 + ^
STACK CFI INIT 12940 2fc .cfa: $rsp 8 + .ra: .cfa -8 + ^
STACK CFI INIT 12c40 44 .cfa: $rsp 8 + .ra: .cfa -8 + ^
STACK CFI 12c6c .cfa: $rsp 16 +
STACK CFI INIT 12c90 47 .cfa: $rsp 8 + .ra: .cfa -8 + ^
STACK CFI 12cbf .cfa: $rsp 16 +
STACK CFI INIT 12ce0 8 .cfa: $rsp 8 + .ra: .cfa -8 + ^
STACK CFI INIT 12cf0 8 .cfa: $rsp 8 + .ra: .cfa -8 + ^
STACK CFI INIT 12d00 25c .cfa: $rsp 8 + .ra: .cfa -8 + ^
STACK CFI INIT 12f60 c7 .cfa: $rsp 8 + .ra: .cfa -8 + ^
STACK CFI INIT 13030 fd .cfa: $rsp 8 + .ra: .cfa -8 + ^
STACK CFI 13031 $rbp: .cfa -16 + ^ .cfa: $rsp 16 +
STACK CFI 13032 $rbx: .cfa -24 + ^ .cfa: $rsp 24 +
STACK CFI 130b9 .cfa: $rsp 16 +
STACK CFI 130ba .cfa: $rsp 8 +
STACK CFI 130c0 .cfa: $rsp 24 +
STACK CFI 1311a .cfa: $rsp 16 +
STACK CFI 1311b .cfa: $rsp 8 +
STACK CFI 1311c .cfa: $rsp 24 +
STACK CFI INIT 13130 118 .cfa: $rsp 8 + .ra: .cfa -8 + ^
STACK CFI 13135 $r14: .cfa -16 + ^ .cfa: $rsp 16 +
STACK CFI 13137 $r13: .cfa -24 + ^ .cfa: $rsp 24 +
STACK CFI 1313c $r12: .cfa -32 + ^ .cfa: $rsp 32 +
STACK CFI 1313d $rbp: .cfa -40 + ^ .cfa: $rsp 40 +
STACK CFI 13141 $rbx: .cfa -48 + ^ .cfa: $rsp 48 +
STACK CFI 131d6 .cfa: $rsp 40 +
STACK CFI 131e2 .cfa: $rsp 32 +
STACK CFI 131e4 .cfa: $rsp 24 +
STACK CFI 131e6 .cfa: $rsp 16 +
STACK CFI 131e8 .cfa: $rsp 8 +
STACK CFI 131f0 .cfa: $rsp 48 +
STACK CFI 1320f .cfa: $rsp 40 +
STACK CFI 13218 .cfa: $rsp 32 +
STACK CFI 1321a .cfa: $rsp 24 +
STACK CFI 1321c .cfa: $rsp 16 +
STACK CFI 1321e .cfa: $rsp 8 +
STACK CFI 13220 .cfa: $rsp 48 +
STACK CFI 13221 .cfa: $rsp 40 +
STACK CFI 1322d .cfa: $rsp 32 +
STACK CFI 1322f .cfa: $rsp 24 +
STACK CFI 13231 .cfa: $rsp 16 +
STACK CFI 13233 .cfa: $rsp 8 +
STACK CFI 13234 .cfa: $rsp 48 +
STACK CFI 13235 .cfa: $rsp 40 +
STACK CFI 13241 .cfa: $rsp 32 +
STACK CFI 13243 .cfa: $rsp 24 +
STACK CFI 13245 .cfa: $rsp 16 +
STACK CFI 13247 .cfa: $rsp 8 +
STACK CFI INIT 13250 1ff .cfa: $rsp 8 + .ra: .cfa -8 + ^
STACK CFI 13252 $r13: .cfa -16 + ^ .cfa: $rsp 16 +
STACK CFI 13254 $r12: .cfa -24 + ^ .cfa: $rsp 24 +
STACK CFI 13255 $rbp: .cfa -32 + ^ .cfa: $rsp 32 +
STACK CFI 13256 $rbx: .cfa -40 + ^ .cfa: $rsp 40 +
STACK CFI 13372 .cfa: $rsp 32 +
STACK CFI 13373 .cfa: $rsp 24 +
STACK CFI 13378 .cfa: $rsp 16 +
STACK CFI 1337a .cfa: $rsp 8 +
STACK CFI 13380 .cfa: $rsp 40 +
STACK CFI 13395 .cfa: $rsp 32 +
STACK CFI 13396 .cfa: $rsp 24 +
STACK CFI 13398 .cfa: $rsp 16 +
STACK CFI 1339a .cfa: $rsp 8 +
STACK CFI 133a0 .cfa: $rsp 40 +
STACK CFI 133c5 .cfa: $rsp 32 +
STACK CFI 133c6 .cfa: $rsp 24 +
STACK CFI 133c8 .cfa: $rsp 16 +
STACK CFI 133ca .cfa: $rsp 8 +
STACK CFI 133d0 .cfa: $rsp 40 +
STACK CFI 133f9 .cfa: $rsp 32 +
STACK CFI 133fa .cfa: $rsp 24 +
STACK CFI 133fc .cfa: $rsp 16 +
STACK CFI 133fe .cfa: $rsp 8 +
STACK CFI 133ff .cfa: $rsp 40 +
STACK CFI INIT 13450 2b .cfa: $rsp 8 + .ra: .cfa -8 + ^
STACK CFI INIT 13480 26f .cfa: $rsp 8 + .ra: .cfa -8 + ^
STACK CFI 13482 $r15: .cfa -16 + ^ .cfa: $rsp 16 +
STACK CFI 13484 $r14: .cfa -24 + ^ .cfa: $rsp 24 +
STACK CFI 13486 $r13: .cfa -32 + ^ .cfa: $rsp 32 +
STACK CFI 13488 $r12: .cfa -40 + ^ .cfa: $rsp 40 +
STACK CFI 13489 $rbp: .cfa -48 + ^ .cfa: $rsp 48 +
STACK CFI 1348a $rbx: .cfa -56 + ^ .cfa: $rsp 56 +
STACK CFI 1348e .cfa: $rsp 80 +
STACK CFI 135df .cfa: $rsp 56 +
STACK CFI 135e0 .cfa: $rsp 48 +
STACK CFI 135e1 .cfa: $rsp 40 +
STACK CFI 135e3 .cfa: $rsp 32 +
STACK CFI 135e5 .cfa: $rsp 24 +
STACK CFI 135e7 .cfa: $rsp 16 +
STACK CFI 135e9 .cfa: $rsp 8 +
STACK CFI 135f0 .cfa: $rsp 80 +
STACK CFI INIT 136f0 19a .cfa: $rsp 8 + .ra: .cfa -8 + ^
STACK CFI 136f2 $r13: .cfa -16 + ^ .cfa: $rsp 16 +
STACK CFI 136f4 $r12: .cfa -24 + ^ .cfa: $rsp 24 +
STACK CFI 136f7 $rbp: .cfa -32 + ^ .cfa: $rsp 32 +
STACK CFI 136f8 $rbx: .cfa -40 + ^ .cfa: $rsp 40 +
STACK CFI 137dd .cfa: $rsp 32 +
STACK CFI 137de .cfa: $rsp 24 +
STACK CFI 137e0 .cfa: $rsp 16 +
STACK CFI 137e2 .cfa: $rsp 8 +
STACK CFI 137e8 .cfa: $rsp 40 +
STACK CFI 1386c .cfa: $rsp 32 +
STACK CFI 1386d .cfa: $rsp 24 +
STACK CFI 1386f .cfa: $rsp 16 +
STACK CFI 13871 .cfa: $rsp 8 +
STACK CFI 13872 .cfa: $rsp 40 +
STACK CFI INIT 13890 287 .cfa: $rsp 8 + .ra: .cfa -8 + ^
STACK CFI 13892 $r15: .cfa -16 + ^ .cfa: $rsp 16 +
STACK CFI 13894 $r14: .cfa -24 + ^ .cfa: $rsp 24 +
STACK CFI 13896 $r13: .cfa -32 + ^ .cfa: $rsp 32 +
STACK CFI 13898 $r12: .cfa -40 + ^ .cfa: $rsp 40 +
STACK CFI 13899 $rbp: .cfa -48 + ^ .cfa: $rsp 48 +
STACK CFI 1389a $rbx: .cfa -56 + ^ .cfa: $rsp 56 +
STACK CFI 1389e .cfa: $rsp 88 +
STACK CFI 13a25 .cfa: $rsp 56 +
STACK CFI 13a26 .cfa: $rsp 48 +
STACK CFI 13a27 .cfa: $rsp 40 +
STACK CFI 13a29 .cfa: $rsp 32 +
STACK CFI 13a2b .cfa: $rsp 24 +
STACK CFI 13a2d .cfa: $rsp 16 +
STACK CFI 13a2f .cfa: $rsp 8 +
STACK CFI 13a30 .cfa: $rsp 88 +
STACK CFI INIT 13b20 65 .cfa: $rsp 8 + .ra: .cfa -8 + ^
STACK CFI 13b22 $r15: .cfa -16 + ^ .cfa: $rsp 16 +
STACK CFI 13b24 $r14: .cfa -24 + ^ .cfa: $rsp 24 +
STACK CFI 13b29 $r13: .cfa -32 + ^ .cfa: $rsp 32 +
STACK CFI 13b2b $r12: .cfa -40 + ^ .cfa: $rsp 40 +
STACK CFI 13b33 $rbp: .cfa -48 + ^ .cfa: $rsp 48 +
STACK CFI 13b3b $rbx: .cfa -56 + ^ .cfa: $rsp 56 +
STACK CFI 13b48 .cfa: $rsp 64 +
STACK CFI 13b7a .cfa: $rsp 56 +
STACK CFI 13b7b .cfa: $rsp 48 +
STACK CFI 13b7c .cfa: $rsp 40 +
STACK CFI 13b7e .cfa: $rsp 32 +
STACK CFI 13b80 .cfa: $rsp 24 +
STACK CFI 13b82 .cfa: $rsp 16 +
STACK CFI 13b84 .cfa: $rsp 8 +
STACK CFI INIT 13b90 2 .cfa: $rsp 8 + .ra: .cfa -8 + ^
