MODULE Linux x86_64 3D33F19CFD1163E53B90E65B965143A20 submarine_internal
INFO CODE_ID 9CF1333D11FDE5633B90E65B965143A232D72783
FUNC 1c20 4a 0 google_breakpad::PageAllocator::FreeAll()
FUNC 1c6a 20 0 google_breakpad::ProcCpuInfoReader::GetValueAndLen(unsigned long*)
FUNC 1c8a 20 0 google_breakpad::TypedMDRVA<MDRawDirectory>::CopyIndex(unsigned int, MDRawDirectory*)
FUNC 1caa 1d 0 google_breakpad::TypedMDRVA<MDRawDirectory>::CopyIndex(unsigned int, MDRawDirectory*)
FUNC 1cc8 20 0 google_breakpad::TypedMDRVA<unsigned int>::CopyIndexAfterObject(unsigned int, void const*, unsigned long)
FUNC 1ce8 20 0 MinidumpWriter::MinidumpWriter
FUNC 1d08 2c 0 MinidumpWriter::~MinidumpWriter
FUNC 1d34 1ec 0 MinidumpWriter::WriteFile
FUNC 1f20 67 0 MinidumpWriter::WriteProcFile
FUNC 2086 48 0 dumpCallback
FUNC 20ce 1cc 0 _EQUAL()
FUNC 229a 1cc 0 _0()
FUNC 2466 1cc 0 _1()
FUNC 2632 1cc 0 _2()
FUNC 27fe 1cc 0 _3()
FUNC 29ca 1cc 0 _4()
FUNC 2b96 1cc 0 _5()
FUNC 2d62 1cc 0 _6()
FUNC 2f2e 1cc 0 _7()
FUNC 30fa 1cc 0 _8()
FUNC 32c6 1cc 0 _9()
FUNC 3492 1cc 0 _A()
FUNC 365e 1cc 0 _B()
FUNC 382a 1cc 0 _C()
FUNC 39f6 1cc 0 _D()
FUNC 3bc2 1cc 0 _E()
FUNC 3d8e 1cc 0 _F()
FUNC 3f5a 1cc 0 _G()
FUNC 4126 1cc 0 _H()
FUNC 42f2 1cc 0 _I()
FUNC 44be 1cc 0 _J()
FUNC 468a 1cc 0 _K()
FUNC 4856 1cc 0 _L()
FUNC 4a22 1cc 0 _M()
FUNC 4bee 1cc 0 _N()
FUNC 4dba 1cc 0 _O()
FUNC 4f86 1cc 0 _P()
FUNC 5152 1cc 0 _Q()
FUNC 531e 1cc 0 _R()
FUNC 54ea 1cc 0 _S()
FUNC 56b6 1cc 0 _T()
FUNC 5882 1cc 0 _U()
FUNC 5a4e 1cc 0 _V()
FUNC 5c1a 1cc 0 _W()
FUNC 5de6 1cc 0 _X()
FUNC 5fb2 1cc 0 _Y()
FUNC 617e 1cc 0 _Z()
FUNC 634a 1cc 0 _a()
FUNC 6516 1cc 0 _b()
FUNC 66e2 1cc 0 _c()
FUNC 68ae 1cc 0 _d()
FUNC 6a7a 1cc 0 _e()
FUNC 6c46 1cc 0 _f()
FUNC 6e12 1cc 0 _g()
FUNC 6fde 1cc 0 _h()
FUNC 71aa 1cc 0 _i()
FUNC 7376 1cc 0 _j()
FUNC 7542 1cc 0 _k()
FUNC 770e 1cc 0 _l()
FUNC 78da 1cc 0 _m()
FUNC 7aa6 1cc 0 _n()
FUNC 7c72 1cc 0 _o()
FUNC 7e3e 1cc 0 _p()
FUNC 800a 1cc 0 _q()
FUNC 81d6 1cc 0 _r()
FUNC 83a2 1cc 0 _s()
FUNC 856e 1cc 0 _t()
FUNC 873a 1cc 0 _u()
FUNC 8906 1cc 0 _v()
FUNC 8ad2 1cc 0 _w()
FUNC 8c9e 1cc 0 _x()
FUNC 8e6a 1cc 0 _y()
FUNC 9036 1cc 0 _z()
FUNC 9202 1cc 0 StartFlagProcessing()
FUNC 93ce 7 0 Execute()
FUNC 93d5 183 0 main
FUNC 9558 3a 0 google_breakpad::MicrodumpExtraInfo::MicrodumpExtraInfo()
FUNC 9592 a0 0 google_breakpad::MinidumpDescriptor::MinidumpDescriptor(std::__cxx11::basic_string<char, std::char_traits<char>, std::allocator<char> > const&)
FUNC 9632 12 0 google_breakpad::MinidumpDescriptor::path() const
FUNC 9644 2f 0 google_breakpad::MinidumpDescriptor::~MinidumpDescriptor()
FUNC 9680 14b 0 google_breakpad::ExceptionHandler::InstallHandlersLocked()
FUNC 97d0 7c 0 google_breakpad::ExceptionHandler::RestoreHandlersLocked()
FUNC 9850 341 0 google_breakpad::ExceptionHandler::~ExceptionHandler()
FUNC 9ba0 d1 0 google_breakpad::ExceptionHandler::SendContinueSignalToChild()
FUNC 9c80 4bc 0 google_breakpad::ExceptionHandler::GenerateDump(google_breakpad::ExceptionHandler::CrashContext*)
FUNC a140 1da 0 google_breakpad::ExceptionHandler::HandleSignal(int, siginfo_t*, void*)
FUNC a320 1c1 0 google_breakpad::ExceptionHandler::SignalHandler(int, siginfo_t*, void*)
FUNC a4f0 7f 0 google_breakpad::ExceptionHandler::SimulateSignalDelivery(int)
FUNC a570 e5 0 google_breakpad::ExceptionHandler::WaitForContinueSignal()
FUNC a660 8b 0 google_breakpad::ExceptionHandler::DoDump(int, void const*, unsigned long)
FUNC a6f0 28 0 google_breakpad::ExceptionHandler::ThreadEntry(void*)
FUNC a720 195 0 google_breakpad::ExceptionHandler::WriteMinidump()
FUNC a8c0 e3 0 google_breakpad::ExceptionHandler::AddMappingInfo(std::__cxx11::basic_string<char, std::char_traits<char>, std::allocator<char> > const&, unsigned char const*, unsigned long, unsigned long, unsigned long)
FUNC a9b0 91 0 google_breakpad::ExceptionHandler::RegisterAppMemory(void*, unsigned long)
FUNC aa50 52 0 google_breakpad::ExceptionHandler::UnregisterAppMemory(void*)
FUNC aab0 23d 0 google_breakpad::ExceptionHandler::WriteMinidumpForChild(int, int, std::__cxx11::basic_string<char, std::char_traits<char>, std::allocator<char> > const&, bool (*)(google_breakpad::MinidumpDescriptor const&, void*, bool), void*)
FUNC acf0 396 0 google_breakpad::ExceptionHandler::ExceptionHandler(google_breakpad::MinidumpDescriptor const&, bool (*)(void*), bool (*)(google_breakpad::MinidumpDescriptor const&, void*, bool), void*, bool, int)
FUNC b090 27d 0 google_breakpad::ExceptionHandler::WriteMinidump(std::__cxx11::basic_string<char, std::char_traits<char>, std::allocator<char> > const&, bool (*)(google_breakpad::MinidumpDescriptor const&, void*, bool), void*)
FUNC b310 ea 0 void std::vector<google_breakpad::ExceptionHandler*, std::allocator<google_breakpad::ExceptionHandler*> >::_M_emplace_back_aux<google_breakpad::ExceptionHandler*>(google_breakpad::ExceptionHandler*&&)
FUNC b400 c2 0 void std::__cxx11::basic_string<char, std::char_traits<char>, std::allocator<char> >::_M_construct<char*>(char*, char*, std::forward_iterator_tag)
FUNC b4d0 a4 0 google_breakpad::MinidumpDescriptor::MinidumpDescriptor(google_breakpad::MinidumpDescriptor const&)
FUNC b580 317 0 google_breakpad::MinidumpDescriptor::UpdatePath()
FUNC b8a0 a2 0 google_breakpad::MinidumpDescriptor::operator=(google_breakpad::MinidumpDescriptor const&)
FUNC b950 33 0 logger::write(char const*, unsigned long)
FUNC b990 1ab5 0 google_breakpad::WriteMicrodump(int, void const*, unsigned long, std::__cxx11::list<google_breakpad::MappingEntry, std::allocator<google_breakpad::MappingEntry> > const&, google_breakpad::MicrodumpExtraInfo const&)
FUNC d450 3ea 0 void std::vector<unsigned char, google_breakpad::PageStdAllocator<unsigned char> >::_M_range_insert<unsigned char const*>(__gnu_cxx::__normal_iterator<unsigned char*, std::vector<unsigned char, google_breakpad::PageStdAllocator<unsigned char> > >, unsigned char const*, unsigned char const*, std::forward_iterator_tag)
FUNC d840 6 0 google_breakpad::LinuxDumper::LateInit()
FUNC d850 835 0 google_breakpad::LinuxDumper::LinuxDumper(int, char const*)
FUNC e090 67 0 google_breakpad::LinuxDumper::~LinuxDumper()
FUNC e100 12 0 google_breakpad::LinuxDumper::~LinuxDumper()
FUNC e120 4a 0 google_breakpad::LinuxDumper::GetMappingAbsolutePath(google_breakpad::MappingInfo const&, char*) const
FUNC e170 19f 0 ElfFileSoName
FUNC e310 1a7 0 google_breakpad::LinuxDumper::HandleDeletedFileInMapping(char*) const
FUNC e4c0 e6 0 google_breakpad::LinuxDumper::GetMappingEffectiveNameAndPath(google_breakpad::MappingInfo const&, char*, unsigned long, char*, unsigned long)
FUNC e5b0 119 0 google_breakpad::LinuxDumper::ReadAuxv()
FUNC e6d0 32 0 google_breakpad::LinuxDumper::Init()
FUNC e710 4b 0 google_breakpad::LinuxDumper::FindMapping(void const*) const
FUNC e760 7d 0 google_breakpad::LinuxDumper::GetStackInfo(void const**, unsigned long*, unsigned long)
FUNC e7e0 53 0 google_breakpad::LinuxDumper::HandleDeletedFileInMapping(char*) const
FUNC e840 34b 0 google_breakpad::LinuxDumper::ElfFileIdentifierForMapping(google_breakpad::MappingInfo const&, bool, unsigned int, google_breakpad::wasteful_vector<unsigned char>&)
FUNC eb90 930 0 google_breakpad::LinuxDumper::EnumerateMappings()
FUNC f4c0 143 0 google_breakpad::PageAllocator::Alloc(unsigned long)
FUNC f610 288 0 std::vector<google_breakpad::MappingInfo*, google_breakpad::PageStdAllocator<google_breakpad::MappingInfo*> >::_M_default_append(unsigned long)
FUNC f8a0 3 0 google_breakpad::LinuxPtraceDumper::IsPostMortem() const
FUNC f8b0 187 0 google_breakpad::LinuxPtraceDumper::CopyFromProcess(void*, int, void const*, unsigned long)
FUNC fa40 bb 0 google_breakpad::LinuxPtraceDumper::BuildProcPath(char*, int, char const*) const
FUNC fb00 bc 0 google_breakpad::LinuxPtraceDumper::ThreadsResume()
FUNC fbc0 5fd 0 google_breakpad::LinuxPtraceDumper::EnumerateThreads()
FUNC 101c0 51d 0 google_breakpad::LinuxPtraceDumper::GetThreadInfoByIndex(unsigned long, google_breakpad::ThreadInfo*)
FUNC 106e0 27 0 google_breakpad::LinuxPtraceDumper::LinuxPtraceDumper(int)
FUNC 10710 251 0 google_breakpad::LinuxPtraceDumper::ThreadsSuspend()
FUNC 10970 13 0 google_breakpad::LinuxPtraceDumper::~LinuxPtraceDumper()
FUNC 10990 20 0 google_breakpad::LinuxPtraceDumper::~LinuxPtraceDumper()
FUNC 109b0 288 0 std::vector<int, google_breakpad::PageStdAllocator<int> >::_M_default_append(unsigned long)
FUNC 10c40 e0e 0 MinidumpWriter::WriteThreadListStream
FUNC 11a50 21d9 0 MinidumpWriter::Dump
FUNC 13c30 343 0 google_breakpad::WriteMinidump(char const*, std::__cxx11::list<google_breakpad::MappingEntry, std::allocator<google_breakpad::MappingEntry> > const&, std::__cxx11::list<google_breakpad::AppMemory, std::allocator<google_breakpad::AppMemory> > const&, google_breakpad::LinuxDumper*)
FUNC 13f80 496 0 google_breakpad::WriteMinidump(char const*, int, int)
FUNC 14420 422 0 WriteMinidumpImpl
FUNC 14850 109 0 google_breakpad::WriteMinidump(char const*, int, void const*, unsigned long)
FUNC 14960 109 0 google_breakpad::WriteMinidump(int, int, void const*, unsigned long)
FUNC 14a70 26 0 google_breakpad::WriteMinidump(char const*, int, void const*, unsigned long, std::__cxx11::list<google_breakpad::MappingEntry, std::allocator<google_breakpad::MappingEntry> > const&, std::__cxx11::list<google_breakpad::AppMemory, std::allocator<google_breakpad::AppMemory> > const&)
FUNC 14aa0 25 0 google_breakpad::WriteMinidump(int, int, void const*, unsigned long, std::__cxx11::list<google_breakpad::MappingEntry, std::allocator<google_breakpad::MappingEntry> > const&, std::__cxx11::list<google_breakpad::AppMemory, std::allocator<google_breakpad::AppMemory> > const&)
FUNC 14ad0 24 0 google_breakpad::WriteMinidump(char const*, long, int, void const*, unsigned long, std::__cxx11::list<google_breakpad::MappingEntry, std::allocator<google_breakpad::MappingEntry> > const&, std::__cxx11::list<google_breakpad::AppMemory, std::allocator<google_breakpad::AppMemory> > const&)
FUNC 14b00 23 0 google_breakpad::WriteMinidump(int, long, int, void const*, unsigned long, std::__cxx11::list<google_breakpad::MappingEntry, std::allocator<google_breakpad::MappingEntry> > const&, std::__cxx11::list<google_breakpad::AppMemory, std::allocator<google_breakpad::AppMemory> > const&)
FUNC 14b30 259 0 google_breakpad::ProcCpuInfoReader::GetNextField(char const**)
FUNC 14d90 257 0 std::vector<char, google_breakpad::PageStdAllocator<char> >::resize(unsigned long)
FUNC 14ff0 250 0 void std::vector<MDMemoryDescriptor, google_breakpad::PageStdAllocator<MDMemoryDescriptor> >::_M_emplace_back_aux<MDMemoryDescriptor const&>(MDMemoryDescriptor const&)
FUNC 15240 23 0 google_breakpad::TypedMDRVA<MDString>::CopyIndexAfterObject(unsigned int, void const*, unsigned long)
FUNC 15270 1a 0 google_breakpad::MinidumpFileWriter::MinidumpFileWriter()
FUNC 15290 78 0 google_breakpad::MinidumpFileWriter::Open(char const*)
FUNC 15310 2c 0 google_breakpad::MinidumpFileWriter::SetFile(int)
FUNC 15340 5d 0 google_breakpad::MinidumpFileWriter::Close()
FUNC 153a0 15 0 google_breakpad::MinidumpFileWriter::~MinidumpFileWriter()
FUNC 153c0 b6 0 google_breakpad::MinidumpFileWriter::Allocate(unsigned long)
FUNC 15480 ff 0 google_breakpad::MinidumpFileWriter::Copy(unsigned int, void const*, long)
FUNC 15580 f0 0 google_breakpad::MinidumpFileWriter::CopyStringToMDString(wchar_t const*, unsigned int, google_breakpad::TypedMDRVA<MDString>*)
FUNC 15670 ef 0 google_breakpad::MinidumpFileWriter::CopyStringToMDString(char const*, unsigned int, google_breakpad::TypedMDRVA<MDString>*)
FUNC 15760 41 0 google_breakpad::UntypedMDRVA::Allocate(unsigned long)
FUNC 157b0 89 0 google_breakpad::UntypedMDRVA::Copy(unsigned int, void const*, unsigned long)
FUNC 15840 df 0 google_breakpad::MinidumpFileWriter::WriteMemory(void const*, unsigned long, MDMemoryDescriptor*)
FUNC 15920 5 0 google_breakpad::MinidumpFileWriter::WriteString(wchar_t const*, unsigned int, MDLocationDescriptor*)
FUNC 15930 5 0 google_breakpad::MinidumpFileWriter::WriteString(char const*, unsigned int, MDLocationDescriptor*)
FUNC 15940 23a 0 bool google_breakpad::MinidumpFileWriter::WriteStringCore<wchar_t>(wchar_t const*, unsigned int, MDLocationDescriptor*)
FUNC 15b80 23a 0 bool google_breakpad::MinidumpFileWriter::WriteStringCore<char>(char const*, unsigned int, MDLocationDescriptor*)
FUNC 15dc0 c2 0 void std::__cxx11::basic_string<char, std::char_traits<char>, std::allocator<char> >::_M_construct<char const*>(char const*, char const*, std::forward_iterator_tag)
FUNC 15e90 b1 0 google_breakpad::UTF8ToUTF16Char(char const*, int, unsigned short*)
FUNC 15f50 7b 0 google_breakpad::UTF32ToUTF16Char(wchar_t, unsigned short*)
FUNC 15fd0 173 0 google_breakpad::UTF16ToUTF8[abi:cxx11](std::vector<unsigned short, std::allocator<unsigned short> > const&, bool)
FUNC 16150 f0 0 google_breakpad::UTF32ToUTF16(wchar_t const*, std::vector<unsigned short, std::allocator<unsigned short> >*)
FUNC 16240 e8 0 google_breakpad::UTF8ToUTF16(char const*, std::vector<unsigned short, std::allocator<unsigned short> >*)
FUNC 16330 2bd 0 std::vector<unsigned short, std::allocator<unsigned short> >::_M_fill_insert(__gnu_cxx::__normal_iterator<unsigned short*, std::vector<unsigned short, std::allocator<unsigned short> > >, unsigned long, unsigned short const&)
FUNC 165f0 14d 0 std::vector<unsigned short, std::allocator<unsigned short> >::_M_default_append(unsigned long)
FUNC 16740 1f 0 google_breakpad::IsValidElf(void const*)
FUNC 16760 5 0 google_breakpad::ElfClass(void const*)
FUNC 16770 452 0 google_breakpad::FindElfSection(void const*, char const*, unsigned int, void const**, unsigned long*, int*)
FUNC 16bd0 287 0 google_breakpad::FindElfSegment(void const*, unsigned int, void const**, unsigned long*, int*)
FUNC 16e60 135 0 google_breakpad::bytes_to_hex_string
FUNC 16fa0 e2 0 google_breakpad::FileID::FileID(char const*)
FUNC 17090 c7 0 google_breakpad::FileID::ConvertIdentifierToUUIDString[abi:cxx11](google_breakpad::wasteful_vector<unsigned char> const&)
FUNC 17160 49 0 google_breakpad::FileID::ConvertIdentifierToString[abi:cxx11](google_breakpad::wasteful_vector<unsigned char> const&)
FUNC 171b0 462 0 google_breakpad::FileID::ElfFileIdentifierFromMappedFile(void const*, google_breakpad::wasteful_vector<unsigned char>&)
FUNC 17620 7c 0 google_breakpad::FileID::ElfFileIdentifier(google_breakpad::wasteful_vector<unsigned char>&)
FUNC 176a0 73 0 CreateGUID(MDGUID*)
FUNC 17720 75 0 GUIDToString(MDGUID const*, char*, int)
FUNC 177a0 16 0 GUIDGenerator::InitOnceImpl()
FUNC 177c0 1e 0 my_strlen
FUNC 177e0 46 0 my_strcmp
FUNC 17830 56 0 my_strncmp
FUNC 17890 4c 0 my_strtoui
FUNC 178e0 39 0 my_uint_len
FUNC 17920 3c 0 my_uitos
FUNC 17960 34 0 my_strchr
FUNC 179a0 26 0 my_strrchr
FUNC 179d0 34 0 my_memchr
FUNC 17a10 7c 0 my_read_hex_ptr
FUNC 17a90 3a 0 my_read_decimal_ptr
FUNC 17ad0 1f 0 my_memset
FUNC 17af0 38 0 my_strlcpy
FUNC 17b30 3b 0 my_strlcat
FUNC 17b70 6c 0 my_isspace
FUNC 17be0 10 0 google_breakpad::MemoryMappedFile::MemoryMappedFile()
FUNC 17bf0 4b 0 google_breakpad::MemoryMappedFile::Unmap()
FUNC 17c40 5 0 google_breakpad::MemoryMappedFile::~MemoryMappedFile()
FUNC 17c50 1af 0 google_breakpad::MemoryMappedFile::Map(char const*, unsigned long)
FUNC 17e00 14 0 google_breakpad::MemoryMappedFile::MemoryMappedFile(char const*, unsigned long)
FUNC 17e20 40 0 google_breakpad::SafeReadLink(char const*, char*, unsigned long)
FUNC 17e60 2 0 CrashGenerationClientImpl::~CrashGenerationClientImpl
FUNC 17e70 213 0 CrashGenerationClientImpl::RequestDump
FUNC 18090 5 0 CrashGenerationClientImpl::~CrashGenerationClientImpl
FUNC 180a0 23 0 google_breakpad::CrashGenerationClient::TryCreate(int)
FUNC 180d0 8 0 google_breakpad::ThreadInfo::GetInstructionPointer() const
FUNC 180e0 2fc 0 google_breakpad::ThreadInfo::FillCPUContext(MDRawContextAMD64*) const
FUNC 183e0 44 0 google_breakpad::ThreadInfo::GetGeneralPurposeRegisters(void**, unsigned long*)
FUNC 18430 47 0 google_breakpad::ThreadInfo::GetFloatingPointRegisters(void**, unsigned long*)
FUNC 18480 8 0 google_breakpad::UContextReader::GetStackPointer(ucontext const*)
FUNC 18490 8 0 google_breakpad::UContextReader::GetInstructionPointer(ucontext const*)
FUNC 184a0 25c 0 google_breakpad::UContextReader::FillCPUContext(MDRawContextAMD64*, ucontext const*, _libc_fpstate const*)
FUNC 18700 c7 0 isLegalUTF8
FUNC 187d0 fd 0 ConvertUTF32toUTF16
FUNC 188d0 118 0 ConvertUTF16toUTF32
FUNC 189f0 1ff 0 ConvertUTF16toUTF8
FUNC 18bf0 2b 0 isLegalUTF8Sequence
FUNC 18c20 26f 0 ConvertUTF8toUTF16
FUNC 18e90 19a 0 ConvertUTF32toUTF8
FUNC 19030 287 0 ConvertUTF8toUTF32
PUBLIC 1810 0 _init
PUBLIC 1c20 0 google_breakpad::PageAllocator::FreeAll() [clone .isra.7]
PUBLIC 1c6a 0 google_breakpad::ProcCpuInfoReader::GetValueAndLen(unsigned long*) [clone .isra.20] [clone .part.21]
PUBLIC 1c8a 0 google_breakpad::TypedMDRVA<MDRawDirectory>::CopyIndex(unsigned int, MDRawDirectory*) [clone .isra.32] [clone .part.33]
PUBLIC 1caa 0 google_breakpad::TypedMDRVA<MDRawDirectory>::CopyIndex(unsigned int, MDRawDirectory*) [clone .isra.32]
PUBLIC 1cc8 0 google_breakpad::TypedMDRVA<unsigned int>::CopyIndexAfterObject(unsigned int, void const*, unsigned long) [clone .isra.34] [clone .part.35]
PUBLIC 1ce8 0 (anonymous namespace)::MinidumpWriter::MinidumpWriter(char const*, int, google_breakpad::ExceptionHandler::CrashContext const*, std::__cxx11::list<google_breakpad::MappingEntry, std::allocator<google_breakpad::MappingEntry> > const&, std::__cxx11::list<google_breakpad::AppMemory, std::allocator<google_breakpad::AppMemory> > const&, google_breakpad::LinuxDumper*) [clone .part.93]
PUBLIC 1d08 0 (anonymous namespace)::MinidumpWriter::~MinidumpWriter() [clone .constprop.119]
PUBLIC 1d34 0 (anonymous namespace)::MinidumpWriter::WriteFile(MDLocationDescriptor*, char const*) [clone .constprop.116]
PUBLIC 1f20 0 (anonymous namespace)::MinidumpWriter::WriteProcFile(MDLocationDescriptor*, int, char const*) [clone .constprop.115]
PUBLIC 1f90 0 _start
PUBLIC 1fc0 0 deregister_tm_clones
PUBLIC 2000 0 register_tm_clones
PUBLIC 2040 0 __do_global_dtors_aux
PUBLIC 2060 0 frame_dummy
PUBLIC 2086 0 dumpCallback(google_breakpad::MinidumpDescriptor const&, void*, bool)
PUBLIC 20ce 0 _EQUAL()
PUBLIC 229a 0 _0()
PUBLIC 2466 0 _1()
PUBLIC 2632 0 _2()
PUBLIC 27fe 0 _3()
PUBLIC 29ca 0 _4()
PUBLIC 2b96 0 _5()
PUBLIC 2d62 0 _6()
PUBLIC 2f2e 0 _7()
PUBLIC 30fa 0 _8()
PUBLIC 32c6 0 _9()
PUBLIC 3492 0 _A()
PUBLIC 365e 0 _B()
PUBLIC 382a 0 _C()
PUBLIC 39f6 0 _D()
PUBLIC 3bc2 0 _E()
PUBLIC 3d8e 0 _F()
PUBLIC 3f5a 0 _G()
PUBLIC 4126 0 _H()
PUBLIC 42f2 0 _I()
PUBLIC 44be 0 _J()
PUBLIC 468a 0 _K()
PUBLIC 4856 0 _L()
PUBLIC 4a22 0 _M()
PUBLIC 4bee 0 _N()
PUBLIC 4dba 0 _O()
PUBLIC 4f86 0 _P()
PUBLIC 5152 0 _Q()
PUBLIC 531e 0 _R()
PUBLIC 54ea 0 _S()
PUBLIC 56b6 0 _T()
PUBLIC 5882 0 _U()
PUBLIC 5a4e 0 _V()
PUBLIC 5c1a 0 _W()
PUBLIC 5de6 0 _X()
PUBLIC 5fb2 0 _Y()
PUBLIC 617e 0 _Z()
PUBLIC 634a 0 _a()
PUBLIC 6516 0 _b()
PUBLIC 66e2 0 _c()
PUBLIC 68ae 0 _d()
PUBLIC 6a7a 0 _e()
PUBLIC 6c46 0 _f()
PUBLIC 6e12 0 _g()
PUBLIC 6fde 0 _h()
PUBLIC 71aa 0 _i()
PUBLIC 7376 0 _j()
PUBLIC 7542 0 _k()
PUBLIC 770e 0 _l()
PUBLIC 78da 0 _m()
PUBLIC 7aa6 0 _n()
PUBLIC 7c72 0 _o()
PUBLIC 7e3e 0 _p()
PUBLIC 800a 0 _q()
PUBLIC 81d6 0 _r()
PUBLIC 83a2 0 _s()
PUBLIC 856e 0 _t()
PUBLIC 873a 0 _u()
PUBLIC 8906 0 _v()
PUBLIC 8ad2 0 _w()
PUBLIC 8c9e 0 _x()
PUBLIC 8e6a 0 _y()
PUBLIC 9036 0 _z()
PUBLIC 9202 0 StartFlagProcessing()
PUBLIC 93ce 0 Execute()
PUBLIC 93d5 0 main
PUBLIC 9558 0 google_breakpad::MicrodumpExtraInfo::MicrodumpExtraInfo()
PUBLIC 9592 0 google_breakpad::MinidumpDescriptor::MinidumpDescriptor(std::__cxx11::basic_string<char, std::char_traits<char>, std::allocator<char> > const&)
PUBLIC 9632 0 google_breakpad::MinidumpDescriptor::path() const
PUBLIC 9644 0 google_breakpad::MinidumpDescriptor::~MinidumpDescriptor()
PUBLIC 9680 0 google_breakpad::ExceptionHandler::InstallHandlersLocked()
PUBLIC 97d0 0 google_breakpad::ExceptionHandler::RestoreHandlersLocked()
PUBLIC 9850 0 google_breakpad::ExceptionHandler::~ExceptionHandler()
PUBLIC 9ba0 0 google_breakpad::ExceptionHandler::SendContinueSignalToChild()
PUBLIC 9c80 0 google_breakpad::ExceptionHandler::GenerateDump(google_breakpad::ExceptionHandler::CrashContext*)
PUBLIC a140 0 google_breakpad::ExceptionHandler::HandleSignal(int, siginfo_t*, void*)
PUBLIC a320 0 google_breakpad::ExceptionHandler::SignalHandler(int, siginfo_t*, void*)
PUBLIC a4f0 0 google_breakpad::ExceptionHandler::SimulateSignalDelivery(int)
PUBLIC a570 0 google_breakpad::ExceptionHandler::WaitForContinueSignal()
PUBLIC a660 0 google_breakpad::ExceptionHandler::DoDump(int, void const*, unsigned long)
PUBLIC a6f0 0 google_breakpad::ExceptionHandler::ThreadEntry(void*)
PUBLIC a720 0 google_breakpad::ExceptionHandler::WriteMinidump()
PUBLIC a8c0 0 google_breakpad::ExceptionHandler::AddMappingInfo(std::__cxx11::basic_string<char, std::char_traits<char>, std::allocator<char> > const&, unsigned char const*, unsigned long, unsigned long, unsigned long)
PUBLIC a9b0 0 google_breakpad::ExceptionHandler::RegisterAppMemory(void*, unsigned long)
PUBLIC aa50 0 google_breakpad::ExceptionHandler::UnregisterAppMemory(void*)
PUBLIC aab0 0 google_breakpad::ExceptionHandler::WriteMinidumpForChild(int, int, std::__cxx11::basic_string<char, std::char_traits<char>, std::allocator<char> > const&, bool (*)(google_breakpad::MinidumpDescriptor const&, void*, bool), void*)
PUBLIC acf0 0 google_breakpad::ExceptionHandler::ExceptionHandler(google_breakpad::MinidumpDescriptor const&, bool (*)(void*), bool (*)(google_breakpad::MinidumpDescriptor const&, void*, bool), void*, bool, int)
PUBLIC b090 0 google_breakpad::ExceptionHandler::WriteMinidump(std::__cxx11::basic_string<char, std::char_traits<char>, std::allocator<char> > const&, bool (*)(google_breakpad::MinidumpDescriptor const&, void*, bool), void*)
PUBLIC b310 0 void std::vector<google_breakpad::ExceptionHandler*, std::allocator<google_breakpad::ExceptionHandler*> >::_M_emplace_back_aux<google_breakpad::ExceptionHandler*>(google_breakpad::ExceptionHandler*&&)
PUBLIC b400 0 void std::__cxx11::basic_string<char, std::char_traits<char>, std::allocator<char> >::_M_construct<char*>(char*, char*, std::forward_iterator_tag) [clone .isra.16]
PUBLIC b4d0 0 google_breakpad::MinidumpDescriptor::MinidumpDescriptor(google_breakpad::MinidumpDescriptor const&)
PUBLIC b580 0 google_breakpad::MinidumpDescriptor::UpdatePath()
PUBLIC b8a0 0 google_breakpad::MinidumpDescriptor::operator=(google_breakpad::MinidumpDescriptor const&)
PUBLIC b950 0 logger::write(char const*, unsigned long)
PUBLIC b990 0 google_breakpad::WriteMicrodump(int, void const*, unsigned long, std::__cxx11::list<google_breakpad::MappingEntry, std::allocator<google_breakpad::MappingEntry> > const&, google_breakpad::MicrodumpExtraInfo const&)
PUBLIC d450 0 void std::vector<unsigned char, google_breakpad::PageStdAllocator<unsigned char> >::_M_range_insert<unsigned char const*>(__gnu_cxx::__normal_iterator<unsigned char*, std::vector<unsigned char, google_breakpad::PageStdAllocator<unsigned char> > >, unsigned char const*, unsigned char const*, std::forward_iterator_tag)
PUBLIC d840 0 google_breakpad::LinuxDumper::LateInit()
PUBLIC d850 0 google_breakpad::LinuxDumper::LinuxDumper(int, char const*)
PUBLIC e090 0 google_breakpad::LinuxDumper::~LinuxDumper()
PUBLIC e100 0 google_breakpad::LinuxDumper::~LinuxDumper()
PUBLIC e120 0 google_breakpad::LinuxDumper::GetMappingAbsolutePath(google_breakpad::MappingInfo const&, char*) const
PUBLIC e170 0 google_breakpad::(anonymous namespace)::ElfFileSoName(google_breakpad::LinuxDumper const&, google_breakpad::MappingInfo const&, char*, unsigned long) [clone .constprop.56]
PUBLIC e310 0 google_breakpad::LinuxDumper::HandleDeletedFileInMapping(char*) const [clone .part.10] [clone .constprop.57]
PUBLIC e4c0 0 google_breakpad::LinuxDumper::GetMappingEffectiveNameAndPath(google_breakpad::MappingInfo const&, char*, unsigned long, char*, unsigned long)
PUBLIC e5b0 0 google_breakpad::LinuxDumper::ReadAuxv()
PUBLIC e6d0 0 google_breakpad::LinuxDumper::Init()
PUBLIC e710 0 google_breakpad::LinuxDumper::FindMapping(void const*) const
PUBLIC e760 0 google_breakpad::LinuxDumper::GetStackInfo(void const**, unsigned long*, unsigned long)
PUBLIC e7e0 0 google_breakpad::LinuxDumper::HandleDeletedFileInMapping(char*) const
PUBLIC e840 0 google_breakpad::LinuxDumper::ElfFileIdentifierForMapping(google_breakpad::MappingInfo const&, bool, unsigned int, google_breakpad::wasteful_vector<unsigned char>&)
PUBLIC eb90 0 google_breakpad::LinuxDumper::EnumerateMappings()
PUBLIC f4c0 0 google_breakpad::PageAllocator::Alloc(unsigned long)
PUBLIC f610 0 std::vector<google_breakpad::MappingInfo*, google_breakpad::PageStdAllocator<google_breakpad::MappingInfo*> >::_M_default_append(unsigned long)
PUBLIC f8a0 0 google_breakpad::LinuxPtraceDumper::IsPostMortem() const
PUBLIC f8b0 0 google_breakpad::LinuxPtraceDumper::CopyFromProcess(void*, int, void const*, unsigned long)
PUBLIC fa40 0 google_breakpad::LinuxPtraceDumper::BuildProcPath(char*, int, char const*) const
PUBLIC fb00 0 google_breakpad::LinuxPtraceDumper::ThreadsResume()
PUBLIC fbc0 0 google_breakpad::LinuxPtraceDumper::EnumerateThreads()
PUBLIC 101c0 0 google_breakpad::LinuxPtraceDumper::GetThreadInfoByIndex(unsigned long, google_breakpad::ThreadInfo*)
PUBLIC 106e0 0 google_breakpad::LinuxPtraceDumper::LinuxPtraceDumper(int)
PUBLIC 10710 0 google_breakpad::LinuxPtraceDumper::ThreadsSuspend()
PUBLIC 10970 0 google_breakpad::LinuxPtraceDumper::~LinuxPtraceDumper()
PUBLIC 10990 0 google_breakpad::LinuxPtraceDumper::~LinuxPtraceDumper()
PUBLIC 109b0 0 std::vector<int, google_breakpad::PageStdAllocator<int> >::_M_default_append(unsigned long)
PUBLIC 10c40 0 (anonymous namespace)::MinidumpWriter::WriteThreadListStream(MDRawDirectory*) [clone .constprop.105]
PUBLIC 11a50 0 (anonymous namespace)::MinidumpWriter::Dump() [clone .constprop.104]
PUBLIC 13c30 0 google_breakpad::WriteMinidump(char const*, std::__cxx11::list<google_breakpad::MappingEntry, std::allocator<google_breakpad::MappingEntry> > const&, std::__cxx11::list<google_breakpad::AppMemory, std::allocator<google_breakpad::AppMemory> > const&, google_breakpad::LinuxDumper*)
PUBLIC 13f80 0 google_breakpad::WriteMinidump(char const*, int, int)
PUBLIC 14420 0 (anonymous namespace)::WriteMinidumpImpl(char const*, int, long, int, void const*, unsigned long, std::__cxx11::list<google_breakpad::MappingEntry, std::allocator<google_breakpad::MappingEntry> > const&, std::__cxx11::list<google_breakpad::AppMemory, std::allocator<google_breakpad::AppMemory> > const&)
PUBLIC 14850 0 google_breakpad::WriteMinidump(char const*, int, void const*, unsigned long)
PUBLIC 14960 0 google_breakpad::WriteMinidump(int, int, void const*, unsigned long)
PUBLIC 14a70 0 google_breakpad::WriteMinidump(char const*, int, void const*, unsigned long, std::__cxx11::list<google_breakpad::MappingEntry, std::allocator<google_breakpad::MappingEntry> > const&, std::__cxx11::list<google_breakpad::AppMemory, std::allocator<google_breakpad::AppMemory> > const&)
PUBLIC 14aa0 0 google_breakpad::WriteMinidump(int, int, void const*, unsigned long, std::__cxx11::list<google_breakpad::MappingEntry, std::allocator<google_breakpad::MappingEntry> > const&, std::__cxx11::list<google_breakpad::AppMemory, std::allocator<google_breakpad::AppMemory> > const&)
PUBLIC 14ad0 0 google_breakpad::WriteMinidump(char const*, long, int, void const*, unsigned long, std::__cxx11::list<google_breakpad::MappingEntry, std::allocator<google_breakpad::MappingEntry> > const&, std::__cxx11::list<google_breakpad::AppMemory, std::allocator<google_breakpad::AppMemory> > const&)
PUBLIC 14b00 0 google_breakpad::WriteMinidump(int, long, int, void const*, unsigned long, std::__cxx11::list<google_breakpad::MappingEntry, std::allocator<google_breakpad::MappingEntry> > const&, std::__cxx11::list<google_breakpad::AppMemory, std::allocator<google_breakpad::AppMemory> > const&)
PUBLIC 14b30 0 google_breakpad::ProcCpuInfoReader::GetNextField(char const**)
PUBLIC 14d90 0 std::vector<char, google_breakpad::PageStdAllocator<char> >::resize(unsigned long)
PUBLIC 14ff0 0 void std::vector<MDMemoryDescriptor, google_breakpad::PageStdAllocator<MDMemoryDescriptor> >::_M_emplace_back_aux<MDMemoryDescriptor const&>(MDMemoryDescriptor const&)
PUBLIC 15240 0 google_breakpad::TypedMDRVA<MDString>::CopyIndexAfterObject(unsigned int, void const*, unsigned long) [clone .isra.7] [clone .part.8]
PUBLIC 15270 0 google_breakpad::MinidumpFileWriter::MinidumpFileWriter()
PUBLIC 15290 0 google_breakpad::MinidumpFileWriter::Open(char const*)
PUBLIC 15310 0 google_breakpad::MinidumpFileWriter::SetFile(int)
PUBLIC 15340 0 google_breakpad::MinidumpFileWriter::Close()
PUBLIC 153a0 0 google_breakpad::MinidumpFileWriter::~MinidumpFileWriter()
PUBLIC 153c0 0 google_breakpad::MinidumpFileWriter::Allocate(unsigned long)
PUBLIC 15480 0 google_breakpad::MinidumpFileWriter::Copy(unsigned int, void const*, long)
PUBLIC 15580 0 google_breakpad::MinidumpFileWriter::CopyStringToMDString(wchar_t const*, unsigned int, google_breakpad::TypedMDRVA<MDString>*)
PUBLIC 15670 0 google_breakpad::MinidumpFileWriter::CopyStringToMDString(char const*, unsigned int, google_breakpad::TypedMDRVA<MDString>*)
PUBLIC 15760 0 google_breakpad::UntypedMDRVA::Allocate(unsigned long)
PUBLIC 157b0 0 google_breakpad::UntypedMDRVA::Copy(unsigned int, void const*, unsigned long)
PUBLIC 15840 0 google_breakpad::MinidumpFileWriter::WriteMemory(void const*, unsigned long, MDMemoryDescriptor*)
PUBLIC 15920 0 google_breakpad::MinidumpFileWriter::WriteString(wchar_t const*, unsigned int, MDLocationDescriptor*)
PUBLIC 15930 0 google_breakpad::MinidumpFileWriter::WriteString(char const*, unsigned int, MDLocationDescriptor*)
PUBLIC 15940 0 bool google_breakpad::MinidumpFileWriter::WriteStringCore<wchar_t>(wchar_t const*, unsigned int, MDLocationDescriptor*)
PUBLIC 15b80 0 bool google_breakpad::MinidumpFileWriter::WriteStringCore<char>(char const*, unsigned int, MDLocationDescriptor*)
PUBLIC 15dc0 0 void std::__cxx11::basic_string<char, std::char_traits<char>, std::allocator<char> >::_M_construct<char const*>(char const*, char const*, std::forward_iterator_tag) [clone .isra.34]
PUBLIC 15e90 0 google_breakpad::UTF8ToUTF16Char(char const*, int, unsigned short*)
PUBLIC 15f50 0 google_breakpad::UTF32ToUTF16Char(wchar_t, unsigned short*)
PUBLIC 15fd0 0 google_breakpad::UTF16ToUTF8[abi:cxx11](std::vector<unsigned short, std::allocator<unsigned short> > const&, bool)
PUBLIC 16150 0 google_breakpad::UTF32ToUTF16(wchar_t const*, std::vector<unsigned short, std::allocator<unsigned short> >*)
PUBLIC 16240 0 google_breakpad::UTF8ToUTF16(char const*, std::vector<unsigned short, std::allocator<unsigned short> >*)
PUBLIC 16330 0 std::vector<unsigned short, std::allocator<unsigned short> >::_M_fill_insert(__gnu_cxx::__normal_iterator<unsigned short*, std::vector<unsigned short, std::allocator<unsigned short> > >, unsigned long, unsigned short const&)
PUBLIC 165f0 0 std::vector<unsigned short, std::allocator<unsigned short> >::_M_default_append(unsigned long)
PUBLIC 16740 0 google_breakpad::IsValidElf(void const*)
PUBLIC 16760 0 google_breakpad::ElfClass(void const*)
PUBLIC 16770 0 google_breakpad::FindElfSection(void const*, char const*, unsigned int, void const**, unsigned long*, int*)
PUBLIC 16bd0 0 google_breakpad::FindElfSegment(void const*, unsigned int, void const**, unsigned long*, int*)
PUBLIC 16e60 0 google_breakpad::bytes_to_hex_string(unsigned char const*, unsigned long)
PUBLIC 16fa0 0 google_breakpad::FileID::FileID(char const*)
PUBLIC 17090 0 google_breakpad::FileID::ConvertIdentifierToUUIDString[abi:cxx11](google_breakpad::wasteful_vector<unsigned char> const&)
PUBLIC 17160 0 google_breakpad::FileID::ConvertIdentifierToString[abi:cxx11](google_breakpad::wasteful_vector<unsigned char> const&)
PUBLIC 171b0 0 google_breakpad::FileID::ElfFileIdentifierFromMappedFile(void const*, google_breakpad::wasteful_vector<unsigned char>&)
PUBLIC 17620 0 google_breakpad::FileID::ElfFileIdentifier(google_breakpad::wasteful_vector<unsigned char>&)
PUBLIC 176a0 0 CreateGUID(MDGUID*)
PUBLIC 17720 0 GUIDToString(MDGUID const*, char*, int)
PUBLIC 177a0 0 GUIDGenerator::InitOnceImpl()
PUBLIC 177c0 0 my_strlen
PUBLIC 177e0 0 my_strcmp
PUBLIC 17830 0 my_strncmp
PUBLIC 17890 0 my_strtoui
PUBLIC 178e0 0 my_uint_len
PUBLIC 17920 0 my_uitos
PUBLIC 17960 0 my_strchr
PUBLIC 179a0 0 my_strrchr
PUBLIC 179d0 0 my_memchr
PUBLIC 17a10 0 my_read_hex_ptr
PUBLIC 17a90 0 my_read_decimal_ptr
PUBLIC 17ad0 0 my_memset
PUBLIC 17af0 0 my_strlcpy
PUBLIC 17b30 0 my_strlcat
PUBLIC 17b70 0 my_isspace
PUBLIC 17be0 0 google_breakpad::MemoryMappedFile::MemoryMappedFile()
PUBLIC 17bf0 0 google_breakpad::MemoryMappedFile::Unmap()
PUBLIC 17c40 0 google_breakpad::MemoryMappedFile::~MemoryMappedFile()
PUBLIC 17c50 0 google_breakpad::MemoryMappedFile::Map(char const*, unsigned long)
PUBLIC 17e00 0 google_breakpad::MemoryMappedFile::MemoryMappedFile(char const*, unsigned long)
PUBLIC 17e20 0 google_breakpad::SafeReadLink(char const*, char*, unsigned long)
PUBLIC 17e60 0 google_breakpad::(anonymous namespace)::CrashGenerationClientImpl::~CrashGenerationClientImpl()
PUBLIC 17e70 0 google_breakpad::(anonymous namespace)::CrashGenerationClientImpl::RequestDump(void const*, unsigned long)
PUBLIC 18090 0 google_breakpad::(anonymous namespace)::CrashGenerationClientImpl::~CrashGenerationClientImpl()
PUBLIC 180a0 0 google_breakpad::CrashGenerationClient::TryCreate(int)
PUBLIC 180d0 0 google_breakpad::ThreadInfo::GetInstructionPointer() const
PUBLIC 180e0 0 google_breakpad::ThreadInfo::FillCPUContext(MDRawContextAMD64*) const
PUBLIC 183e0 0 google_breakpad::ThreadInfo::GetGeneralPurposeRegisters(void**, unsigned long*)
PUBLIC 18430 0 google_breakpad::ThreadInfo::GetFloatingPointRegisters(void**, unsigned long*)
PUBLIC 18480 0 google_breakpad::UContextReader::GetStackPointer(ucontext const*)
PUBLIC 18490 0 google_breakpad::UContextReader::GetInstructionPointer(ucontext const*)
PUBLIC 184a0 0 google_breakpad::UContextReader::FillCPUContext(MDRawContextAMD64*, ucontext const*, _libc_fpstate const*)
PUBLIC 18700 0 isLegalUTF8
PUBLIC 187d0 0 ConvertUTF32toUTF16
PUBLIC 188d0 0 ConvertUTF16toUTF32
PUBLIC 189f0 0 ConvertUTF16toUTF8
PUBLIC 18bf0 0 isLegalUTF8Sequence
PUBLIC 18c20 0 ConvertUTF8toUTF16
PUBLIC 18e90 0 ConvertUTF32toUTF8
PUBLIC 19030 0 ConvertUTF8toUTF32
PUBLIC 192c0 0 __libc_csu_init
PUBLIC 19330 0 __libc_csu_fini
PUBLIC 19334 0 _fini
STACK CFI INIT 1f90 2a .cfa: $rsp 8 + .ra: .cfa -8 + ^
STACK CFI INIT 1830 3e0 .cfa: $rsp 16 + .ra: .cfa -8 + ^
STACK CFI 1836 .cfa: $rsp 24 +
STACK CFI INIT 9558 3a .cfa: $rsp 8 + .ra: .cfa -8 + ^
STACK CFI 9559 $rbp: .cfa -16 + ^ .cfa: $rsp 16 +
STACK CFI 955c .cfa: $rbp 16 +
STACK CFI 9591 .cfa: $rsp 8 +
STACK CFI INIT 9592 a0 .cfa: $rsp 8 + .ra: .cfa -8 + ^
STACK CFI 9593 $rbp: .cfa -16 + ^ .cfa: $rsp 16 +
STACK CFI 9596 .cfa: $rbp 16 +
STACK CFI 9631 .cfa: $rsp 8 +
STACK CFI INIT 9632 12 .cfa: $rsp 8 + .ra: .cfa -8 + ^
STACK CFI 9633 $rbp: .cfa -16 + ^ .cfa: $rsp 16 +
STACK CFI 9636 .cfa: $rbp 16 +
STACK CFI 9643 .cfa: $rsp 8 +
STACK CFI INIT 2086 48 .cfa: $rsp 8 + .ra: .cfa -8 + ^
STACK CFI 2087 $rbp: .cfa -16 + ^ .cfa: $rsp 16 +
STACK CFI 208a .cfa: $rbp 16 +
STACK CFI 20cd .cfa: $rsp 8 +
STACK CFI INIT 20ce 1cc .cfa: $rsp 8 + .ra: .cfa -8 + ^
STACK CFI 20cf $rbp: .cfa -16 + ^ .cfa: $rsp 16 +
STACK CFI 20d2 .cfa: $rbp 16 +
STACK CFI 2299 .cfa: $rsp 8 +
STACK CFI INIT 229a 1cc .cfa: $rsp 8 + .ra: .cfa -8 + ^
STACK CFI 229b $rbp: .cfa -16 + ^ .cfa: $rsp 16 +
STACK CFI 229e .cfa: $rbp 16 +
STACK CFI 2465 .cfa: $rsp 8 +
STACK CFI INIT 2466 1cc .cfa: $rsp 8 + .ra: .cfa -8 + ^
STACK CFI 2467 $rbp: .cfa -16 + ^ .cfa: $rsp 16 +
STACK CFI 246a .cfa: $rbp 16 +
STACK CFI 2631 .cfa: $rsp 8 +
STACK CFI INIT 2632 1cc .cfa: $rsp 8 + .ra: .cfa -8 + ^
STACK CFI 2633 $rbp: .cfa -16 + ^ .cfa: $rsp 16 +
STACK CFI 2636 .cfa: $rbp 16 +
STACK CFI 27fd .cfa: $rsp 8 +
STACK CFI INIT 27fe 1cc .cfa: $rsp 8 + .ra: .cfa -8 + ^
STACK CFI 27ff $rbp: .cfa -16 + ^ .cfa: $rsp 16 +
STACK CFI 2802 .cfa: $rbp 16 +
STACK CFI 29c9 .cfa: $rsp 8 +
STACK CFI INIT 29ca 1cc .cfa: $rsp 8 + .ra: .cfa -8 + ^
STACK CFI 29cb $rbp: .cfa -16 + ^ .cfa: $rsp 16 +
STACK CFI 29ce .cfa: $rbp 16 +
STACK CFI 2b95 .cfa: $rsp 8 +
STACK CFI INIT 2b96 1cc .cfa: $rsp 8 + .ra: .cfa -8 + ^
STACK CFI 2b97 $rbp: .cfa -16 + ^ .cfa: $rsp 16 +
STACK CFI 2b9a .cfa: $rbp 16 +
STACK CFI 2d61 .cfa: $rsp 8 +
STACK CFI INIT 2d62 1cc .cfa: $rsp 8 + .ra: .cfa -8 + ^
STACK CFI 2d63 $rbp: .cfa -16 + ^ .cfa: $rsp 16 +
STACK CFI 2d66 .cfa: $rbp 16 +
STACK CFI 2f2d .cfa: $rsp 8 +
STACK CFI INIT 2f2e 1cc .cfa: $rsp 8 + .ra: .cfa -8 + ^
STACK CFI 2f2f $rbp: .cfa -16 + ^ .cfa: $rsp 16 +
STACK CFI 2f32 .cfa: $rbp 16 +
STACK CFI 30f9 .cfa: $rsp 8 +
STACK CFI INIT 30fa 1cc .cfa: $rsp 8 + .ra: .cfa -8 + ^
STACK CFI 30fb $rbp: .cfa -16 + ^ .cfa: $rsp 16 +
STACK CFI 30fe .cfa: $rbp 16 +
STACK CFI 32c5 .cfa: $rsp 8 +
STACK CFI INIT 32c6 1cc .cfa: $rsp 8 + .ra: .cfa -8 + ^
STACK CFI 32c7 $rbp: .cfa -16 + ^ .cfa: $rsp 16 +
STACK CFI 32ca .cfa: $rbp 16 +
STACK CFI 3491 .cfa: $rsp 8 +
STACK CFI INIT 3492 1cc .cfa: $rsp 8 + .ra: .cfa -8 + ^
STACK CFI 3493 $rbp: .cfa -16 + ^ .cfa: $rsp 16 +
STACK CFI 3496 .cfa: $rbp 16 +
STACK CFI 365d .cfa: $rsp 8 +
STACK CFI INIT 365e 1cc .cfa: $rsp 8 + .ra: .cfa -8 + ^
STACK CFI 365f $rbp: .cfa -16 + ^ .cfa: $rsp 16 +
STACK CFI 3662 .cfa: $rbp 16 +
STACK CFI 3829 .cfa: $rsp 8 +
STACK CFI INIT 382a 1cc .cfa: $rsp 8 + .ra: .cfa -8 + ^
STACK CFI 382b $rbp: .cfa -16 + ^ .cfa: $rsp 16 +
STACK CFI 382e .cfa: $rbp 16 +
STACK CFI 39f5 .cfa: $rsp 8 +
STACK CFI INIT 39f6 1cc .cfa: $rsp 8 + .ra: .cfa -8 + ^
STACK CFI 39f7 $rbp: .cfa -16 + ^ .cfa: $rsp 16 +
STACK CFI 39fa .cfa: $rbp 16 +
STACK CFI 3bc1 .cfa: $rsp 8 +
STACK CFI INIT 3bc2 1cc .cfa: $rsp 8 + .ra: .cfa -8 + ^
STACK CFI 3bc3 $rbp: .cfa -16 + ^ .cfa: $rsp 16 +
STACK CFI 3bc6 .cfa: $rbp 16 +
STACK CFI 3d8d .cfa: $rsp 8 +
STACK CFI INIT 3d8e 1cc .cfa: $rsp 8 + .ra: .cfa -8 + ^
STACK CFI 3d8f $rbp: .cfa -16 + ^ .cfa: $rsp 16 +
STACK CFI 3d92 .cfa: $rbp 16 +
STACK CFI 3f59 .cfa: $rsp 8 +
STACK CFI INIT 3f5a 1cc .cfa: $rsp 8 + .ra: .cfa -8 + ^
STACK CFI 3f5b $rbp: .cfa -16 + ^ .cfa: $rsp 16 +
STACK CFI 3f5e .cfa: $rbp 16 +
STACK CFI 4125 .cfa: $rsp 8 +
STACK CFI INIT 4126 1cc .cfa: $rsp 8 + .ra: .cfa -8 + ^
STACK CFI 4127 $rbp: .cfa -16 + ^ .cfa: $rsp 16 +
STACK CFI 412a .cfa: $rbp 16 +
STACK CFI 42f1 .cfa: $rsp 8 +
STACK CFI INIT 42f2 1cc .cfa: $rsp 8 + .ra: .cfa -8 + ^
STACK CFI 42f3 $rbp: .cfa -16 + ^ .cfa: $rsp 16 +
STACK CFI 42f6 .cfa: $rbp 16 +
STACK CFI 44bd .cfa: $rsp 8 +
STACK CFI INIT 44be 1cc .cfa: $rsp 8 + .ra: .cfa -8 + ^
STACK CFI 44bf $rbp: .cfa -16 + ^ .cfa: $rsp 16 +
STACK CFI 44c2 .cfa: $rbp 16 +
STACK CFI 4689 .cfa: $rsp 8 +
STACK CFI INIT 468a 1cc .cfa: $rsp 8 + .ra: .cfa -8 + ^
STACK CFI 468b $rbp: .cfa -16 + ^ .cfa: $rsp 16 +
STACK CFI 468e .cfa: $rbp 16 +
STACK CFI 4855 .cfa: $rsp 8 +
STACK CFI INIT 4856 1cc .cfa: $rsp 8 + .ra: .cfa -8 + ^
STACK CFI 4857 $rbp: .cfa -16 + ^ .cfa: $rsp 16 +
STACK CFI 485a .cfa: $rbp 16 +
STACK CFI 4a21 .cfa: $rsp 8 +
STACK CFI INIT 4a22 1cc .cfa: $rsp 8 + .ra: .cfa -8 + ^
STACK CFI 4a23 $rbp: .cfa -16 + ^ .cfa: $rsp 16 +
STACK CFI 4a26 .cfa: $rbp 16 +
STACK CFI 4bed .cfa: $rsp 8 +
STACK CFI INIT 4bee 1cc .cfa: $rsp 8 + .ra: .cfa -8 + ^
STACK CFI 4bef $rbp: .cfa -16 + ^ .cfa: $rsp 16 +
STACK CFI 4bf2 .cfa: $rbp 16 +
STACK CFI 4db9 .cfa: $rsp 8 +
STACK CFI INIT 4dba 1cc .cfa: $rsp 8 + .ra: .cfa -8 + ^
STACK CFI 4dbb $rbp: .cfa -16 + ^ .cfa: $rsp 16 +
STACK CFI 4dbe .cfa: $rbp 16 +
STACK CFI 4f85 .cfa: $rsp 8 +
STACK CFI INIT 4f86 1cc .cfa: $rsp 8 + .ra: .cfa -8 + ^
STACK CFI 4f87 $rbp: .cfa -16 + ^ .cfa: $rsp 16 +
STACK CFI 4f8a .cfa: $rbp 16 +
STACK CFI 5151 .cfa: $rsp 8 +
STACK CFI INIT 5152 1cc .cfa: $rsp 8 + .ra: .cfa -8 + ^
STACK CFI 5153 $rbp: .cfa -16 + ^ .cfa: $rsp 16 +
STACK CFI 5156 .cfa: $rbp 16 +
STACK CFI 531d .cfa: $rsp 8 +
STACK CFI INIT 531e 1cc .cfa: $rsp 8 + .ra: .cfa -8 + ^
STACK CFI 531f $rbp: .cfa -16 + ^ .cfa: $rsp 16 +
STACK CFI 5322 .cfa: $rbp 16 +
STACK CFI 54e9 .cfa: $rsp 8 +
STACK CFI INIT 54ea 1cc .cfa: $rsp 8 + .ra: .cfa -8 + ^
STACK CFI 54eb $rbp: .cfa -16 + ^ .cfa: $rsp 16 +
STACK CFI 54ee .cfa: $rbp 16 +
STACK CFI 56b5 .cfa: $rsp 8 +
STACK CFI INIT 56b6 1cc .cfa: $rsp 8 + .ra: .cfa -8 + ^
STACK CFI 56b7 $rbp: .cfa -16 + ^ .cfa: $rsp 16 +
STACK CFI 56ba .cfa: $rbp 16 +
STACK CFI 5881 .cfa: $rsp 8 +
STACK CFI INIT 5882 1cc .cfa: $rsp 8 + .ra: .cfa -8 + ^
STACK CFI 5883 $rbp: .cfa -16 + ^ .cfa: $rsp 16 +
STACK CFI 5886 .cfa: $rbp 16 +
STACK CFI 5a4d .cfa: $rsp 8 +
STACK CFI INIT 5a4e 1cc .cfa: $rsp 8 + .ra: .cfa -8 + ^
STACK CFI 5a4f $rbp: .cfa -16 + ^ .cfa: $rsp 16 +
STACK CFI 5a52 .cfa: $rbp 16 +
STACK CFI 5c19 .cfa: $rsp 8 +
STACK CFI INIT 5c1a 1cc .cfa: $rsp 8 + .ra: .cfa -8 + ^
STACK CFI 5c1b $rbp: .cfa -16 + ^ .cfa: $rsp 16 +
STACK CFI 5c1e .cfa: $rbp 16 +
STACK CFI 5de5 .cfa: $rsp 8 +
STACK CFI INIT 5de6 1cc .cfa: $rsp 8 + .ra: .cfa -8 + ^
STACK CFI 5de7 $rbp: .cfa -16 + ^ .cfa: $rsp 16 +
STACK CFI 5dea .cfa: $rbp 16 +
STACK CFI 5fb1 .cfa: $rsp 8 +
STACK CFI INIT 5fb2 1cc .cfa: $rsp 8 + .ra: .cfa -8 + ^
STACK CFI 5fb3 $rbp: .cfa -16 + ^ .cfa: $rsp 16 +
STACK CFI 5fb6 .cfa: $rbp 16 +
STACK CFI 617d .cfa: $rsp 8 +
STACK CFI INIT 617e 1cc .cfa: $rsp 8 + .ra: .cfa -8 + ^
STACK CFI 617f $rbp: .cfa -16 + ^ .cfa: $rsp 16 +
STACK CFI 6182 .cfa: $rbp 16 +
STACK CFI 6349 .cfa: $rsp 8 +
STACK CFI INIT 634a 1cc .cfa: $rsp 8 + .ra: .cfa -8 + ^
STACK CFI 634b $rbp: .cfa -16 + ^ .cfa: $rsp 16 +
STACK CFI 634e .cfa: $rbp 16 +
STACK CFI 6515 .cfa: $rsp 8 +
STACK CFI INIT 6516 1cc .cfa: $rsp 8 + .ra: .cfa -8 + ^
STACK CFI 6517 $rbp: .cfa -16 + ^ .cfa: $rsp 16 +
STACK CFI 651a .cfa: $rbp 16 +
STACK CFI 66e1 .cfa: $rsp 8 +
STACK CFI INIT 66e2 1cc .cfa: $rsp 8 + .ra: .cfa -8 + ^
STACK CFI 66e3 $rbp: .cfa -16 + ^ .cfa: $rsp 16 +
STACK CFI 66e6 .cfa: $rbp 16 +
STACK CFI 68ad .cfa: $rsp 8 +
STACK CFI INIT 68ae 1cc .cfa: $rsp 8 + .ra: .cfa -8 + ^
STACK CFI 68af $rbp: .cfa -16 + ^ .cfa: $rsp 16 +
STACK CFI 68b2 .cfa: $rbp 16 +
STACK CFI 6a79 .cfa: $rsp 8 +
STACK CFI INIT 6a7a 1cc .cfa: $rsp 8 + .ra: .cfa -8 + ^
STACK CFI 6a7b $rbp: .cfa -16 + ^ .cfa: $rsp 16 +
STACK CFI 6a7e .cfa: $rbp 16 +
STACK CFI 6c45 .cfa: $rsp 8 +
STACK CFI INIT 6c46 1cc .cfa: $rsp 8 + .ra: .cfa -8 + ^
STACK CFI 6c47 $rbp: .cfa -16 + ^ .cfa: $rsp 16 +
STACK CFI 6c4a .cfa: $rbp 16 +
STACK CFI 6e11 .cfa: $rsp 8 +
STACK CFI INIT 6e12 1cc .cfa: $rsp 8 + .ra: .cfa -8 + ^
STACK CFI 6e13 $rbp: .cfa -16 + ^ .cfa: $rsp 16 +
STACK CFI 6e16 .cfa: $rbp 16 +
STACK CFI 6fdd .cfa: $rsp 8 +
STACK CFI INIT 6fde 1cc .cfa: $rsp 8 + .ra: .cfa -8 + ^
STACK CFI 6fdf $rbp: .cfa -16 + ^ .cfa: $rsp 16 +
STACK CFI 6fe2 .cfa: $rbp 16 +
STACK CFI 71a9 .cfa: $rsp 8 +
STACK CFI INIT 71aa 1cc .cfa: $rsp 8 + .ra: .cfa -8 + ^
STACK CFI 71ab $rbp: .cfa -16 + ^ .cfa: $rsp 16 +
STACK CFI 71ae .cfa: $rbp 16 +
STACK CFI 7375 .cfa: $rsp 8 +
STACK CFI INIT 7376 1cc .cfa: $rsp 8 + .ra: .cfa -8 + ^
STACK CFI 7377 $rbp: .cfa -16 + ^ .cfa: $rsp 16 +
STACK CFI 737a .cfa: $rbp 16 +
STACK CFI 7541 .cfa: $rsp 8 +
STACK CFI INIT 7542 1cc .cfa: $rsp 8 + .ra: .cfa -8 + ^
STACK CFI 7543 $rbp: .cfa -16 + ^ .cfa: $rsp 16 +
STACK CFI 7546 .cfa: $rbp 16 +
STACK CFI 770d .cfa: $rsp 8 +
STACK CFI INIT 770e 1cc .cfa: $rsp 8 + .ra: .cfa -8 + ^
STACK CFI 770f $rbp: .cfa -16 + ^ .cfa: $rsp 16 +
STACK CFI 7712 .cfa: $rbp 16 +
STACK CFI 78d9 .cfa: $rsp 8 +
STACK CFI INIT 78da 1cc .cfa: $rsp 8 + .ra: .cfa -8 + ^
STACK CFI 78db $rbp: .cfa -16 + ^ .cfa: $rsp 16 +
STACK CFI 78de .cfa: $rbp 16 +
STACK CFI 7aa5 .cfa: $rsp 8 +
STACK CFI INIT 7aa6 1cc .cfa: $rsp 8 + .ra: .cfa -8 + ^
STACK CFI 7aa7 $rbp: .cfa -16 + ^ .cfa: $rsp 16 +
STACK CFI 7aaa .cfa: $rbp 16 +
STACK CFI 7c71 .cfa: $rsp 8 +
STACK CFI INIT 7c72 1cc .cfa: $rsp 8 + .ra: .cfa -8 + ^
STACK CFI 7c73 $rbp: .cfa -16 + ^ .cfa: $rsp 16 +
STACK CFI 7c76 .cfa: $rbp 16 +
STACK CFI 7e3d .cfa: $rsp 8 +
STACK CFI INIT 7e3e 1cc .cfa: $rsp 8 + .ra: .cfa -8 + ^
STACK CFI 7e3f $rbp: .cfa -16 + ^ .cfa: $rsp 16 +
STACK CFI 7e42 .cfa: $rbp 16 +
STACK CFI 8009 .cfa: $rsp 8 +
STACK CFI INIT 800a 1cc .cfa: $rsp 8 + .ra: .cfa -8 + ^
STACK CFI 800b $rbp: .cfa -16 + ^ .cfa: $rsp 16 +
STACK CFI 800e .cfa: $rbp 16 +
STACK CFI 81d5 .cfa: $rsp 8 +
STACK CFI INIT 81d6 1cc .cfa: $rsp 8 + .ra: .cfa -8 + ^
STACK CFI 81d7 $rbp: .cfa -16 + ^ .cfa: $rsp 16 +
STACK CFI 81da .cfa: $rbp 16 +
STACK CFI 83a1 .cfa: $rsp 8 +
STACK CFI INIT 83a2 1cc .cfa: $rsp 8 + .ra: .cfa -8 + ^
STACK CFI 83a3 $rbp: .cfa -16 + ^ .cfa: $rsp 16 +
STACK CFI 83a6 .cfa: $rbp 16 +
STACK CFI 856d .cfa: $rsp 8 +
STACK CFI INIT 856e 1cc .cfa: $rsp 8 + .ra: .cfa -8 + ^
STACK CFI 856f $rbp: .cfa -16 + ^ .cfa: $rsp 16 +
STACK CFI 8572 .cfa: $rbp 16 +
STACK CFI 8739 .cfa: $rsp 8 +
STACK CFI INIT 873a 1cc .cfa: $rsp 8 + .ra: .cfa -8 + ^
STACK CFI 873b $rbp: .cfa -16 + ^ .cfa: $rsp 16 +
STACK CFI 873e .cfa: $rbp 16 +
STACK CFI 8905 .cfa: $rsp 8 +
STACK CFI INIT 8906 1cc .cfa: $rsp 8 + .ra: .cfa -8 + ^
STACK CFI 8907 $rbp: .cfa -16 + ^ .cfa: $rsp 16 +
STACK CFI 890a .cfa: $rbp 16 +
STACK CFI 8ad1 .cfa: $rsp 8 +
STACK CFI INIT 8ad2 1cc .cfa: $rsp 8 + .ra: .cfa -8 + ^
STACK CFI 8ad3 $rbp: .cfa -16 + ^ .cfa: $rsp 16 +
STACK CFI 8ad6 .cfa: $rbp 16 +
STACK CFI 8c9d .cfa: $rsp 8 +
STACK CFI INIT 8c9e 1cc .cfa: $rsp 8 + .ra: .cfa -8 + ^
STACK CFI 8c9f $rbp: .cfa -16 + ^ .cfa: $rsp 16 +
STACK CFI 8ca2 .cfa: $rbp 16 +
STACK CFI 8e69 .cfa: $rsp 8 +
STACK CFI INIT 8e6a 1cc .cfa: $rsp 8 + .ra: .cfa -8 + ^
STACK CFI 8e6b $rbp: .cfa -16 + ^ .cfa: $rsp 16 +
STACK CFI 8e6e .cfa: $rbp 16 +
STACK CFI 9035 .cfa: $rsp 8 +
STACK CFI INIT 9036 1cc .cfa: $rsp 8 + .ra: .cfa -8 + ^
STACK CFI 9037 $rbp: .cfa -16 + ^ .cfa: $rsp 16 +
STACK CFI 903a .cfa: $rbp 16 +
STACK CFI 9201 .cfa: $rsp 8 +
STACK CFI INIT 9202 1cc .cfa: $rsp 8 + .ra: .cfa -8 + ^
STACK CFI 9203 $rbp: .cfa -16 + ^ .cfa: $rsp 16 +
STACK CFI 9206 .cfa: $rbp 16 +
STACK CFI 93cd .cfa: $rsp 8 +
STACK CFI INIT 93ce 7 .cfa: $rsp 8 + .ra: .cfa -8 + ^
STACK CFI 93cf $rbp: .cfa -16 + ^ .cfa: $rsp 16 +
STACK CFI 93d2 .cfa: $rbp 16 +
STACK CFI 93d4 .cfa: $rsp 8 +
STACK CFI INIT 9644 2f .cfa: $rsp 8 + .ra: .cfa -8 + ^
STACK CFI 9645 $rbp: .cfa -16 + ^ .cfa: $rsp 16 +
STACK CFI 9648 .cfa: $rbp 16 +
STACK CFI 9672 .cfa: $rsp 8 +
STACK CFI INIT 93d5 183 .cfa: $rsp 8 + .ra: .cfa -8 + ^
STACK CFI 93d6 $rbp: .cfa -16 + ^ .cfa: $rsp 16 +
STACK CFI 93d9 .cfa: $rbp 16 +
STACK CFI 93e1 $rbx: .cfa -24 + ^
STACK CFI 9557 .cfa: $rsp 8 +
STACK CFI INIT 9680 14b .cfa: $rsp 8 + .ra: .cfa -8 + ^
STACK CFI 9682 $r14: .cfa -16 + ^ .cfa: $rsp 16 +
STACK CFI 9684 $r13: .cfa -24 + ^ .cfa: $rsp 24 +
STACK CFI 9686 $r12: .cfa -32 + ^ .cfa: $rsp 32 +
STACK CFI 9687 $rbp: .cfa -40 + ^ .cfa: $rsp 40 +
STACK CFI 9688 $rbx: .cfa -48 + ^ .cfa: $rsp 48 +
STACK CFI 968f .cfa: $rsp 208 +
STACK CFI 9720 .cfa: $rsp 48 +
STACK CFI 9721 .cfa: $rsp 40 +
STACK CFI 9722 .cfa: $rsp 32 +
STACK CFI 9724 .cfa: $rsp 24 +
STACK CFI 9726 .cfa: $rsp 16 +
STACK CFI 9728 .cfa: $rsp 8 +
STACK CFI 9730 .cfa: $rsp 208 +
STACK CFI INIT 97d0 7c .cfa: $rsp 8 + .ra: .cfa -8 + ^
STACK CFI 97db $r13: .cfa -16 + ^ .cfa: $rsp 16 +
STACK CFI 97dd $r12: .cfa -24 + ^ .cfa: $rsp 24 +
STACK CFI 97e5 $rbp: .cfa -32 + ^ .cfa: $rsp 32 +
STACK CFI 97e6 $rbx: .cfa -40 + ^ .cfa: $rsp 40 +
STACK CFI 97fe .cfa: $rsp 48 +
STACK CFI 9831 .cfa: $rsp 40 +
STACK CFI 9832 $rbx: $rbx .cfa: $rsp 32 +
STACK CFI 9833 $rbp: $rbp .cfa: $rsp 24 +
STACK CFI 9835 $r12: $r12 .cfa: $rsp 16 +
STACK CFI 9837 $r13: $r13 .cfa: $rsp 8 +
STACK CFI 9840 $r12: .cfa -24 + ^ $r13: .cfa -16 + ^ $rbp: .cfa -32 + ^ $rbx: .cfa -40 + ^ .cfa: $rsp 48 +
STACK CFI INIT 9850 341 .cfa: $rsp 8 + .ra: .cfa -8 + ^
STACK CFI 9852 $r12: .cfa -16 + ^ .cfa: $rsp 16 +
STACK CFI 9853 $rbp: .cfa -24 + ^ .cfa: $rsp 24 +
STACK CFI 9854 $rbx: .cfa -32 + ^ .cfa: $rsp 32 +
STACK CFI 9862 .cfa: $rsp 96 +
STACK CFI 9a13 .cfa: $rsp 32 +
STACK CFI 9a14 .cfa: $rsp 24 +
STACK CFI 9a15 .cfa: $rsp 16 +
STACK CFI 9a17 .cfa: $rsp 8 +
STACK CFI 9a20 .cfa: $rsp 96 +
STACK CFI INIT 9ba0 d1 .cfa: $rsp 8 + .ra: .cfa -8 + ^
STACK CFI 9ba2 $r15: .cfa -16 + ^ .cfa: $rsp 16 +
STACK CFI 9ba4 $r14: .cfa -24 + ^ .cfa: $rsp 24 +
STACK CFI 9ba9 $r13: .cfa -32 + ^ .cfa: $rsp 32 +
STACK CFI 9bab $r12: .cfa -40 + ^ .cfa: $rsp 40 +
STACK CFI 9bb3 $rbp: .cfa -48 + ^ .cfa: $rsp 48 +
STACK CFI 9bb4 $rbx: .cfa -56 + ^ .cfa: $rsp 56 +
STACK CFI 9bc3 .cfa: $rsp 64 +
STACK CFI 9bee .cfa: $rsp 56 +
STACK CFI 9bef .cfa: $rsp 48 +
STACK CFI 9bf0 .cfa: $rsp 40 +
STACK CFI 9bf2 .cfa: $rsp 32 +
STACK CFI 9bf4 .cfa: $rsp 24 +
STACK CFI 9bf6 .cfa: $rsp 16 +
STACK CFI 9bf8 .cfa: $rsp 8 +
STACK CFI 9c00 .cfa: $rsp 64 +
STACK CFI 9c4c .cfa: $rsp 56 +
STACK CFI 9c59 .cfa: $rsp 48 +
STACK CFI 9c5a .cfa: $rsp 40 +
STACK CFI 9c5c .cfa: $rsp 32 +
STACK CFI 9c5e .cfa: $rsp 24 +
STACK CFI 9c60 .cfa: $rsp 16 +
STACK CFI 9c62 .cfa: $rsp 8 +
STACK CFI 9c67 .cfa: $rsp 64 +
STACK CFI INIT 9c80 4bc .cfa: $rsp 8 + .ra: .cfa -8 + ^
STACK CFI 9c82 $r15: .cfa -16 + ^ .cfa: $rsp 16 +
STACK CFI 9c84 $r14: .cfa -24 + ^ .cfa: $rsp 24 +
STACK CFI 9c86 $r13: .cfa -32 + ^ .cfa: $rsp 32 +
STACK CFI 9c88 $r12: .cfa -40 + ^ .cfa: $rsp 40 +
STACK CFI 9c89 $rbp: .cfa -48 + ^ .cfa: $rsp 48 +
STACK CFI 9c8a $rbx: .cfa -56 + ^ .cfa: $rsp 56 +
STACK CFI 9c94 .cfa: $rsp 144 +
STACK CFI 9cd4 .cfa: $rsp 56 +
STACK CFI 9cd5 .cfa: $rsp 48 +
STACK CFI 9cd6 .cfa: $rsp 40 +
STACK CFI 9cd8 .cfa: $rsp 32 +
STACK CFI 9cda .cfa: $rsp 24 +
STACK CFI 9cdc .cfa: $rsp 16 +
STACK CFI 9cde .cfa: $rsp 8 +
STACK CFI 9ce0 .cfa: $rsp 144 +
STACK CFI INIT a140 1da .cfa: $rsp 8 + .ra: .cfa -8 + ^
STACK CFI a142 $r13: .cfa -16 + ^ .cfa: $rsp 16 +
STACK CFI a144 $r12: .cfa -24 + ^ .cfa: $rsp 24 +
STACK CFI a148 $rbp: .cfa -32 + ^ .cfa: $rsp 32 +
STACK CFI a149 $rbx: .cfa -40 + ^ .cfa: $rsp 40 +
STACK CFI a153 .cfa: $rsp 48 +
STACK CFI a169 .cfa: $rsp 40 +
STACK CFI a16a .cfa: $rsp 32 +
STACK CFI a16b .cfa: $rsp 24 +
STACK CFI a16d .cfa: $rsp 16 +
STACK CFI a16f .cfa: $rsp 8 +
STACK CFI a170 .cfa: $rsp 48 +
STACK CFI a2dd .cfa: $rsp 40 +
STACK CFI a2e8 .cfa: $rsp 32 +
STACK CFI a2e9 .cfa: $rsp 24 +
STACK CFI a2eb .cfa: $rsp 16 +
STACK CFI a2ed .cfa: $rsp 8 +
STACK CFI a2f8 .cfa: $rsp 48 +
STACK CFI INIT a320 1c1 .cfa: $rsp 8 + .ra: .cfa -8 + ^
STACK CFI a322 $r14: .cfa -16 + ^ .cfa: $rsp 16 +
STACK CFI a324 $r13: .cfa -24 + ^ .cfa: $rsp 24 +
STACK CFI a329 $r12: .cfa -32 + ^ .cfa: $rsp 32 +
STACK CFI a32a $rbp: .cfa -40 + ^ .cfa: $rsp 40 +
STACK CFI a32e $rbx: .cfa -48 + ^ .cfa: $rsp 48 +
STACK CFI a33f .cfa: $rsp 208 +
STACK CFI a41a .cfa: $rsp 48 +
STACK CFI a41b .cfa: $rsp 40 +
STACK CFI a41c .cfa: $rsp 32 +
STACK CFI a41e .cfa: $rsp 24 +
STACK CFI a420 .cfa: $rsp 16 +
STACK CFI a422 .cfa: $rsp 8 +
STACK CFI a428 .cfa: $rsp 208 +
STACK CFI INIT a4f0 7f .cfa: $rsp 8 + .ra: .cfa -8 + ^
STACK CFI a4f7 .cfa: $rsp 1104 +
STACK CFI a569 .cfa: $rsp 8 +
STACK CFI a56a .cfa: $rsp 1104 +
STACK CFI INIT a570 e5 .cfa: $rsp 8 + .ra: .cfa -8 + ^
STACK CFI a572 $r15: .cfa -16 + ^ .cfa: $rsp 16 +
STACK CFI a574 $r14: .cfa -24 + ^ .cfa: $rsp 24 +
STACK CFI a579 $r13: .cfa -32 + ^ .cfa: $rsp 32 +
STACK CFI a57b $r12: .cfa -40 + ^ .cfa: $rsp 40 +
STACK CFI a57f $rbp: .cfa -48 + ^ .cfa: $rsp 48 +
STACK CFI a580 $rbx: .cfa -56 + ^ .cfa: $rsp 56 +
STACK CFI a589 .cfa: $rsp 80 +
STACK CFI a5da .cfa: $rsp 56 +
STACK CFI a5db .cfa: $rsp 48 +
STACK CFI a5dc .cfa: $rsp 40 +
STACK CFI a5de .cfa: $rsp 32 +
STACK CFI a5e0 .cfa: $rsp 24 +
STACK CFI a5e2 .cfa: $rsp 16 +
STACK CFI a5e4 .cfa: $rsp 8 +
STACK CFI a5e8 .cfa: $rsp 80 +
STACK CFI INIT a660 8b .cfa: $rsp 8 + .ra: .cfa -8 + ^
STACK CFI a676 .cfa: $rsp 16 +
STACK CFI a696 .cfa: $rsp 24 +
STACK CFI a69c .cfa: $rsp 32 +
STACK CFI a6a9 .cfa: $rsp 24 +
STACK CFI a6aa .cfa: $rsp 16 +
STACK CFI a6ae .cfa: $rsp 8 +
STACK CFI a6c8 .cfa: $rsp 16 +
STACK CFI a6d3 .cfa: $rsp 24 +
STACK CFI a6d8 .cfa: $rsp 32 +
STACK CFI a6e5 .cfa: $rsp 24 +
STACK CFI a6e6 .cfa: $rsp 16 +
STACK CFI a6ea .cfa: $rsp 8 +
STACK CFI INIT a6f0 28 .cfa: $rsp 8 + .ra: .cfa -8 + ^
STACK CFI a6f1 $rbx: .cfa -16 + ^ .cfa: $rsp 16 +
STACK CFI a717 .cfa: $rsp 8 +
STACK CFI INIT a720 195 .cfa: $rsp 8 + .ra: .cfa -8 + ^
STACK CFI a721 $rbx: .cfa -16 + ^ .cfa: $rsp 16 +
STACK CFI a728 .cfa: $rsp 1632 +
STACK CFI a7be .cfa: $rsp 16 +
STACK CFI a7bf .cfa: $rsp 8 +
STACK CFI a7c0 .cfa: $rsp 1632 +
STACK CFI INIT a8c0 e3 .cfa: $rsp 8 + .ra: .cfa -8 + ^
STACK CFI a8c2 $r14: .cfa -16 + ^ .cfa: $rsp 16 +
STACK CFI a8c4 $r13: .cfa -24 + ^ .cfa: $rsp 24 +
STACK CFI a8c8 $rbp: .cfa -32 + ^ .cfa: $rsp 32 +
STACK CFI a8c9 $rbx: .cfa -40 + ^ .cfa: $rsp 40 +
STACK CFI a8d8 .cfa: $rsp 640 +
STACK CFI a997 .cfa: $rsp 40 +
STACK CFI a998 .cfa: $rsp 32 +
STACK CFI a999 .cfa: $rsp 24 +
STACK CFI a99b .cfa: $rsp 16 +
STACK CFI a99d .cfa: $rsp 8 +
STACK CFI a99e .cfa: $rsp 640 +
STACK CFI INIT a9b0 91 .cfa: $rsp 8 + .ra: .cfa -8 + ^
STACK CFI a9b2 $r13: .cfa -16 + ^ .cfa: $rsp 16 +
STACK CFI a9b4 $r12: .cfa -24 + ^ .cfa: $rsp 24 +
STACK CFI a9b5 $rbp: .cfa -32 + ^ .cfa: $rsp 32 +
STACK CFI a9b6 $rbx: .cfa -40 + ^ .cfa: $rsp 40 +
STACK CFI a9c1 .cfa: $rsp 48 +
STACK CFI a9ea .cfa: $rsp 40 +
STACK CFI a9eb .cfa: $rsp 32 +
STACK CFI a9ec .cfa: $rsp 24 +
STACK CFI a9ee .cfa: $rsp 16 +
STACK CFI a9f0 .cfa: $rsp 8 +
STACK CFI a9f8 .cfa: $rsp 48 +
STACK CFI aa3a .cfa: $rsp 40 +
STACK CFI aa3b .cfa: $rsp 32 +
STACK CFI aa3c .cfa: $rsp 24 +
STACK CFI aa3e .cfa: $rsp 16 +
STACK CFI aa40 .cfa: $rsp 8 +
STACK CFI INIT aa50 52 .cfa: $rsp 8 + .ra: .cfa -8 + ^
STACK CFI aa51 $rbx: .cfa -16 + ^ .cfa: $rsp 16 +
STACK CFI aa92 .cfa: $rsp 8 +
STACK CFI aaa0 .cfa: $rsp 16 +
STACK CFI aaa1 .cfa: $rsp 8 +
STACK CFI INIT aab0 23d .cfa: $rsp 8 + .ra: .cfa -8 + ^
STACK CFI aab2 $r15: .cfa -16 + ^ .cfa: $rsp 16 +
STACK CFI aab4 $r14: .cfa -24 + ^ .cfa: $rsp 24 +
STACK CFI aab9 $r13: .cfa -32 + ^ .cfa: $rsp 32 +
STACK CFI aabb $r12: .cfa -40 + ^ .cfa: $rsp 40 +
STACK CFI aabf $rbp: .cfa -48 + ^ .cfa: $rsp 48 +
STACK CFI aac0 $rbx: .cfa -56 + ^ .cfa: $rsp 56 +
STACK CFI aad0 .cfa: $rsp 224 +
STACK CFI ac32 .cfa: $rsp 56 +
STACK CFI ac33 .cfa: $rsp 48 +
STACK CFI ac34 .cfa: $rsp 40 +
STACK CFI ac36 .cfa: $rsp 32 +
STACK CFI ac38 .cfa: $rsp 24 +
STACK CFI ac3a .cfa: $rsp 16 +
STACK CFI ac3c .cfa: $rsp 8 +
STACK CFI ac40 .cfa: $rsp 224 +
STACK CFI INIT b310 ea .cfa: $rsp 8 + .ra: .cfa -8 + ^
STACK CFI b312 $r15: .cfa -16 + ^ .cfa: $rsp 16 +
STACK CFI b314 $r14: .cfa -24 + ^ .cfa: $rsp 24 +
STACK CFI b319 $r13: .cfa -32 + ^ .cfa: $rsp 32 +
STACK CFI b31b $r12: .cfa -40 + ^ .cfa: $rsp 40 +
STACK CFI b31f $rbp: .cfa -48 + ^ .cfa: $rsp 48 +
STACK CFI b320 $rbx: .cfa -56 + ^ .cfa: $rsp 56 +
STACK CFI b324 .cfa: $rsp 64 +
STACK CFI b3aa .cfa: $rsp 56 +
STACK CFI b3ab .cfa: $rsp 48 +
STACK CFI b3ac .cfa: $rsp 40 +
STACK CFI b3ae .cfa: $rsp 32 +
STACK CFI b3b0 .cfa: $rsp 24 +
STACK CFI b3b2 .cfa: $rsp 16 +
STACK CFI b3b4 .cfa: $rsp 8 +
STACK CFI b3b8 .cfa: $rsp 64 +
STACK CFI INIT acf0 396 .cfa: $rsp 8 + .ra: .cfa -8 + ^
STACK CFI acf2 $r15: .cfa -16 + ^ .cfa: $rsp 16 +
STACK CFI acf4 $r14: .cfa -24 + ^ .cfa: $rsp 24 +
STACK CFI acf9 $r13: .cfa -32 + ^ .cfa: $rsp 32 +
STACK CFI acff $r12: .cfa -40 + ^ .cfa: $rsp 40 +
STACK CFI ad00 $rbp: .cfa -48 + ^ .cfa: $rsp 48 +
STACK CFI ad01 $rbx: .cfa -56 + ^ .cfa: $rsp 56 +
STACK CFI ad08 .cfa: $rsp 80 +
STACK CFI ae4e .cfa: $rsp 56 +
STACK CFI ae4f .cfa: $rsp 48 +
STACK CFI ae50 .cfa: $rsp 40 +
STACK CFI ae52 .cfa: $rsp 32 +
STACK CFI ae54 .cfa: $rsp 24 +
STACK CFI ae56 .cfa: $rsp 16 +
STACK CFI ae58 .cfa: $rsp 8 +
STACK CFI ae60 .cfa: $rsp 80 +
STACK CFI INIT b090 27d .cfa: $rsp 8 + .ra: .cfa -8 + ^
STACK CFI b091 $rbp: .cfa -16 + ^ .cfa: $rsp 16 +
STACK CFI b094 .cfa: $rbp 16 +
STACK CFI b09c $r12: .cfa -48 + ^ $r13: .cfa -40 + ^ $r14: .cfa -32 + ^ $r15: .cfa -24 + ^
STACK CFI b0a0 $rbx: .cfa -56 + ^
STACK CFI b251 .cfa: $rsp 8 +
STACK CFI b258 .cfa: $rbp 16 +
STACK CFI INIT b400 c2 .cfa: $rsp 8 + .ra: .cfa -8 + ^
STACK CFI b402 $r12: .cfa -16 + ^ .cfa: $rsp 16 +
STACK CFI b403 $rbp: .cfa -24 + ^ .cfa: $rsp 24 +
STACK CFI b407 $rbx: .cfa -32 + ^ .cfa: $rsp 32 +
STACK CFI b40e .cfa: $rsp 48 +
STACK CFI b47a .cfa: $rsp 32 +
STACK CFI b47b .cfa: $rsp 24 +
STACK CFI b47c .cfa: $rsp 16 +
STACK CFI b47e .cfa: $rsp 8 +
STACK CFI b480 .cfa: $rsp 48 +
STACK CFI INIT b4d0 a4 .cfa: $rsp 8 + .ra: .cfa -8 + ^
STACK CFI b4d1 $rbp: .cfa -16 + ^ .cfa: $rsp 16 +
STACK CFI b4d2 $rbx: .cfa -24 + ^ .cfa: $rsp 24 +
STACK CFI b4e0 .cfa: $rsp 32 +
STACK CFI b552 .cfa: $rsp 24 +
STACK CFI b553 .cfa: $rsp 16 +
STACK CFI b554 .cfa: $rsp 8 +
STACK CFI b555 .cfa: $rsp 32 +
STACK CFI INIT b580 317 .cfa: $rsp 8 + .ra: .cfa -8 + ^
STACK CFI b582 $r13: .cfa -16 + ^ .cfa: $rsp 16 +
STACK CFI b584 $r12: .cfa -24 + ^ .cfa: $rsp 24 +
STACK CFI b585 $rbp: .cfa -32 + ^ .cfa: $rsp 32 +
STACK CFI b586 $rbx: .cfa -40 + ^ .cfa: $rsp 40 +
STACK CFI b58d .cfa: $rsp 208 +
STACK CFI b7d9 .cfa: $rsp 40 +
STACK CFI b7da .cfa: $rsp 32 +
STACK CFI b7db .cfa: $rsp 24 +
STACK CFI b7dd .cfa: $rsp 16 +
STACK CFI b7df .cfa: $rsp 8 +
STACK CFI b7e0 .cfa: $rsp 208 +
STACK CFI INIT b8a0 a2 .cfa: $rsp 8 + .ra: .cfa -8 + ^
STACK CFI b8a1 $rbp: .cfa -16 + ^ .cfa: $rsp 16 +
STACK CFI b8a2 $rbx: .cfa -24 + ^ .cfa: $rsp 24 +
STACK CFI b8a6 .cfa: $rsp 32 +
STACK CFI b91d .cfa: $rsp 24 +
STACK CFI b921 .cfa: $rsp 16 +
STACK CFI b922 .cfa: $rsp 8 +
STACK CFI b923 .cfa: $rsp 32 +
STACK CFI INIT b950 33 .cfa: $rsp 8 + .ra: .cfa -8 + ^
STACK CFI b95c $rbx: .cfa -16 + ^ .cfa: $rsp 16 +
STACK CFI b982 .cfa: $rsp 8 +
STACK CFI INIT d450 3ea .cfa: $rsp 8 + .ra: .cfa -8 + ^
STACK CFI d45b $r15: .cfa -16 + ^ .cfa: $rsp 16 +
STACK CFI d45d $r14: .cfa -24 + ^ .cfa: $rsp 24 +
STACK CFI d462 $r13: .cfa -32 + ^ .cfa: $rsp 32 +
STACK CFI d464 $r12: .cfa -40 + ^ .cfa: $rsp 40 +
STACK CFI d468 $rbp: .cfa -48 + ^ .cfa: $rsp 48 +
STACK CFI d469 $rbx: .cfa -56 + ^ .cfa: $rsp 56 +
STACK CFI d479 .cfa: $rsp 96 +
STACK CFI d4ec .cfa: $rsp 56 +
STACK CFI d4ed $rbx: $rbx .cfa: $rsp 48 +
STACK CFI d4ee $rbp: $rbp .cfa: $rsp 40 +
STACK CFI d4f0 $r12: $r12 .cfa: $rsp 32 +
STACK CFI d4f2 $r13: $r13 .cfa: $rsp 24 +
STACK CFI d4f4 $r14: $r14 .cfa: $rsp 16 +
STACK CFI d4f6 $r15: $r15 .cfa: $rsp 8 +
STACK CFI d500 $r12: .cfa -40 + ^ $r13: .cfa -32 + ^ $r14: .cfa -24 + ^ $r15: .cfa -16 + ^ $rbp: .cfa -48 + ^ $rbx: .cfa -56 + ^ .cfa: $rsp 96 +
STACK CFI d570 .cfa: $rsp 56 +
STACK CFI d577 $rbx: $rbx .cfa: $rsp 48 +
STACK CFI d578 $rbp: $rbp .cfa: $rsp 40 +
STACK CFI d57a $r12: $r12 .cfa: $rsp 32 +
STACK CFI d57c $r13: $r13 .cfa: $rsp 24 +
STACK CFI d57e $r14: $r14 .cfa: $rsp 16 +
STACK CFI d580 $r15: $r15 .cfa: $rsp 8 +
STACK CFI d588 $r12: .cfa -40 + ^ $r13: .cfa -32 + ^ $r14: .cfa -24 + ^ $r15: .cfa -16 + ^ $rbp: .cfa -48 + ^ $rbx: .cfa -56 + ^ .cfa: $rsp 96 +
STACK CFI d66d .cfa: $rsp 56 +
STACK CFI d66e $rbx: $rbx .cfa: $rsp 48 +
STACK CFI d66f $rbp: $rbp .cfa: $rsp 40 +
STACK CFI d671 $r12: $r12 .cfa: $rsp 32 +
STACK CFI d673 $r13: $r13 .cfa: $rsp 24 +
STACK CFI d675 $r14: $r14 .cfa: $rsp 16 +
STACK CFI d677 $r15: $r15 .cfa: $rsp 8 +
STACK CFI d680 $r12: .cfa -40 + ^ $r13: .cfa -32 + ^ $r14: .cfa -24 + ^ $r15: .cfa -16 + ^ $rbp: .cfa -48 + ^ $rbx: .cfa -56 + ^ .cfa: $rsp 96 +
STACK CFI INIT b990 1ab5 .cfa: $rsp 8 + .ra: .cfa -8 + ^
STACK CFI b991 $rbp: .cfa -16 + ^ .cfa: $rsp 16 +
STACK CFI b994 .cfa: $rbp 16 +
STACK CFI b99c $r12: .cfa -48 + ^ $r13: .cfa -40 + ^ $r14: .cfa -32 + ^ $r15: .cfa -24 + ^
STACK CFI b9a0 $rbx: .cfa -56 + ^
STACK CFI ba3a .cfa: $rsp 8 +
STACK CFI ba3b .cfa: $rbp 16 +
STACK CFI INIT d840 6 .cfa: $rsp 8 + .ra: .cfa -8 + ^
STACK CFI INIT f4c0 143 .cfa: $rsp 8 + .ra: .cfa -8 + ^
STACK CFI f4cb $r15: .cfa -16 + ^ .cfa: $rsp 16 +
STACK CFI f4cd $r14: .cfa -24 + ^ .cfa: $rsp 24 +
STACK CFI f4cf $r13: .cfa -32 + ^ .cfa: $rsp 32 +
STACK CFI f4d1 $r12: .cfa -40 + ^ .cfa: $rsp 40 +
STACK CFI f4d2 $rbp: .cfa -48 + ^ .cfa: $rsp 48 +
STACK CFI f4d3 $rbx: .cfa -56 + ^ .cfa: $rsp 56 +
STACK CFI f4da .cfa: $rsp 64 +
STACK CFI f50c .cfa: $rsp 56 +
STACK CFI f50d $rbx: $rbx .cfa: $rsp 48 +
STACK CFI f50e $rbp: $rbp .cfa: $rsp 40 +
STACK CFI f510 $r12: $r12 .cfa: $rsp 32 +
STACK CFI f512 $r13: $r13 .cfa: $rsp 24 +
STACK CFI f514 $r14: $r14 .cfa: $rsp 16 +
STACK CFI f516 $r15: $r15 .cfa: $rsp 8 +
STACK CFI f520 $r12: .cfa -40 + ^ $r13: .cfa -32 + ^ $r14: .cfa -24 + ^ $r15: .cfa -16 + ^ $rbp: .cfa -48 + ^ $rbx: .cfa -56 + ^ .cfa: $rsp 64 +
STACK CFI f5cf .cfa: $rsp 56 +
STACK CFI f5d4 $rbx: $rbx .cfa: $rsp 48 +
STACK CFI f5d5 $rbp: $rbp .cfa: $rsp 40 +
STACK CFI f5d7 $r12: $r12 .cfa: $rsp 32 +
STACK CFI f5d9 $r13: $r13 .cfa: $rsp 24 +
STACK CFI f5db $r14: $r14 .cfa: $rsp 16 +
STACK CFI f5dd $r15: $r15 .cfa: $rsp 8 +
STACK CFI f5e0 $r12: .cfa -40 + ^ $r13: .cfa -32 + ^ $r14: .cfa -24 + ^ $r15: .cfa -16 + ^ $rbp: .cfa -48 + ^ $rbx: .cfa -56 + ^ .cfa: $rsp 64 +
STACK CFI f5f4 .cfa: $rsp 56 +
STACK CFI f5f5 $rbx: $rbx .cfa: $rsp 48 +
STACK CFI f5f6 $rbp: $rbp .cfa: $rsp 40 +
STACK CFI f5f8 $r12: $r12 .cfa: $rsp 32 +
STACK CFI f5fa $r13: $r13 .cfa: $rsp 24 +
STACK CFI f5fc $r14: $r14 .cfa: $rsp 16 +
STACK CFI f5fe $r15: $r15 .cfa: $rsp 8 +
STACK CFI INIT d850 835 .cfa: $rsp 8 + .ra: .cfa -8 + ^
STACK CFI d852 $r15: .cfa -16 + ^ .cfa: $rsp 16 +
STACK CFI d854 $r14: .cfa -24 + ^ .cfa: $rsp 24 +
STACK CFI d85d $r13: .cfa -32 + ^ .cfa: $rsp 32 +
STACK CFI d85f $r12: .cfa -40 + ^ .cfa: $rsp 40 +
STACK CFI d866 $rbp: .cfa -48 + ^ .cfa: $rsp 48 +
STACK CFI d867 $rbx: .cfa -56 + ^ .cfa: $rsp 56 +
STACK CFI d872 .cfa: $rsp 80 +
STACK CFI dac5 .cfa: $rsp 56 +
STACK CFI dac6 .cfa: $rsp 48 +
STACK CFI dac7 .cfa: $rsp 40 +
STACK CFI dac9 .cfa: $rsp 32 +
STACK CFI dacb .cfa: $rsp 24 +
STACK CFI dacd .cfa: $rsp 16 +
STACK CFI dacf .cfa: $rsp 8 +
STACK CFI dad0 .cfa: $rsp 80 +
STACK CFI INIT e090 67 .cfa: $rsp 8 + .ra: .cfa -8 + ^
STACK CFI e092 $r13: .cfa -16 + ^ .cfa: $rsp 16 +
STACK CFI e094 $r12: .cfa -24 + ^ .cfa: $rsp 24 +
STACK CFI e098 $rbp: .cfa -32 + ^ .cfa: $rsp 32 +
STACK CFI e099 $rbx: .cfa -40 + ^ .cfa: $rsp 40 +
STACK CFI e0a2 .cfa: $rsp 48 +
STACK CFI e0f0 .cfa: $rsp 40 +
STACK CFI e0f1 .cfa: $rsp 32 +
STACK CFI e0f2 .cfa: $rsp 24 +
STACK CFI e0f4 .cfa: $rsp 16 +
STACK CFI e0f6 .cfa: $rsp 8 +
STACK CFI INIT e100 12 .cfa: $rsp 8 + .ra: .cfa -8 + ^
STACK CFI e101 $rbx: .cfa -16 + ^ .cfa: $rsp 16 +
STACK CFI e10d .cfa: $rsp 8 +
STACK CFI INIT e120 4a .cfa: $rsp 8 + .ra: .cfa -8 + ^
STACK CFI e121 $rbp: .cfa -16 + ^ .cfa: $rsp 16 +
STACK CFI e122 $rbx: .cfa -24 + ^ .cfa: $rsp 24 +
STACK CFI e131 .cfa: $rsp 32 +
STACK CFI e165 .cfa: $rsp 24 +
STACK CFI e168 .cfa: $rsp 16 +
STACK CFI e169 .cfa: $rsp 8 +
STACK CFI INIT e170 19f .cfa: $rsp 8 + .ra: .cfa -8 + ^
STACK CFI e172 $r14: .cfa -16 + ^ .cfa: $rsp 16 +
STACK CFI e174 $r13: .cfa -24 + ^ .cfa: $rsp 24 +
STACK CFI e179 $r12: .cfa -32 + ^ .cfa: $rsp 32 +
STACK CFI e17a $rbp: .cfa -40 + ^ .cfa: $rsp 40 +
STACK CFI e17f $rbx: .cfa -48 + ^ .cfa: $rsp 48 +
STACK CFI e19b .cfa: $rsp 4224 +
STACK CFI e1d9 .cfa: $rsp 48 +
STACK CFI e1da .cfa: $rsp 40 +
STACK CFI e1db .cfa: $rsp 32 +
STACK CFI e1dd .cfa: $rsp 24 +
STACK CFI e1df .cfa: $rsp 16 +
STACK CFI e1e1 .cfa: $rsp 8 +
STACK CFI e1e8 .cfa: $rsp 4224 +
STACK CFI INIT e310 1a7 .cfa: $rsp 8 + .ra: .cfa -8 + ^
STACK CFI e312 $r14: .cfa -16 + ^ .cfa: $rsp 16 +
STACK CFI e314 $r13: .cfa -24 + ^ .cfa: $rsp 24 +
STACK CFI e31d $r12: .cfa -32 + ^ .cfa: $rsp 32 +
STACK CFI e31e $rbp: .cfa -40 + ^ .cfa: $rsp 40 +
STACK CFI e322 $rbx: .cfa -48 + ^ .cfa: $rsp 48 +
STACK CFI e32c .cfa: $rsp 4992 +
STACK CFI e379 .cfa: $rsp 48 +
STACK CFI e37a .cfa: $rsp 40 +
STACK CFI e37b .cfa: $rsp 32 +
STACK CFI e37d .cfa: $rsp 24 +
STACK CFI e37f .cfa: $rsp 16 +
STACK CFI e381 .cfa: $rsp 8 +
STACK CFI e388 .cfa: $rsp 4992 +
STACK CFI INIT e4c0 e6 .cfa: $rsp 8 + .ra: .cfa -8 + ^
STACK CFI e4c2 $r15: .cfa -16 + ^ .cfa: $rsp 16 +
STACK CFI e4c4 $r14: .cfa -24 + ^ .cfa: $rsp 24 +
STACK CFI e4c9 $r13: .cfa -32 + ^ .cfa: $rsp 32 +
STACK CFI e4cb $r12: .cfa -40 + ^ .cfa: $rsp 40 +
STACK CFI e4cf $rbp: .cfa -48 + ^ .cfa: $rsp 48 +
STACK CFI e4d0 $rbx: .cfa -56 + ^ .cfa: $rsp 56 +
STACK CFI e4e1 .cfa: $rsp 64 +
STACK CFI e51b .cfa: $rsp 56 +
STACK CFI e522 .cfa: $rsp 48 +
STACK CFI e523 .cfa: $rsp 40 +
STACK CFI e525 .cfa: $rsp 32 +
STACK CFI e527 .cfa: $rsp 24 +
STACK CFI e529 .cfa: $rsp 16 +
STACK CFI e52b .cfa: $rsp 8 +
STACK CFI e530 .cfa: $rsp 64 +
STACK CFI e566 .cfa: $rsp 56 +
STACK CFI e567 .cfa: $rsp 48 +
STACK CFI e568 .cfa: $rsp 40 +
STACK CFI e56a .cfa: $rsp 32 +
STACK CFI e56c .cfa: $rsp 24 +
STACK CFI e56e .cfa: $rsp 16 +
STACK CFI e570 .cfa: $rsp 8 +
STACK CFI e578 .cfa: $rsp 64 +
STACK CFI e58e .cfa: $rsp 56 +
STACK CFI e598 .cfa: $rsp 48 +
STACK CFI e599 .cfa: $rsp 40 +
STACK CFI e59b .cfa: $rsp 32 +
STACK CFI e59d .cfa: $rsp 24 +
STACK CFI e59f .cfa: $rsp 16 +
STACK CFI e5a1 .cfa: $rsp 8 +
STACK CFI INIT e5b0 119 .cfa: $rsp 8 + .ra: .cfa -8 + ^
STACK CFI e5b2 $r13: .cfa -16 + ^ .cfa: $rsp 16 +
STACK CFI e5b4 $r12: .cfa -24 + ^ .cfa: $rsp 24 +
STACK CFI e5b8 $rbp: .cfa -32 + ^ .cfa: $rsp 32 +
STACK CFI e5b9 $rbx: .cfa -40 + ^ .cfa: $rsp 40 +
STACK CFI e5c7 .cfa: $rsp 336 +
STACK CFI e689 .cfa: $rsp 40 +
STACK CFI e68a .cfa: $rsp 32 +
STACK CFI e68b .cfa: $rsp 24 +
STACK CFI e68d .cfa: $rsp 16 +
STACK CFI e68f .cfa: $rsp 8 +
STACK CFI e690 .cfa: $rsp 336 +
STACK CFI INIT e6d0 32 .cfa: $rsp 8 + .ra: .cfa -8 + ^
STACK CFI e6d1 $rbx: .cfa -16 + ^ .cfa: $rsp 16 +
STACK CFI e6e0 .cfa: $rsp 8 +
STACK CFI e6e8 .cfa: $rsp 16 +
STACK CFI e6fc .cfa: $rsp 8 +
STACK CFI INIT e710 4b .cfa: $rsp 8 + .ra: .cfa -8 + ^
STACK CFI INIT e760 7d .cfa: $rsp 8 + .ra: .cfa -8 + ^
STACK CFI e762 $r13: .cfa -16 + ^ .cfa: $rsp 16 +
STACK CFI e764 $r12: .cfa -24 + ^ .cfa: $rsp 24 +
STACK CFI e768 $rbp: .cfa -32 + ^ .cfa: $rsp 32 +
STACK CFI e769 $rbx: .cfa -40 + ^ .cfa: $rsp 40 +
STACK CFI e776 .cfa: $rsp 48 +
STACK CFI e7c0 .cfa: $rsp 40 +
STACK CFI e7c1 .cfa: $rsp 32 +
STACK CFI e7c2 .cfa: $rsp 24 +
STACK CFI e7c4 .cfa: $rsp 16 +
STACK CFI e7c6 .cfa: $rsp 8 +
STACK CFI e7d0 .cfa: $rsp 48 +
STACK CFI e7d4 .cfa: $rsp 40 +
STACK CFI e7d7 .cfa: $rsp 32 +
STACK CFI e7d8 .cfa: $rsp 24 +
STACK CFI e7da .cfa: $rsp 16 +
STACK CFI e7dc .cfa: $rsp 8 +
STACK CFI INIT e7e0 53 .cfa: $rsp 8 + .ra: .cfa -8 + ^
STACK CFI e7e1 $rbp: .cfa -16 + ^ .cfa: $rsp 16 +
STACK CFI e7e2 $rbx: .cfa -24 + ^ .cfa: $rsp 24 +
STACK CFI e7ef .cfa: $rsp 32 +
STACK CFI e7fe .cfa: $rsp 24 +
STACK CFI e801 .cfa: $rsp 16 +
STACK CFI e802 .cfa: $rsp 8 +
STACK CFI e808 .cfa: $rsp 32 +
STACK CFI e826 .cfa: $rsp 24 +
STACK CFI e82d .cfa: $rsp 16 +
STACK CFI e82e .cfa: $rsp 8 +
STACK CFI INIT e840 34b .cfa: $rsp 8 + .ra: .cfa -8 + ^
STACK CFI e842 $r15: .cfa -16 + ^ .cfa: $rsp 16 +
STACK CFI e844 $r14: .cfa -24 + ^ .cfa: $rsp 24 +
STACK CFI e849 $r13: .cfa -32 + ^ .cfa: $rsp 32 +
STACK CFI e84b $r12: .cfa -40 + ^ .cfa: $rsp 40 +
STACK CFI e84f $rbp: .cfa -48 + ^ .cfa: $rsp 48 +
STACK CFI e850 $rbx: .cfa -56 + ^ .cfa: $rsp 56 +
STACK CFI e85f .cfa: $rsp 4208 +
STACK CFI e8d3 .cfa: $rsp 56 +
STACK CFI e8d4 .cfa: $rsp 48 +
STACK CFI e8d5 .cfa: $rsp 40 +
STACK CFI e8d7 .cfa: $rsp 32 +
STACK CFI e8d9 .cfa: $rsp 24 +
STACK CFI e8db .cfa: $rsp 16 +
STACK CFI e8dd .cfa: $rsp 8 +
STACK CFI e8e0 .cfa: $rsp 4208 +
STACK CFI INIT f610 288 .cfa: $rsp 8 + .ra: .cfa -8 + ^
STACK CFI f662 $r15: .cfa -16 + ^ .cfa: $rsp 16 +
STACK CFI f664 $r14: .cfa -24 + ^ .cfa: $rsp 24 +
STACK CFI f669 $r13: .cfa -32 + ^ .cfa: $rsp 32 +
STACK CFI f66b $r12: .cfa -40 + ^ .cfa: $rsp 40 +
STACK CFI f676 $rbp: .cfa -48 + ^ .cfa: $rsp 48 +
STACK CFI f677 $rbx: .cfa -56 + ^ .cfa: $rsp 56 +
STACK CFI f684 .cfa: $rsp 80 +
STACK CFI f74a .cfa: $rsp 56 +
STACK CFI f74b $rbx: $rbx .cfa: $rsp 48 +
STACK CFI f74c $rbp: $rbp .cfa: $rsp 40 +
STACK CFI f74e $r12: $r12 .cfa: $rsp 32 +
STACK CFI f750 $r13: $r13 .cfa: $rsp 24 +
STACK CFI f752 $r14: $r14 .cfa: $rsp 16 +
STACK CFI f754 $r15: $r15 .cfa: $rsp 8 +
STACK CFI f756 $r12: .cfa -40 + ^ $r13: .cfa -32 + ^ $r14: .cfa -24 + ^ $r15: .cfa -16 + ^ $rbp: .cfa -48 + ^ $rbx: .cfa -56 + ^ .cfa: $rsp 80 +
STACK CFI INIT eb90 930 .cfa: $rsp 8 + .ra: .cfa -8 + ^
STACK CFI eb92 $r15: .cfa -16 + ^ .cfa: $rsp 16 +
STACK CFI eb94 $r14: .cfa -24 + ^ .cfa: $rsp 24 +
STACK CFI eb9d $r13: .cfa -32 + ^ .cfa: $rsp 32 +
STACK CFI eb9f $r12: .cfa -40 + ^ .cfa: $rsp 40 +
STACK CFI eba3 $rbp: .cfa -48 + ^ .cfa: $rsp 48 +
STACK CFI eba4 $rbx: .cfa -56 + ^ .cfa: $rsp 56 +
STACK CFI ebab .cfa: $rsp 448 +
STACK CFI ed50 .cfa: $rsp 56 +
STACK CFI ed51 .cfa: $rsp 48 +
STACK CFI ed52 .cfa: $rsp 40 +
STACK CFI ed54 .cfa: $rsp 32 +
STACK CFI ed56 .cfa: $rsp 24 +
STACK CFI ed58 .cfa: $rsp 16 +
STACK CFI ed5a .cfa: $rsp 8 +
STACK CFI ed5b .cfa: $rsp 448 +
STACK CFI INIT f8a0 3 .cfa: $rsp 8 + .ra: .cfa -8 + ^
STACK CFI INIT f8b0 187 .cfa: $rsp 8 + .ra: .cfa -8 + ^
STACK CFI f8b2 $r15: .cfa -16 + ^ .cfa: $rsp 16 +
STACK CFI f8b4 $r14: .cfa -24 + ^ .cfa: $rsp 24 +
STACK CFI f8b6 $r13: .cfa -32 + ^ .cfa: $rsp 32 +
STACK CFI f8b8 $r12: .cfa -40 + ^ .cfa: $rsp 40 +
STACK CFI f8b9 $rbp: .cfa -48 + ^ .cfa: $rsp 48 +
STACK CFI f8ba $rbx: .cfa -56 + ^ .cfa: $rsp 56 +
STACK CFI f8be .cfa: $rsp 112 +
STACK CFI f9a5 .cfa: $rsp 56 +
STACK CFI f9a6 .cfa: $rsp 48 +
STACK CFI f9a7 .cfa: $rsp 40 +
STACK CFI f9a9 .cfa: $rsp 32 +
STACK CFI f9ab .cfa: $rsp 24 +
STACK CFI f9ad .cfa: $rsp 16 +
STACK CFI f9af .cfa: $rsp 8 +
STACK CFI f9b0 .cfa: $rsp 112 +
STACK CFI INIT 10970 13 .cfa: $rsp 8 + .ra: .cfa -8 + ^
STACK CFI INIT 10990 20 .cfa: $rsp 8 + .ra: .cfa -8 + ^
STACK CFI 10998 $rbx: .cfa -16 + ^ .cfa: $rsp 16 +
STACK CFI 109ab .cfa: $rsp 8 +
STACK CFI INIT fa40 bb .cfa: $rsp 8 + .ra: .cfa -8 + ^
STACK CFI fa58 $r15: .cfa -16 + ^ .cfa: $rsp 16 +
STACK CFI fa5a $r14: .cfa -24 + ^ .cfa: $rsp 24 +
STACK CFI fa5f $r13: .cfa -32 + ^ .cfa: $rsp 32 +
STACK CFI fa61 $r12: .cfa -40 + ^ .cfa: $rsp 40 +
STACK CFI fa65 $rbp: .cfa -48 + ^ .cfa: $rsp 48 +
STACK CFI fa66 $rbx: .cfa -56 + ^ .cfa: $rsp 56 +
STACK CFI fa70 .cfa: $rsp 64 +
STACK CFI fa83 .cfa: $rsp 56 +
STACK CFI fa84 $rbx: $rbx .cfa: $rsp 48 +
STACK CFI fa85 $rbp: $rbp .cfa: $rsp 40 +
STACK CFI fa87 $r12: $r12 .cfa: $rsp 32 +
STACK CFI fa89 $r13: $r13 .cfa: $rsp 24 +
STACK CFI fa8b $r14: $r14 .cfa: $rsp 16 +
STACK CFI fa8d $r15: $r15 .cfa: $rsp 8 +
STACK CFI fa98 $r12: .cfa -40 + ^ $r13: .cfa -32 + ^ $r14: .cfa -24 + ^ $r15: .cfa -16 + ^ $rbp: .cfa -48 + ^ $rbx: .cfa -56 + ^ .cfa: $rsp 64 +
STACK CFI INIT fb00 bc .cfa: $rsp 8 + .ra: .cfa -8 + ^
STACK CFI fb11 $r15: .cfa -16 + ^ .cfa: $rsp 16 +
STACK CFI fb13 $r14: .cfa -24 + ^ .cfa: $rsp 24 +
STACK CFI fb1b $r13: .cfa -32 + ^ .cfa: $rsp 32 +
STACK CFI fb1d $r12: .cfa -40 + ^ .cfa: $rsp 40 +
STACK CFI fb21 $rbp: .cfa -48 + ^ .cfa: $rsp 48 +
STACK CFI fb22 $rbx: .cfa -56 + ^ .cfa: $rsp 56 +
STACK CFI fb26 .cfa: $rsp 64 +
STACK CFI fbad .cfa: $rsp 56 +
STACK CFI fbb1 $rbx: $rbx .cfa: $rsp 48 +
STACK CFI fbb2 $rbp: $rbp .cfa: $rsp 40 +
STACK CFI fbb4 $r12: $r12 .cfa: $rsp 32 +
STACK CFI fbb6 $r13: $r13 .cfa: $rsp 24 +
STACK CFI fbb8 $r14: $r14 .cfa: $rsp 16 +
STACK CFI fbba $r15: $r15 .cfa: $rsp 8 +
STACK CFI INIT fbc0 5fd .cfa: $rsp 8 + .ra: .cfa -8 + ^
STACK CFI fbc2 $r15: .cfa -16 + ^ .cfa: $rsp 16 +
STACK CFI fbc4 $r14: .cfa -24 + ^ .cfa: $rsp 24 +
STACK CFI fbcd $r13: .cfa -32 + ^ .cfa: $rsp 32 +
STACK CFI fbcf $r12: .cfa -40 + ^ .cfa: $rsp 40 +
STACK CFI fbd3 $rbp: .cfa -48 + ^ .cfa: $rsp 48 +
STACK CFI fbd4 $rbx: .cfa -56 + ^ .cfa: $rsp 56 +
STACK CFI fbdb .cfa: $rsp 416 +
STACK CFI fd2f .cfa: $rsp 56 +
STACK CFI fd30 .cfa: $rsp 48 +
STACK CFI fd31 .cfa: $rsp 40 +
STACK CFI fd33 .cfa: $rsp 32 +
STACK CFI fd35 .cfa: $rsp 24 +
STACK CFI fd37 .cfa: $rsp 16 +
STACK CFI fd39 .cfa: $rsp 8 +
STACK CFI fd40 .cfa: $rsp 416 +
STACK CFI INIT 101c0 51d .cfa: $rsp 8 + .ra: .cfa -8 + ^
STACK CFI 101c2 $r15: .cfa -16 + ^ .cfa: $rsp 16 +
STACK CFI 101c4 $r14: .cfa -24 + ^ .cfa: $rsp 24 +
STACK CFI 101c6 $r13: .cfa -32 + ^ .cfa: $rsp 32 +
STACK CFI 101c8 $r12: .cfa -40 + ^ .cfa: $rsp 40 +
STACK CFI 101cc $rbp: .cfa -48 + ^ .cfa: $rsp 48 +
STACK CFI 101cd $rbx: .cfa -56 + ^ .cfa: $rsp 56 +
STACK CFI 101d4 .cfa: $rsp 384 +
STACK CFI 103d4 .cfa: $rsp 56 +
STACK CFI 103d5 .cfa: $rsp 48 +
STACK CFI 103d6 .cfa: $rsp 40 +
STACK CFI 103d8 .cfa: $rsp 32 +
STACK CFI 103da .cfa: $rsp 24 +
STACK CFI 103dc .cfa: $rsp 16 +
STACK CFI 103de .cfa: $rsp 8 +
STACK CFI 103df .cfa: $rsp 384 +
STACK CFI INIT 106e0 27 .cfa: $rsp 8 + .ra: .cfa -8 + ^
STACK CFI 106e1 $rbx: .cfa -16 + ^ .cfa: $rsp 16 +
STACK CFI 10706 .cfa: $rsp 8 +
STACK CFI INIT 109b0 288 .cfa: $rsp 8 + .ra: .cfa -8 + ^
STACK CFI 10a02 $r15: .cfa -16 + ^ .cfa: $rsp 16 +
STACK CFI 10a04 $r14: .cfa -24 + ^ .cfa: $rsp 24 +
STACK CFI 10a09 $r13: .cfa -32 + ^ .cfa: $rsp 32 +
STACK CFI 10a0b $r12: .cfa -40 + ^ .cfa: $rsp 40 +
STACK CFI 10a16 $rbp: .cfa -48 + ^ .cfa: $rsp 48 +
STACK CFI 10a17 $rbx: .cfa -56 + ^ .cfa: $rsp 56 +
STACK CFI 10a24 .cfa: $rsp 80 +
STACK CFI 10ae9 .cfa: $rsp 56 +
STACK CFI 10aea $rbx: $rbx .cfa: $rsp 48 +
STACK CFI 10aeb $rbp: $rbp .cfa: $rsp 40 +
STACK CFI 10aed $r12: $r12 .cfa: $rsp 32 +
STACK CFI 10aef $r13: $r13 .cfa: $rsp 24 +
STACK CFI 10af1 $r14: $r14 .cfa: $rsp 16 +
STACK CFI 10af3 $r15: $r15 .cfa: $rsp 8 +
STACK CFI 10af5 $r12: .cfa -40 + ^ $r13: .cfa -32 + ^ $r14: .cfa -24 + ^ $r15: .cfa -16 + ^ $rbp: .cfa -48 + ^ $rbx: .cfa -56 + ^ .cfa: $rsp 80 +
STACK CFI INIT 10710 251 .cfa: $rsp 8 + .ra: .cfa -8 + ^
STACK CFI 10712 $r15: .cfa -16 + ^ .cfa: $rsp 16 +
STACK CFI 10714 $r14: .cfa -24 + ^ .cfa: $rsp 24 +
STACK CFI 10716 $r13: .cfa -32 + ^ .cfa: $rsp 32 +
STACK CFI 10718 $r12: .cfa -40 + ^ .cfa: $rsp 40 +
STACK CFI 10719 $rbp: .cfa -48 + ^ .cfa: $rsp 48 +
STACK CFI 1071a $rbx: .cfa -56 + ^ .cfa: $rsp 56 +
STACK CFI 10721 .cfa: $rsp 304 +
STACK CFI 10895 .cfa: $rsp 56 +
STACK CFI 10896 .cfa: $rsp 48 +
STACK CFI 10897 .cfa: $rsp 40 +
STACK CFI 10899 .cfa: $rsp 32 +
STACK CFI 1089b .cfa: $rsp 24 +
STACK CFI 1089d .cfa: $rsp 16 +
STACK CFI 1089f .cfa: $rsp 8 +
STACK CFI 108a0 .cfa: $rsp 304 +
STACK CFI INIT 1c20 4a .cfa: $rsp 8 + .ra: .cfa -8 + ^
STACK CFI 1c22 $r13: .cfa -16 + ^ .cfa: $rsp 16 +
STACK CFI 1c24 $r12: .cfa -24 + ^ .cfa: $rsp 24 +
STACK CFI 1c28 $rbp: .cfa -32 + ^ .cfa: $rsp 32 +
STACK CFI 1c29 $rbx: .cfa -40 + ^ .cfa: $rsp 40 +
STACK CFI 1c2d .cfa: $rsp 48 +
STACK CFI 1c63 .cfa: $rsp 40 +
STACK CFI 1c64 .cfa: $rsp 32 +
STACK CFI 1c65 .cfa: $rsp 24 +
STACK CFI 1c67 .cfa: $rsp 16 +
STACK CFI 1c69 .cfa: $rsp 8 +
STACK CFI INIT 1c6a 20 .cfa: $rsp 8 + .ra: .cfa -8 + ^
STACK CFI 1c72 .cfa: $rsp 16 +
STACK CFI INIT 1c8a 20 .cfa: $rsp 8 + .ra: .cfa -8 + ^
STACK CFI 1c92 .cfa: $rsp 16 +
STACK CFI INIT 1caa 1d .cfa: $rsp 8 + .ra: .cfa -8 + ^
STACK CFI 1cb0 .cfa: $rsp 16 +
STACK CFI 1cb5 .cfa: $rsp 8 +
STACK CFI INIT 1cc8 20 .cfa: $rsp 8 + .ra: .cfa -8 + ^
STACK CFI 1cd0 .cfa: $rsp 16 +
STACK CFI INIT 1ce8 20 .cfa: $rsp 8 + .ra: .cfa -8 + ^
STACK CFI 1cf0 .cfa: $rsp 16 +
STACK CFI INIT 1d08 2c .cfa: $rsp 8 + .ra: .cfa -8 + ^
STACK CFI 1d09 $rbp: .cfa -16 + ^ .cfa: $rsp 16 +
STACK CFI 1d0a $rbx: .cfa -24 + ^ .cfa: $rsp 24 +
STACK CFI 1d0f .cfa: $rsp 32 +
STACK CFI 1d2a .cfa: $rsp 24 +
STACK CFI 1d2e .cfa: $rsp 16 +
STACK CFI 1d2f .cfa: $rsp 8 +
STACK CFI INIT 1d34 1ec .cfa: $rsp 8 + .ra: .cfa -8 + ^
STACK CFI 1d36 $r15: .cfa -16 + ^ .cfa: $rsp 16 +
STACK CFI 1d38 $r14: .cfa -24 + ^ .cfa: $rsp 24 +
STACK CFI 1d3a $r13: .cfa -32 + ^ .cfa: $rsp 32 +
STACK CFI 1d3c $r12: .cfa -40 + ^ .cfa: $rsp 40 +
STACK CFI 1d40 $rbp: .cfa -48 + ^ .cfa: $rsp 48 +
STACK CFI 1d41 $rbx: .cfa -56 + ^ .cfa: $rsp 56 +
STACK CFI 1d4a .cfa: $rsp 112 +
STACK CFI 1f15 .cfa: $rsp 56 +
STACK CFI 1f16 .cfa: $rsp 48 +
STACK CFI 1f17 .cfa: $rsp 40 +
STACK CFI 1f19 .cfa: $rsp 32 +
STACK CFI 1f1b .cfa: $rsp 24 +
STACK CFI 1f1d .cfa: $rsp 16 +
STACK CFI 1f1f .cfa: $rsp 8 +
STACK CFI INIT 1f20 67 .cfa: $rsp 8 + .ra: .cfa -8 + ^
STACK CFI 1f22 $r12: .cfa -16 + ^ .cfa: $rsp 16 +
STACK CFI 1f23 $rbp: .cfa -24 + ^ .cfa: $rsp 24 +
STACK CFI 1f27 $rbx: .cfa -32 + ^ .cfa: $rsp 32 +
STACK CFI 1f31 .cfa: $rsp 304 +
STACK CFI 1f82 .cfa: $rsp 32 +
STACK CFI 1f83 .cfa: $rsp 24 +
STACK CFI 1f84 .cfa: $rsp 16 +
STACK CFI 1f86 .cfa: $rsp 8 +
STACK CFI INIT 14b30 259 .cfa: $rsp 8 + .ra: .cfa -8 + ^
STACK CFI 14b32 $r15: .cfa -16 + ^ .cfa: $rsp 16 +
STACK CFI 14b34 $r14: .cfa -24 + ^ .cfa: $rsp 24 +
STACK CFI 14b3a $r13: .cfa -32 + ^ .cfa: $rsp 32 +
STACK CFI 14b3c $r12: .cfa -40 + ^ .cfa: $rsp 40 +
STACK CFI 14b40 $rbp: .cfa -48 + ^ .cfa: $rsp 48 +
STACK CFI 14b41 $rbx: .cfa -56 + ^ .cfa: $rsp 56 +
STACK CFI 14b48 .cfa: $rsp 64 +
STACK CFI 14bad .cfa: $rsp 56 +
STACK CFI 14bb0 .cfa: $rsp 48 +
STACK CFI 14bb1 .cfa: $rsp 40 +
STACK CFI 14bb3 .cfa: $rsp 32 +
STACK CFI 14bb5 .cfa: $rsp 24 +
STACK CFI 14bb7 .cfa: $rsp 16 +
STACK CFI 14bb9 .cfa: $rsp 8 +
STACK CFI 14bc0 .cfa: $rsp 64 +
STACK CFI 14c93 .cfa: $rsp 56 +
STACK CFI 14c94 .cfa: $rsp 48 +
STACK CFI 14c9a .cfa: $rsp 40 +
STACK CFI 14c9c .cfa: $rsp 32 +
STACK CFI 14c9e .cfa: $rsp 24 +
STACK CFI 14ca0 .cfa: $rsp 16 +
STACK CFI 14ca2 .cfa: $rsp 8 +
STACK CFI 14ca8 .cfa: $rsp 64 +
STACK CFI 14d5d .cfa: $rsp 56 +
STACK CFI 14d60 .cfa: $rsp 48 +
STACK CFI 14d61 .cfa: $rsp 40 +
STACK CFI 14d63 .cfa: $rsp 32 +
STACK CFI 14d65 .cfa: $rsp 24 +
STACK CFI 14d67 .cfa: $rsp 16 +
STACK CFI 14d69 .cfa: $rsp 8 +
STACK CFI 14d6a .cfa: $rsp 64 +
STACK CFI INIT 14d90 257 .cfa: $rsp 8 + .ra: .cfa -8 + ^
STACK CFI 14db2 $r15: .cfa -16 + ^ .cfa: $rsp 16 +
STACK CFI 14db4 $r14: .cfa -24 + ^ .cfa: $rsp 24 +
STACK CFI 14db6 $r13: .cfa -32 + ^ .cfa: $rsp 32 +
STACK CFI 14db8 $r12: .cfa -40 + ^ .cfa: $rsp 40 +
STACK CFI 14db9 $rbp: .cfa -48 + ^ .cfa: $rsp 48 +
STACK CFI 14dba $rbx: .cfa -56 + ^ .cfa: $rsp 56 +
STACK CFI 14dc1 .cfa: $rsp 80 +
STACK CFI 14df1 .cfa: $rsp 56 +
STACK CFI 14df2 $rbx: $rbx .cfa: $rsp 48 +
STACK CFI 14df3 $rbp: $rbp .cfa: $rsp 40 +
STACK CFI 14df5 $r12: $r12 .cfa: $rsp 32 +
STACK CFI 14df7 $r13: $r13 .cfa: $rsp 24 +
STACK CFI 14df9 $r14: $r14 .cfa: $rsp 16 +
STACK CFI 14dfb $r15: $r15 .cfa: $rsp 8 +
STACK CFI 14e00 $r12: .cfa -40 + ^ $r13: .cfa -32 + ^ $r14: .cfa -24 + ^ $r15: .cfa -16 + ^ $rbp: .cfa -48 + ^ $rbx: .cfa -56 + ^ .cfa: $rsp 80 +
STACK CFI INIT 14ff0 250 .cfa: $rsp 8 + .ra: .cfa -8 + ^
STACK CFI 14ff2 $r15: .cfa -16 + ^ .cfa: $rsp 16 +
STACK CFI 14ff4 $r14: .cfa -24 + ^ .cfa: $rsp 24 +
STACK CFI 14ff6 $r13: .cfa -32 + ^ .cfa: $rsp 32 +
STACK CFI 14ff8 $r12: .cfa -40 + ^ .cfa: $rsp 40 +
STACK CFI 14ffc $rbp: .cfa -48 + ^ .cfa: $rsp 48 +
STACK CFI 14ffd $rbx: .cfa -56 + ^ .cfa: $rsp 56 +
STACK CFI 15004 .cfa: $rsp 80 +
STACK CFI 150b0 .cfa: $rsp 56 +
STACK CFI 150b1 .cfa: $rsp 48 +
STACK CFI 150b2 .cfa: $rsp 40 +
STACK CFI 150b4 .cfa: $rsp 32 +
STACK CFI 150b6 .cfa: $rsp 24 +
STACK CFI 150b8 .cfa: $rsp 16 +
STACK CFI 150ba .cfa: $rsp 8 +
STACK CFI 150c0 .cfa: $rsp 80 +
STACK CFI INIT 10c40 e0e .cfa: $rsp 8 + .ra: .cfa -8 + ^
STACK CFI 10c42 $r15: .cfa -16 + ^ .cfa: $rsp 16 +
STACK CFI 10c44 $r14: .cfa -24 + ^ .cfa: $rsp 24 +
STACK CFI 10c4a $r13: .cfa -32 + ^ .cfa: $rsp 32 +
STACK CFI 10c4c $r12: .cfa -40 + ^ .cfa: $rsp 40 +
STACK CFI 10c4d $rbp: .cfa -48 + ^ .cfa: $rsp 48 +
STACK CFI 10c4e $rbx: .cfa -56 + ^ .cfa: $rsp 56 +
STACK CFI 10c55 .cfa: $rsp 2448 +
STACK CFI 10f01 .cfa: $rsp 56 +
STACK CFI 10f02 .cfa: $rsp 48 +
STACK CFI 10f03 .cfa: $rsp 40 +
STACK CFI 10f05 .cfa: $rsp 32 +
STACK CFI 10f07 .cfa: $rsp 24 +
STACK CFI 10f09 .cfa: $rsp 16 +
STACK CFI 10f0b .cfa: $rsp 8 +
STACK CFI 10f10 .cfa: $rsp 2448 +
STACK CFI INIT 11a50 21d9 .cfa: $rsp 8 + .ra: .cfa -8 + ^
STACK CFI 11a51 $rbp: .cfa -16 + ^ .cfa: $rsp 16 +
STACK CFI 11a59 .cfa: $rbp 16 +
STACK CFI 11a61 $r12: .cfa -48 + ^ $r13: .cfa -40 + ^ $r14: .cfa -32 + ^ $r15: .cfa -24 + ^
STACK CFI 11a66 $rbx: .cfa -56 + ^
STACK CFI 11baf .cfa: $rsp 8 +
STACK CFI 11bb0 .cfa: $rbp 16 +
STACK CFI INIT 13c30 343 .cfa: $rsp 8 + .ra: .cfa -8 + ^
STACK CFI 13c32 $r15: .cfa -16 + ^ .cfa: $rsp 16 +
STACK CFI 13c34 $r14: .cfa -24 + ^ .cfa: $rsp 24 +
STACK CFI 13c39 $r13: .cfa -32 + ^ .cfa: $rsp 32 +
STACK CFI 13c3b $r12: .cfa -40 + ^ .cfa: $rsp 40 +
STACK CFI 13c3f $rbp: .cfa -48 + ^ .cfa: $rsp 48 +
STACK CFI 13c40 $rbx: .cfa -56 + ^ .cfa: $rsp 56 +
STACK CFI 13c47 .cfa: $rsp 240 +
STACK CFI 13dd5 .cfa: $rsp 56 +
STACK CFI 13dd6 .cfa: $rsp 48 +
STACK CFI 13dd7 .cfa: $rsp 40 +
STACK CFI 13dd9 .cfa: $rsp 32 +
STACK CFI 13ddb .cfa: $rsp 24 +
STACK CFI 13ddd .cfa: $rsp 16 +
STACK CFI 13ddf .cfa: $rsp 8 +
STACK CFI 13de0 .cfa: $rsp 240 +
STACK CFI INIT 13f80 496 .cfa: $rsp 8 + .ra: .cfa -8 + ^
STACK CFI 13f82 $r15: .cfa -16 + ^ .cfa: $rsp 16 +
STACK CFI 13f84 $r14: .cfa -24 + ^ .cfa: $rsp 24 +
STACK CFI 13f89 $r13: .cfa -32 + ^ .cfa: $rsp 32 +
STACK CFI 13f8b $r12: .cfa -40 + ^ .cfa: $rsp 40 +
STACK CFI 13f8c $rbp: .cfa -48 + ^ .cfa: $rsp 48 +
STACK CFI 13f8d $rbx: .cfa -56 + ^ .cfa: $rsp 56 +
STACK CFI 13f96 .cfa: $rsp 544 +
STACK CFI 141ff .cfa: $rsp 56 +
STACK CFI 14200 .cfa: $rsp 48 +
STACK CFI 14201 .cfa: $rsp 40 +
STACK CFI 14203 .cfa: $rsp 32 +
STACK CFI 14205 .cfa: $rsp 24 +
STACK CFI 14207 .cfa: $rsp 16 +
STACK CFI 14209 .cfa: $rsp 8 +
STACK CFI 1420a .cfa: $rsp 544 +
STACK CFI INIT 14420 422 .cfa: $rsp 8 + .ra: .cfa -8 + ^
STACK CFI 14422 $r15: .cfa -16 + ^ .cfa: $rsp 16 +
STACK CFI 14424 $r14: .cfa -24 + ^ .cfa: $rsp 24 +
STACK CFI 14429 $r13: .cfa -32 + ^ .cfa: $rsp 32 +
STACK CFI 1442b $r12: .cfa -40 + ^ .cfa: $rsp 40 +
STACK CFI 1442f $rbp: .cfa -48 + ^ .cfa: $rsp 48 +
STACK CFI 14430 $rbx: .cfa -56 + ^ .cfa: $rsp 56 +
STACK CFI 1443e .cfa: $rsp 480 +
STACK CFI 144d0 .cfa: $rsp 56 +
STACK CFI 144d1 .cfa: $rsp 48 +
STACK CFI 144d2 .cfa: $rsp 40 +
STACK CFI 144d4 .cfa: $rsp 32 +
STACK CFI 144d6 .cfa: $rsp 24 +
STACK CFI 144d8 .cfa: $rsp 16 +
STACK CFI 144da .cfa: $rsp 8 +
STACK CFI 144e0 .cfa: $rsp 480 +
STACK CFI INIT 14850 109 .cfa: $rsp 8 + .ra: .cfa -8 + ^
STACK CFI 14851 $rbp: .cfa -16 + ^ .cfa: $rsp 16 +
STACK CFI 14868 .cfa: $rbp 16 +
STACK CFI 1486f $r12: .cfa -40 + ^ $r13: .cfa -32 + ^ $r14: .cfa -24 + ^ $rbx: .cfa -48 + ^
STACK CFI 14916 .cfa: $rsp 8 +
STACK CFI 14917 .cfa: $rbp 16 +
STACK CFI INIT 14960 109 .cfa: $rsp 8 + .ra: .cfa -8 + ^
STACK CFI 14961 $rbp: .cfa -16 + ^ .cfa: $rsp 16 +
STACK CFI 14975 .cfa: $rbp 16 +
STACK CFI 1497c $r12: .cfa -40 + ^ $r13: .cfa -32 + ^ $r14: .cfa -24 + ^ $rbx: .cfa -48 + ^
STACK CFI 14a26 .cfa: $rsp 8 +
STACK CFI 14a27 .cfa: $rbp 16 +
STACK CFI INIT 14a70 26 .cfa: $rsp 8 + .ra: .cfa -8 + ^
STACK CFI 14a74 .cfa: $rsp 16 +
STACK CFI 14a76 .cfa: $rsp 24 +
STACK CFI 14a78 .cfa: $rsp 32 +
STACK CFI 14a95 .cfa: $rsp 8 +
STACK CFI INIT 14aa0 25 .cfa: $rsp 8 + .ra: .cfa -8 + ^
STACK CFI 14aa4 .cfa: $rsp 16 +
STACK CFI 14aa6 .cfa: $rsp 24 +
STACK CFI 14aa8 .cfa: $rsp 32 +
STACK CFI 14ac4 .cfa: $rsp 8 +
STACK CFI INIT 14ad0 24 .cfa: $rsp 8 + .ra: .cfa -8 + ^
STACK CFI 14ad4 .cfa: $rsp 16 +
STACK CFI 14ad8 .cfa: $rsp 24 +
STACK CFI 14ada .cfa: $rsp 32 +
STACK CFI 14af3 .cfa: $rsp 8 +
STACK CFI INIT 14b00 23 .cfa: $rsp 8 + .ra: .cfa -8 + ^
STACK CFI 14b04 .cfa: $rsp 16 +
STACK CFI 14b08 .cfa: $rsp 24 +
STACK CFI 14b0a .cfa: $rsp 32 +
STACK CFI 14b22 .cfa: $rsp 8 +
STACK CFI INIT 15240 23 .cfa: $rsp 8 + .ra: .cfa -8 + ^
STACK CFI 15259 .cfa: $rsp 16 +
STACK CFI INIT 15270 1a .cfa: $rsp 8 + .ra: .cfa -8 + ^
STACK CFI INIT 15290 78 .cfa: $rsp 8 + .ra: .cfa -8 + ^
STACK CFI 15292 $r12: .cfa -16 + ^ .cfa: $rsp 16 +
STACK CFI 15293 $rbp: .cfa -24 + ^ .cfa: $rsp 24 +
STACK CFI 15297 $rbx: .cfa -32 + ^ .cfa: $rsp 32 +
STACK CFI 152cf .cfa: $rsp 24 +
STACK CFI 152d0 .cfa: $rsp 16 +
STACK CFI 152d2 .cfa: $rsp 8 +
STACK CFI 152d8 .cfa: $rsp 32 +
STACK CFI 152e5 .cfa: $rsp 24 +
STACK CFI 152e6 .cfa: $rsp 16 +
STACK CFI 152e8 .cfa: $rsp 8 +
STACK CFI 152e9 .cfa: $rsp 32 +
STACK CFI INIT 15310 2c .cfa: $rsp 8 + .ra: .cfa -8 + ^
STACK CFI 15324 .cfa: $rsp 16 +
STACK CFI INIT 15340 5d .cfa: $rsp 8 + .ra: .cfa -8 + ^
STACK CFI 15342 $r12: .cfa -16 + ^ .cfa: $rsp 16 +
STACK CFI 15346 $rbp: .cfa -24 + ^ .cfa: $rsp 24 +
STACK CFI 15347 $rbx: .cfa -32 + ^ .cfa: $rsp 32 +
STACK CFI 1538a .cfa: $rsp 24 +
STACK CFI 1538b .cfa: $rsp 16 +
STACK CFI 1538d .cfa: $rsp 8 +
STACK CFI 15390 .cfa: $rsp 32 +
STACK CFI INIT 153a0 15 .cfa: $rsp 8 + .ra: .cfa -8 + ^
STACK CFI INIT 153c0 b6 .cfa: $rsp 8 + .ra: .cfa -8 + ^
STACK CFI 153c2 $r13: .cfa -16 + ^ .cfa: $rsp 16 +
STACK CFI 153c4 $r12: .cfa -24 + ^ .cfa: $rsp 24 +
STACK CFI 153c5 $rbp: .cfa -32 + ^ .cfa: $rsp 32 +
STACK CFI 153c6 $rbx: .cfa -40 + ^ .cfa: $rsp 40 +
STACK CFI 153ca .cfa: $rsp 48 +
STACK CFI 153fe .cfa: $rsp 40 +
STACK CFI 153ff .cfa: $rsp 32 +
STACK CFI 15400 .cfa: $rsp 24 +
STACK CFI 15402 .cfa: $rsp 16 +
STACK CFI 15404 .cfa: $rsp 8 +
STACK CFI 15408 .cfa: $rsp 48 +
STACK CFI INIT 15480 ff .cfa: $rsp 8 + .ra: .cfa -8 + ^
STACK CFI 15481 $rbp: .cfa -16 + ^ .cfa: $rsp 16 +
STACK CFI 15482 $rbx: .cfa -24 + ^ .cfa: $rsp 24 +
STACK CFI 15486 .cfa: $rsp 32 +
STACK CFI 15509 .cfa: $rsp 24 +
STACK CFI 1550a .cfa: $rsp 16 +
STACK CFI 1550b .cfa: $rsp 8 +
STACK CFI 15510 .cfa: $rsp 32 +
STACK CFI 1551d .cfa: $rsp 24 +
STACK CFI 15520 .cfa: $rsp 16 +
STACK CFI 15521 .cfa: $rsp 8 +
STACK CFI 15522 .cfa: $rsp 32 +
STACK CFI INIT 15580 f0 .cfa: $rsp 8 + .ra: .cfa -8 + ^
STACK CFI 15582 $r15: .cfa -16 + ^ .cfa: $rsp 16 +
STACK CFI 15584 $r14: .cfa -24 + ^ .cfa: $rsp 24 +
STACK CFI 15586 $r13: .cfa -32 + ^ .cfa: $rsp 32 +
STACK CFI 15588 $r12: .cfa -40 + ^ .cfa: $rsp 40 +
STACK CFI 15589 $rbp: .cfa -48 + ^ .cfa: $rsp 48 +
STACK CFI 1558a $rbx: .cfa -56 + ^ .cfa: $rsp 56 +
STACK CFI 1558e .cfa: $rsp 80 +
STACK CFI 1563a .cfa: $rsp 56 +
STACK CFI 1563b .cfa: $rsp 48 +
STACK CFI 1563c .cfa: $rsp 40 +
STACK CFI 1563e .cfa: $rsp 32 +
STACK CFI 15640 .cfa: $rsp 24 +
STACK CFI 15642 .cfa: $rsp 16 +
STACK CFI 15644 .cfa: $rsp 8 +
STACK CFI 15645 .cfa: $rsp 80 +
STACK CFI INIT 15670 ef .cfa: $rsp 8 + .ra: .cfa -8 + ^
STACK CFI 15672 $r15: .cfa -16 + ^ .cfa: $rsp 16 +
STACK CFI 15674 $r14: .cfa -24 + ^ .cfa: $rsp 24 +
STACK CFI 15676 $r13: .cfa -32 + ^ .cfa: $rsp 32 +
STACK CFI 15678 $r12: .cfa -40 + ^ .cfa: $rsp 40 +
STACK CFI 15679 $rbp: .cfa -48 + ^ .cfa: $rsp 48 +
STACK CFI 1567a $rbx: .cfa -56 + ^ .cfa: $rsp 56 +
STACK CFI 1567e .cfa: $rsp 80 +
STACK CFI 15729 .cfa: $rsp 56 +
STACK CFI 1572a .cfa: $rsp 48 +
STACK CFI 1572b .cfa: $rsp 40 +
STACK CFI 1572d .cfa: $rsp 32 +
STACK CFI 1572f .cfa: $rsp 24 +
STACK CFI 15731 .cfa: $rsp 16 +
STACK CFI 15733 .cfa: $rsp 8 +
STACK CFI 15734 .cfa: $rsp 80 +
STACK CFI INIT 15760 41 .cfa: $rsp 8 + .ra: .cfa -8 + ^
STACK CFI 15761 $rbx: .cfa -16 + ^ .cfa: $rsp 16 +
STACK CFI 15781 .cfa: $rsp 8 +
STACK CFI 15782 .cfa: $rsp 16 +
STACK CFI INIT 157b0 89 .cfa: $rsp 8 + .ra: .cfa -8 + ^
STACK CFI 157b4 .cfa: $rsp 16 +
STACK CFI 157d7 .cfa: $rsp 8 +
STACK CFI 157dc .cfa: $rsp 16 +
STACK CFI INIT 15840 df .cfa: $rsp 8 + .ra: .cfa -8 + ^
STACK CFI 15842 $r12: .cfa -16 + ^ .cfa: $rsp 16 +
STACK CFI 15843 $rbp: .cfa -24 + ^ .cfa: $rsp 24 +
STACK CFI 15844 $rbx: .cfa -32 + ^ .cfa: $rsp 32 +
STACK CFI 15848 .cfa: $rsp 64 +
STACK CFI 158a5 .cfa: $rsp 32 +
STACK CFI 158a6 .cfa: $rsp 24 +
STACK CFI 158a7 .cfa: $rsp 16 +
STACK CFI 158a9 .cfa: $rsp 8 +
STACK CFI 158b0 .cfa: $rsp 64 +
STACK CFI INIT 15940 23a .cfa: $rsp 8 + .ra: .cfa -8 + ^
STACK CFI 15942 $r15: .cfa -16 + ^ .cfa: $rsp 16 +
STACK CFI 15944 $r14: .cfa -24 + ^ .cfa: $rsp 24 +
STACK CFI 15946 $r13: .cfa -32 + ^ .cfa: $rsp 32 +
STACK CFI 15948 $r12: .cfa -40 + ^ .cfa: $rsp 40 +
STACK CFI 15949 $rbp: .cfa -48 + ^ .cfa: $rsp 48 +
STACK CFI 1594a $rbx: .cfa -56 + ^ .cfa: $rsp 56 +
STACK CFI 1594e .cfa: $rsp 128 +
STACK CFI 15a45 .cfa: $rsp 56 +
STACK CFI 15a46 .cfa: $rsp 48 +
STACK CFI 15a47 .cfa: $rsp 40 +
STACK CFI 15a49 .cfa: $rsp 32 +
STACK CFI 15a4b .cfa: $rsp 24 +
STACK CFI 15a4d .cfa: $rsp 16 +
STACK CFI 15a4f .cfa: $rsp 8 +
STACK CFI 15a50 .cfa: $rsp 128 +
STACK CFI INIT 15920 5 .cfa: $rsp 8 + .ra: .cfa -8 + ^
STACK CFI INIT 15b80 23a .cfa: $rsp 8 + .ra: .cfa -8 + ^
STACK CFI 15b82 $r15: .cfa -16 + ^ .cfa: $rsp 16 +
STACK CFI 15b84 $r14: .cfa -24 + ^ .cfa: $rsp 24 +
STACK CFI 15b86 $r13: .cfa -32 + ^ .cfa: $rsp 32 +
STACK CFI 15b88 $r12: .cfa -40 + ^ .cfa: $rsp 40 +
STACK CFI 15b89 $rbp: .cfa -48 + ^ .cfa: $rsp 48 +
STACK CFI 15b8a $rbx: .cfa -56 + ^ .cfa: $rsp 56 +
STACK CFI 15b8e .cfa: $rsp 128 +
STACK CFI 15c7c .cfa: $rsp 56 +
STACK CFI 15c7d .cfa: $rsp 48 +
STACK CFI 15c7e .cfa: $rsp 40 +
STACK CFI 15c80 .cfa: $rsp 32 +
STACK CFI 15c82 .cfa: $rsp 24 +
STACK CFI 15c84 .cfa: $rsp 16 +
STACK CFI 15c86 .cfa: $rsp 8 +
STACK CFI 15c90 .cfa: $rsp 128 +
STACK CFI INIT 15930 5 .cfa: $rsp 8 + .ra: .cfa -8 + ^
STACK CFI INIT 15dc0 c2 .cfa: $rsp 8 + .ra: .cfa -8 + ^
STACK CFI 15dc2 $r12: .cfa -16 + ^ .cfa: $rsp 16 +
STACK CFI 15dc3 $rbp: .cfa -24 + ^ .cfa: $rsp 24 +
STACK CFI 15dc7 $rbx: .cfa -32 + ^ .cfa: $rsp 32 +
STACK CFI 15dce .cfa: $rsp 48 +
STACK CFI 15e3a .cfa: $rsp 32 +
STACK CFI 15e3b .cfa: $rsp 24 +
STACK CFI 15e3c .cfa: $rsp 16 +
STACK CFI 15e3e .cfa: $rsp 8 +
STACK CFI 15e40 .cfa: $rsp 48 +
STACK CFI INIT 15e90 b1 .cfa: $rsp 8 + .ra: .cfa -8 + ^
STACK CFI 15e92 $r15: .cfa -16 + ^ .cfa: $rsp 16 +
STACK CFI 15e94 $r14: .cfa -24 + ^ .cfa: $rsp 24 +
STACK CFI 15e98 $r13: .cfa -32 + ^ .cfa: $rsp 32 +
STACK CFI 15e9a $r12: .cfa -40 + ^ .cfa: $rsp 40 +
STACK CFI 15e9e $rbp: .cfa -48 + ^ .cfa: $rsp 48 +
STACK CFI 15e9f $rbx: .cfa -56 + ^ .cfa: $rsp 56 +
STACK CFI 15eb2 .cfa: $rsp 96 +
STACK CFI 15f29 .cfa: $rsp 56 +
STACK CFI 15f2a .cfa: $rsp 48 +
STACK CFI 15f2b .cfa: $rsp 40 +
STACK CFI 15f2d .cfa: $rsp 32 +
STACK CFI 15f2f .cfa: $rsp 24 +
STACK CFI 15f31 .cfa: $rsp 16 +
STACK CFI 15f33 .cfa: $rsp 8 +
STACK CFI 15f38 .cfa: $rsp 96 +
STACK CFI INIT 15f50 7b .cfa: $rsp 8 + .ra: .cfa -8 + ^
STACK CFI 15f51 $rbx: .cfa -16 + ^ .cfa: $rsp 16 +
STACK CFI 15f5d .cfa: $rsp 64 +
STACK CFI 15fc4 .cfa: $rsp 16 +
STACK CFI 15fc5 .cfa: $rsp 8 +
STACK CFI 15fc6 .cfa: $rsp 64 +
STACK CFI INIT 15fd0 173 .cfa: $rsp 8 + .ra: .cfa -8 + ^
STACK CFI 15fd2 $r14: .cfa -16 + ^ .cfa: $rsp 16 +
STACK CFI 15fd4 $r13: .cfa -24 + ^ .cfa: $rsp 24 +
STACK CFI 15fd6 $r12: .cfa -32 + ^ .cfa: $rsp 32 +
STACK CFI 15fd7 $rbp: .cfa -40 + ^ .cfa: $rsp 40 +
STACK CFI 15fda $rbx: .cfa -48 + ^ .cfa: $rsp 48 +
STACK CFI 15fe4 .cfa: $rsp 80 +
STACK CFI 160ef .cfa: $rsp 48 +
STACK CFI 160f0 .cfa: $rsp 40 +
STACK CFI 160f1 .cfa: $rsp 32 +
STACK CFI 160f3 .cfa: $rsp 24 +
STACK CFI 160f5 .cfa: $rsp 16 +
STACK CFI 160f7 .cfa: $rsp 8 +
STACK CFI 16100 .cfa: $rsp 80 +
STACK CFI INIT 16330 2bd .cfa: $rsp 8 + .ra: .cfa -8 + ^
STACK CFI 1633b $r15: .cfa -16 + ^ .cfa: $rsp 16 +
STACK CFI 1633d $r14: .cfa -24 + ^ .cfa: $rsp 24 +
STACK CFI 16342 $r13: .cfa -32 + ^ .cfa: $rsp 32 +
STACK CFI 16344 $r12: .cfa -40 + ^ .cfa: $rsp 40 +
STACK CFI 16345 $rbp: .cfa -48 + ^ .cfa: $rsp 48 +
STACK CFI 16346 $rbx: .cfa -56 + ^ .cfa: $rsp 56 +
STACK CFI 16350 .cfa: $rsp 80 +
STACK CFI 163d1 .cfa: $rsp 56 +
STACK CFI 163d2 $rbx: $rbx .cfa: $rsp 48 +
STACK CFI 163d3 $rbp: $rbp .cfa: $rsp 40 +
STACK CFI 163d5 $r12: $r12 .cfa: $rsp 32 +
STACK CFI 163d7 $r13: $r13 .cfa: $rsp 24 +
STACK CFI 163d9 $r14: $r14 .cfa: $rsp 16 +
STACK CFI 163db $r15: $r15 .cfa: $rsp 8 +
STACK CFI 163e0 $r12: .cfa -40 + ^ $r13: .cfa -32 + ^ $r14: .cfa -24 + ^ $r15: .cfa -16 + ^ $rbp: .cfa -48 + ^ $rbx: .cfa -56 + ^ .cfa: $rsp 80 +
STACK CFI 16431 .cfa: $rsp 56 +
STACK CFI 16432 $rbx: $rbx .cfa: $rsp 48 +
STACK CFI 16433 $rbp: $rbp .cfa: $rsp 40 +
STACK CFI 16435 $r12: $r12 .cfa: $rsp 32 +
STACK CFI 16437 $r13: $r13 .cfa: $rsp 24 +
STACK CFI 16439 $r14: $r14 .cfa: $rsp 16 +
STACK CFI 1643b $r15: $r15 .cfa: $rsp 8 +
STACK CFI 16440 $r12: .cfa -40 + ^ $r13: .cfa -32 + ^ $r14: .cfa -24 + ^ $r15: .cfa -16 + ^ $rbp: .cfa -48 + ^ $rbx: .cfa -56 + ^ .cfa: $rsp 80 +
STACK CFI 1655e .cfa: $rsp 56 +
STACK CFI 1655f $rbx: $rbx .cfa: $rsp 48 +
STACK CFI 16560 $rbp: $rbp .cfa: $rsp 40 +
STACK CFI 16562 $r12: $r12 .cfa: $rsp 32 +
STACK CFI 16564 $r13: $r13 .cfa: $rsp 24 +
STACK CFI 16566 $r14: $r14 .cfa: $rsp 16 +
STACK CFI 16568 $r15: $r15 .cfa: $rsp 8 +
STACK CFI 16570 $r12: .cfa -40 + ^ $r13: .cfa -32 + ^ $r14: .cfa -24 + ^ $r15: .cfa -16 + ^ $rbp: .cfa -48 + ^ $rbx: .cfa -56 + ^ .cfa: $rsp 80 +
STACK CFI INIT 165f0 14d .cfa: $rsp 8 + .ra: .cfa -8 + ^
STACK CFI 1663a $r15: .cfa -16 + ^ .cfa: $rsp 16 +
STACK CFI 1663c $r14: .cfa -24 + ^ .cfa: $rsp 24 +
STACK CFI 1663e $r13: .cfa -32 + ^ .cfa: $rsp 32 +
STACK CFI 16640 $r12: .cfa -40 + ^ .cfa: $rsp 40 +
STACK CFI 16641 $rbp: .cfa -48 + ^ .cfa: $rsp 48 +
STACK CFI 16642 $rbx: .cfa -56 + ^ .cfa: $rsp 56 +
STACK CFI 1664c .cfa: $rsp 64 +
STACK CFI 16709 .cfa: $rsp 56 +
STACK CFI 1670a $rbx: $rbx .cfa: $rsp 48 +
STACK CFI 1670b $rbp: $rbp .cfa: $rsp 40 +
STACK CFI 1670d $r12: $r12 .cfa: $rsp 32 +
STACK CFI 1670f $r13: $r13 .cfa: $rsp 24 +
STACK CFI 16711 $r14: $r14 .cfa: $rsp 16 +
STACK CFI 16713 $r15: $r15 .cfa: $rsp 8 +
STACK CFI 16718 $r12: .cfa -40 + ^ $r13: .cfa -32 + ^ $r14: .cfa -24 + ^ $r15: .cfa -16 + ^ $rbp: .cfa -48 + ^ $rbx: .cfa -56 + ^ .cfa: $rsp 64 +
STACK CFI INIT 16150 f0 .cfa: $rsp 8 + .ra: .cfa -8 + ^
STACK CFI 16152 $r12: .cfa -16 + ^ .cfa: $rsp 16 +
STACK CFI 16153 $rbp: .cfa -24 + ^ .cfa: $rsp 24 +
STACK CFI 16157 $rbx: .cfa -32 + ^ .cfa: $rsp 32 +
STACK CFI 1615e .cfa: $rsp 64 +
STACK CFI 1620d .cfa: $rsp 32 +
STACK CFI 1620e .cfa: $rsp 24 +
STACK CFI 1620f .cfa: $rsp 16 +
STACK CFI 16211 .cfa: $rsp 8 +
STACK CFI 16218 .cfa: $rsp 64 +
STACK CFI INIT 16240 e8 .cfa: $rsp 8 + .ra: .cfa -8 + ^
STACK CFI 16242 $r12: .cfa -16 + ^ .cfa: $rsp 16 +
STACK CFI 16243 $rbp: .cfa -24 + ^ .cfa: $rsp 24 +
STACK CFI 16247 $rbx: .cfa -32 + ^ .cfa: $rsp 32 +
STACK CFI 1624e .cfa: $rsp 64 +
STACK CFI 162fb .cfa: $rsp 32 +
STACK CFI 162fc .cfa: $rsp 24 +
STACK CFI 162fd .cfa: $rsp 16 +
STACK CFI 162ff .cfa: $rsp 8 +
STACK CFI 16300 .cfa: $rsp 64 +
STACK CFI INIT 16740 1f .cfa: $rsp 8 + .ra: .cfa -8 + ^
STACK CFI 1674b .cfa: $rsp 16 +
STACK CFI 1675e .cfa: $rsp 8 +
STACK CFI INIT 16760 5 .cfa: $rsp 8 + .ra: .cfa -8 + ^
STACK CFI INIT 16770 452 .cfa: $rsp 8 + .ra: .cfa -8 + ^
STACK CFI 16772 $r15: .cfa -16 + ^ .cfa: $rsp 16 +
STACK CFI 16774 $r14: .cfa -24 + ^ .cfa: $rsp 24 +
STACK CFI 16776 $r13: .cfa -32 + ^ .cfa: $rsp 32 +
STACK CFI 16778 $r12: .cfa -40 + ^ .cfa: $rsp 40 +
STACK CFI 16779 $rbp: .cfa -48 + ^ .cfa: $rsp 48 +
STACK CFI 1677a $rbx: .cfa -56 + ^ .cfa: $rsp 56 +
STACK CFI 1677e .cfa: $rsp 96 +
STACK CFI 167c7 .cfa: $rsp 56 +
STACK CFI 167ca .cfa: $rsp 48 +
STACK CFI 167cb .cfa: $rsp 40 +
STACK CFI 167cd .cfa: $rsp 32 +
STACK CFI 167cf .cfa: $rsp 24 +
STACK CFI 167d1 .cfa: $rsp 16 +
STACK CFI 167d3 .cfa: $rsp 8 +
STACK CFI 167d8 .cfa: $rsp 96 +
STACK CFI 168fe .cfa: $rsp 56 +
STACK CFI 168ff .cfa: $rsp 48 +
STACK CFI 16900 .cfa: $rsp 40 +
STACK CFI 16902 .cfa: $rsp 32 +
STACK CFI 16904 .cfa: $rsp 24 +
STACK CFI 16906 .cfa: $rsp 16 +
STACK CFI 16908 .cfa: $rsp 8 +
STACK CFI 16910 .cfa: $rsp 96 +
STACK CFI INIT 16bd0 287 .cfa: $rsp 8 + .ra: .cfa -8 + ^
STACK CFI 16bd5 $r14: .cfa -16 + ^ .cfa: $rsp 16 +
STACK CFI 16bd7 $r13: .cfa -24 + ^ .cfa: $rsp 24 +
STACK CFI 16bd9 $r12: .cfa -32 + ^ .cfa: $rsp 32 +
STACK CFI 16bda $rbp: .cfa -40 + ^ .cfa: $rsp 40 +
STACK CFI 16bdb $rbx: .cfa -48 + ^ .cfa: $rsp 48 +
STACK CFI 16c1a .cfa: $rsp 40 +
STACK CFI 16c1d .cfa: $rsp 32 +
STACK CFI 16c1f .cfa: $rsp 24 +
STACK CFI 16c21 .cfa: $rsp 16 +
STACK CFI 16c23 .cfa: $rsp 8 +
STACK CFI 16c28 .cfa: $rsp 48 +
STACK CFI 16cc9 .cfa: $rsp 40 +
STACK CFI 16cca .cfa: $rsp 32 +
STACK CFI 16ccc .cfa: $rsp 24 +
STACK CFI 16cce .cfa: $rsp 16 +
STACK CFI 16cd0 .cfa: $rsp 8 +
STACK CFI 16cd8 .cfa: $rsp 48 +
STACK CFI INIT 16e60 135 .cfa: $rsp 8 + .ra: .cfa -8 + ^
STACK CFI 16e62 $r15: .cfa -16 + ^ .cfa: $rsp 16 +
STACK CFI 16e64 $r14: .cfa -24 + ^ .cfa: $rsp 24 +
STACK CFI 16e66 $r13: .cfa -32 + ^ .cfa: $rsp 32 +
STACK CFI 16e68 $r12: .cfa -40 + ^ .cfa: $rsp 40 +
STACK CFI 16e6c $rbp: .cfa -48 + ^ .cfa: $rsp 48 +
STACK CFI 16e6d $rbx: .cfa -56 + ^ .cfa: $rsp 56 +
STACK CFI 16e71 .cfa: $rsp 96 +
STACK CFI 16f5e .cfa: $rsp 56 +
STACK CFI 16f5f .cfa: $rsp 48 +
STACK CFI 16f60 .cfa: $rsp 40 +
STACK CFI 16f62 .cfa: $rsp 32 +
STACK CFI 16f64 .cfa: $rsp 24 +
STACK CFI 16f66 .cfa: $rsp 16 +
STACK CFI 16f68 .cfa: $rsp 8 +
STACK CFI 16f69 .cfa: $rsp 96 +
STACK CFI INIT 16fa0 e2 .cfa: $rsp 8 + .ra: .cfa -8 + ^
STACK CFI 16fa2 $r13: .cfa -16 + ^ .cfa: $rsp 16 +
STACK CFI 16fa4 $r12: .cfa -24 + ^ .cfa: $rsp 24 +
STACK CFI 16fa5 $rbp: .cfa -32 + ^ .cfa: $rsp 32 +
STACK CFI 16fa6 $rbx: .cfa -40 + ^ .cfa: $rsp 40 +
STACK CFI 16fae .cfa: $rsp 64 +
STACK CFI 17010 .cfa: $rsp 40 +
STACK CFI 17011 .cfa: $rsp 32 +
STACK CFI 17012 .cfa: $rsp 24 +
STACK CFI 17014 .cfa: $rsp 16 +
STACK CFI 17016 .cfa: $rsp 8 +
STACK CFI 17020 .cfa: $rsp 64 +
STACK CFI INIT 17090 c7 .cfa: $rsp 8 + .ra: .cfa -8 + ^
STACK CFI 17091 $rbx: .cfa -16 + ^ .cfa: $rsp 16 +
STACK CFI 17098 .cfa: $rsp 48 +
STACK CFI 17127 .cfa: $rsp 16 +
STACK CFI 17128 .cfa: $rsp 8 +
STACK CFI 17130 .cfa: $rsp 48 +
STACK CFI INIT 17160 49 .cfa: $rsp 8 + .ra: .cfa -8 + ^
STACK CFI 17161 $rbx: .cfa -16 + ^ .cfa: $rsp 16 +
STACK CFI 17168 .cfa: $rsp 32 +
STACK CFI 1719f .cfa: $rsp 16 +
STACK CFI 171a3 .cfa: $rsp 8 +
STACK CFI 171a4 .cfa: $rsp 32 +
STACK CFI INIT 171b0 462 .cfa: $rsp 8 + .ra: .cfa -8 + ^
STACK CFI 171b2 $r15: .cfa -16 + ^ .cfa: $rsp 16 +
STACK CFI 171b4 $r14: .cfa -24 + ^ .cfa: $rsp 24 +
STACK CFI 171b9 $r13: .cfa -32 + ^ .cfa: $rsp 32 +
STACK CFI 171bb $r12: .cfa -40 + ^ .cfa: $rsp 40 +
STACK CFI 171bc $rbp: .cfa -48 + ^ .cfa: $rsp 48 +
STACK CFI 171bd $rbx: .cfa -56 + ^ .cfa: $rsp 56 +
STACK CFI 171c9 .cfa: $rsp 144 +
STACK CFI 1727f .cfa: $rsp 56 +
STACK CFI 17280 .cfa: $rsp 48 +
STACK CFI 17281 .cfa: $rsp 40 +
STACK CFI 17283 .cfa: $rsp 32 +
STACK CFI 17285 .cfa: $rsp 24 +
STACK CFI 17287 .cfa: $rsp 16 +
STACK CFI 17289 .cfa: $rsp 8 +
STACK CFI 17290 .cfa: $rsp 144 +
STACK CFI 17329 .cfa: $rsp 152 +
STACK CFI 1732f .cfa: $rsp 160 +
STACK CFI 17346 .cfa: $rsp 152 +
STACK CFI 1734c .cfa: $rsp 144 +
STACK CFI INIT 17620 7c .cfa: $rsp 8 + .ra: .cfa -8 + ^
STACK CFI 17621 $rbp: .cfa -16 + ^ .cfa: $rsp 16 +
STACK CFI 17622 $rbx: .cfa -24 + ^ .cfa: $rsp 24 +
STACK CFI 1762b .cfa: $rsp 64 +
STACK CFI 1767a .cfa: $rsp 24 +
STACK CFI 1767b .cfa: $rsp 16 +
STACK CFI 1767c .cfa: $rsp 8 +
STACK CFI 17680 .cfa: $rsp 64 +
STACK CFI INIT 177a0 16 .cfa: $rsp 8 + .ra: .cfa -8 + ^
STACK CFI 177a4 .cfa: $rsp 16 +
STACK CFI 177af .cfa: $rsp 8 +
STACK CFI INIT 176a0 73 .cfa: $rsp 8 + .ra: .cfa -8 + ^
STACK CFI 176a1 $rbx: .cfa -16 + ^ .cfa: $rsp 16 +
STACK CFI 17712 .cfa: $rsp 8 +
STACK CFI INIT 17720 75 .cfa: $rsp 8 + .ra: .cfa -8 + ^
STACK CFI 17724 $rbx: .cfa -16 + ^ .cfa: $rsp 16 +
STACK CFI 17743 .cfa: $rsp 24 +
STACK CFI 17747 .cfa: $rsp 32 +
STACK CFI 1774c .cfa: $rsp 40 +
STACK CFI 17751 .cfa: $rsp 48 +
STACK CFI 17762 .cfa: $rsp 16 +
STACK CFI 17775 .cfa: $rsp 8 +
STACK CFI 17776 .cfa: $rsp 16 +
STACK CFI INIT 177c0 1e .cfa: $rsp 8 + .ra: .cfa -8 + ^
STACK CFI INIT 177e0 46 .cfa: $rsp 8 + .ra: .cfa -8 + ^
STACK CFI INIT 17830 56 .cfa: $rsp 8 + .ra: .cfa -8 + ^
STACK CFI INIT 17890 4c .cfa: $rsp 8 + .ra: .cfa -8 + ^
STACK CFI INIT 178e0 39 .cfa: $rsp 8 + .ra: .cfa -8 + ^
STACK CFI INIT 17920 3c .cfa: $rsp 8 + .ra: .cfa -8 + ^
STACK CFI INIT 17960 34 .cfa: $rsp 8 + .ra: .cfa -8 + ^
STACK CFI INIT 179a0 26 .cfa: $rsp 8 + .ra: .cfa -8 + ^
STACK CFI INIT 179d0 34 .cfa: $rsp 8 + .ra: .cfa -8 + ^
STACK CFI INIT 17a10 7c .cfa: $rsp 8 + .ra: .cfa -8 + ^
STACK CFI INIT 17a90 3a .cfa: $rsp 8 + .ra: .cfa -8 + ^
STACK CFI INIT 17ad0 1f .cfa: $rsp 8 + .ra: .cfa -8 + ^
STACK CFI INIT 17af0 38 .cfa: $rsp 8 + .ra: .cfa -8 + ^
STACK CFI INIT 17b30 3b .cfa: $rsp 8 + .ra: .cfa -8 + ^
STACK CFI 17b36 $rbx: .cfa -16 + ^ .cfa: $rsp 16 +
STACK CFI 17b53 $rbx: $rbx .cfa: $rsp 8 +
STACK CFI 17b58 $rbx: .cfa -16 + ^ .cfa: $rsp 16 +
STACK CFI 17b67 $rbx: $rbx .cfa: $rsp 8 +
STACK CFI INIT 17b70 6c .cfa: $rsp 8 + .ra: .cfa -8 + ^
STACK CFI 17b74 .cfa: $rsp 32 +
STACK CFI 17bc8 .cfa: $rsp 8 +
STACK CFI 17bd0 .cfa: $rsp 32 +
STACK CFI INIT 17be0 10 .cfa: $rsp 8 + .ra: .cfa -8 + ^
STACK CFI INIT 17bf0 4b .cfa: $rsp 8 + .ra: .cfa -8 + ^
STACK CFI 17bf1 $rbp: .cfa -16 + ^ .cfa: $rsp 16 +
STACK CFI 17bf2 $rbx: .cfa -24 + ^ .cfa: $rsp 24 +
STACK CFI 17bf9 .cfa: $rsp 32 +
STACK CFI 17c2c .cfa: $rsp 24 +
STACK CFI 17c2d .cfa: $rsp 16 +
STACK CFI 17c2e .cfa: $rsp 8 +
STACK CFI 17c30 .cfa: $rsp 32 +
STACK CFI INIT 17c40 5 .cfa: $rsp 8 + .ra: .cfa -8 + ^
STACK CFI INIT 17c50 1af .cfa: $rsp 8 + .ra: .cfa -8 + ^
STACK CFI 17c52 $r15: .cfa -16 + ^ .cfa: $rsp 16 +
STACK CFI 17c54 $r14: .cfa -24 + ^ .cfa: $rsp 24 +
STACK CFI 17c56 $r13: .cfa -32 + ^ .cfa: $rsp 32 +
STACK CFI 17c58 $r12: .cfa -40 + ^ .cfa: $rsp 40 +
STACK CFI 17c5c $rbp: .cfa -48 + ^ .cfa: $rsp 48 +
STACK CFI 17c5d $rbx: .cfa -56 + ^ .cfa: $rsp 56 +
STACK CFI 17c6c .cfa: $rsp 224 +
STACK CFI 17d5d .cfa: $rsp 56 +
STACK CFI 17d5e .cfa: $rsp 48 +
STACK CFI 17d5f .cfa: $rsp 40 +
STACK CFI 17d61 .cfa: $rsp 32 +
STACK CFI 17d63 .cfa: $rsp 24 +
STACK CFI 17d65 .cfa: $rsp 16 +
STACK CFI 17d67 .cfa: $rsp 8 +
STACK CFI 17d70 .cfa: $rsp 224 +
STACK CFI INIT 17e00 14 .cfa: $rsp 8 + .ra: .cfa -8 + ^
STACK CFI INIT 17e20 40 .cfa: $rsp 8 + .ra: .cfa -8 + ^
STACK CFI 17e26 $rbx: .cfa -16 + ^ .cfa: $rsp 16 +
STACK CFI 17e41 .cfa: $rsp 8 +
STACK CFI 17e48 .cfa: $rsp 16 +
STACK CFI 17e5f .cfa: $rsp 8 +
STACK CFI INIT 17e60 2 .cfa: $rsp 8 + .ra: .cfa -8 + ^
STACK CFI INIT 17e70 213 .cfa: $rsp 8 + .ra: .cfa -8 + ^
STACK CFI 17e72 $r15: .cfa -16 + ^ .cfa: $rsp 16 +
STACK CFI 17e74 $r14: .cfa -24 + ^ .cfa: $rsp 24 +
STACK CFI 17e7b $r13: .cfa -32 + ^ .cfa: $rsp 32 +
STACK CFI 17e7d $r12: .cfa -40 + ^ .cfa: $rsp 40 +
STACK CFI 17e7e $rbp: .cfa -48 + ^ .cfa: $rsp 48 +
STACK CFI 17e7f $rbx: .cfa -56 + ^ .cfa: $rsp 56 +
STACK CFI 17e89 .cfa: $rsp 208 +
STACK CFI 18017 .cfa: $rsp 56 +
STACK CFI 18018 .cfa: $rsp 48 +
STACK CFI 18019 .cfa: $rsp 40 +
STACK CFI 1801b .cfa: $rsp 32 +
STACK CFI 1801d .cfa: $rsp 24 +
STACK CFI 1801f .cfa: $rsp 16 +
STACK CFI 18021 .cfa: $rsp 8 +
STACK CFI 18028 .cfa: $rsp 208 +
STACK CFI INIT 18090 5 .cfa: $rsp 8 + .ra: .cfa -8 + ^
STACK CFI INIT 180a0 23 .cfa: $rsp 8 + .ra: .cfa -8 + ^
STACK CFI 180a5 $rbx: .cfa -16 + ^ .cfa: $rsp 16 +
STACK CFI 180bf $rbx: $rbx .cfa: $rsp 8 +
STACK CFI INIT 180d0 8 .cfa: $rsp 8 + .ra: .cfa -8 + ^
STACK CFI INIT 180e0 2fc .cfa: $rsp 8 + .ra: .cfa -8 + ^
STACK CFI INIT 183e0 44 .cfa: $rsp 8 + .ra: .cfa -8 + ^
STACK CFI 1840c .cfa: $rsp 16 +
STACK CFI INIT 18430 47 .cfa: $rsp 8 + .ra: .cfa -8 + ^
STACK CFI 1845f .cfa: $rsp 16 +
STACK CFI INIT 18480 8 .cfa: $rsp 8 + .ra: .cfa -8 + ^
STACK CFI INIT 18490 8 .cfa: $rsp 8 + .ra: .cfa -8 + ^
STACK CFI INIT 184a0 25c .cfa: $rsp 8 + .ra: .cfa -8 + ^
STACK CFI INIT 18700 c7 .cfa: $rsp 8 + .ra: .cfa -8 + ^
STACK CFI INIT 187d0 fd .cfa: $rsp 8 + .ra: .cfa -8 + ^
STACK CFI 187d1 $rbp: .cfa -16 + ^ .cfa: $rsp 16 +
STACK CFI 187d2 $rbx: .cfa -24 + ^ .cfa: $rsp 24 +
STACK CFI 18859 .cfa: $rsp 16 +
STACK CFI 1885a .cfa: $rsp 8 +
STACK CFI 18860 .cfa: $rsp 24 +
STACK CFI 188ba .cfa: $rsp 16 +
STACK CFI 188bb .cfa: $rsp 8 +
STACK CFI 188bc .cfa: $rsp 24 +
STACK CFI INIT 188d0 118 .cfa: $rsp 8 + .ra: .cfa -8 + ^
STACK CFI 188d5 $r14: .cfa -16 + ^ .cfa: $rsp 16 +
STACK CFI 188d7 $r13: .cfa -24 + ^ .cfa: $rsp 24 +
STACK CFI 188dc $r12: .cfa -32 + ^ .cfa: $rsp 32 +
STACK CFI 188dd $rbp: .cfa -40 + ^ .cfa: $rsp 40 +
STACK CFI 188e1 $rbx: .cfa -48 + ^ .cfa: $rsp 48 +
STACK CFI 18976 .cfa: $rsp 40 +
STACK CFI 18982 .cfa: $rsp 32 +
STACK CFI 18984 .cfa: $rsp 24 +
STACK CFI 18986 .cfa: $rsp 16 +
STACK CFI 18988 .cfa: $rsp 8 +
STACK CFI 18990 .cfa: $rsp 48 +
STACK CFI 189af .cfa: $rsp 40 +
STACK CFI 189b8 .cfa: $rsp 32 +
STACK CFI 189ba .cfa: $rsp 24 +
STACK CFI 189bc .cfa: $rsp 16 +
STACK CFI 189be .cfa: $rsp 8 +
STACK CFI 189c0 .cfa: $rsp 48 +
STACK CFI 189c1 .cfa: $rsp 40 +
STACK CFI 189cd .cfa: $rsp 32 +
STACK CFI 189cf .cfa: $rsp 24 +
STACK CFI 189d1 .cfa: $rsp 16 +
STACK CFI 189d3 .cfa: $rsp 8 +
STACK CFI 189d4 .cfa: $rsp 48 +
STACK CFI 189d5 .cfa: $rsp 40 +
STACK CFI 189e1 .cfa: $rsp 32 +
STACK CFI 189e3 .cfa: $rsp 24 +
STACK CFI 189e5 .cfa: $rsp 16 +
STACK CFI 189e7 .cfa: $rsp 8 +
STACK CFI INIT 189f0 1ff .cfa: $rsp 8 + .ra: .cfa -8 + ^
STACK CFI 189f2 $r13: .cfa -16 + ^ .cfa: $rsp 16 +
STACK CFI 189f4 $r12: .cfa -24 + ^ .cfa: $rsp 24 +
STACK CFI 189f5 $rbp: .cfa -32 + ^ .cfa: $rsp 32 +
STACK CFI 189f6 $rbx: .cfa -40 + ^ .cfa: $rsp 40 +
STACK CFI 18b12 .cfa: $rsp 32 +
STACK CFI 18b13 .cfa: $rsp 24 +
STACK CFI 18b18 .cfa: $rsp 16 +
STACK CFI 18b1a .cfa: $rsp 8 +
STACK CFI 18b20 .cfa: $rsp 40 +
STACK CFI 18b35 .cfa: $rsp 32 +
STACK CFI 18b36 .cfa: $rsp 24 +
STACK CFI 18b38 .cfa: $rsp 16 +
STACK CFI 18b3a .cfa: $rsp 8 +
STACK CFI 18b40 .cfa: $rsp 40 +
STACK CFI 18b65 .cfa: $rsp 32 +
STACK CFI 18b66 .cfa: $rsp 24 +
STACK CFI 18b68 .cfa: $rsp 16 +
STACK CFI 18b6a .cfa: $rsp 8 +
STACK CFI 18b70 .cfa: $rsp 40 +
STACK CFI 18b99 .cfa: $rsp 32 +
STACK CFI 18b9a .cfa: $rsp 24 +
STACK CFI 18b9c .cfa: $rsp 16 +
STACK CFI 18b9e .cfa: $rsp 8 +
STACK CFI 18b9f .cfa: $rsp 40 +
STACK CFI INIT 18bf0 2b .cfa: $rsp 8 + .ra: .cfa -8 + ^
STACK CFI INIT 18c20 26f .cfa: $rsp 8 + .ra: .cfa -8 + ^
STACK CFI 18c22 $r15: .cfa -16 + ^ .cfa: $rsp 16 +
STACK CFI 18c24 $r14: .cfa -24 + ^ .cfa: $rsp 24 +
STACK CFI 18c26 $r13: .cfa -32 + ^ .cfa: $rsp 32 +
STACK CFI 18c28 $r12: .cfa -40 + ^ .cfa: $rsp 40 +
STACK CFI 18c29 $rbp: .cfa -48 + ^ .cfa: $rsp 48 +
STACK CFI 18c2a $rbx: .cfa -56 + ^ .cfa: $rsp 56 +
STACK CFI 18c2e .cfa: $rsp 80 +
STACK CFI 18d7f .cfa: $rsp 56 +
STACK CFI 18d80 .cfa: $rsp 48 +
STACK CFI 18d81 .cfa: $rsp 40 +
STACK CFI 18d83 .cfa: $rsp 32 +
STACK CFI 18d85 .cfa: $rsp 24 +
STACK CFI 18d87 .cfa: $rsp 16 +
STACK CFI 18d89 .cfa: $rsp 8 +
STACK CFI 18d90 .cfa: $rsp 80 +
STACK CFI INIT 18e90 19a .cfa: $rsp 8 + .ra: .cfa -8 + ^
STACK CFI 18e92 $r13: .cfa -16 + ^ .cfa: $rsp 16 +
STACK CFI 18e94 $r12: .cfa -24 + ^ .cfa: $rsp 24 +
STACK CFI 18e97 $rbp: .cfa -32 + ^ .cfa: $rsp 32 +
STACK CFI 18e98 $rbx: .cfa -40 + ^ .cfa: $rsp 40 +
STACK CFI 18f7d .cfa: $rsp 32 +
STACK CFI 18f7e .cfa: $rsp 24 +
STACK CFI 18f80 .cfa: $rsp 16 +
STACK CFI 18f82 .cfa: $rsp 8 +
STACK CFI 18f88 .cfa: $rsp 40 +
STACK CFI 1900c .cfa: $rsp 32 +
STACK CFI 1900d .cfa: $rsp 24 +
STACK CFI 1900f .cfa: $rsp 16 +
STACK CFI 19011 .cfa: $rsp 8 +
STACK CFI 19012 .cfa: $rsp 40 +
STACK CFI INIT 19030 287 .cfa: $rsp 8 + .ra: .cfa -8 + ^
STACK CFI 19032 $r15: .cfa -16 + ^ .cfa: $rsp 16 +
STACK CFI 19034 $r14: .cfa -24 + ^ .cfa: $rsp 24 +
STACK CFI 19036 $r13: .cfa -32 + ^ .cfa: $rsp 32 +
STACK CFI 19038 $r12: .cfa -40 + ^ .cfa: $rsp 40 +
STACK CFI 19039 $rbp: .cfa -48 + ^ .cfa: $rsp 48 +
STACK CFI 1903a $rbx: .cfa -56 + ^ .cfa: $rsp 56 +
STACK CFI 1903e .cfa: $rsp 88 +
STACK CFI 191c5 .cfa: $rsp 56 +
STACK CFI 191c6 .cfa: $rsp 48 +
STACK CFI 191c7 .cfa: $rsp 40 +
STACK CFI 191c9 .cfa: $rsp 32 +
STACK CFI 191cb .cfa: $rsp 24 +
STACK CFI 191cd .cfa: $rsp 16 +
STACK CFI 191cf .cfa: $rsp 8 +
STACK CFI 191d0 .cfa: $rsp 88 +
STACK CFI INIT 192c0 65 .cfa: $rsp 8 + .ra: .cfa -8 + ^
STACK CFI 192c2 $r15: .cfa -16 + ^ .cfa: $rsp 16 +
STACK CFI 192c4 $r14: .cfa -24 + ^ .cfa: $rsp 24 +
STACK CFI 192c9 $r13: .cfa -32 + ^ .cfa: $rsp 32 +
STACK CFI 192cb $r12: .cfa -40 + ^ .cfa: $rsp 40 +
STACK CFI 192d3 $rbp: .cfa -48 + ^ .cfa: $rsp 48 +
STACK CFI 192db $rbx: .cfa -56 + ^ .cfa: $rsp 56 +
STACK CFI 192e8 .cfa: $rsp 64 +
STACK CFI 1931a .cfa: $rsp 56 +
STACK CFI 1931b .cfa: $rsp 48 +
STACK CFI 1931c .cfa: $rsp 40 +
STACK CFI 1931e .cfa: $rsp 32 +
STACK CFI 19320 .cfa: $rsp 24 +
STACK CFI 19322 .cfa: $rsp 16 +
STACK CFI 19324 .cfa: $rsp 8 +
STACK CFI INIT 19330 2 .cfa: $rsp 8 + .ra: .cfa -8 + ^
