MODULE Linux x86_64 8A0D3C1EADB4865FDC91DA786A0E07640 just_crash
INFO CODE_ID 1E3C0D8AB4AD5F86DC91DA786A0E07648011AC9E
FUNC 1b90 4a 0 google_breakpad::PageAllocator::FreeAll()
FUNC 1bda 20 0 google_breakpad::ProcCpuInfoReader::GetValueAndLen(unsigned long*)
FUNC 1bfa 20 0 google_breakpad::TypedMDRVA<MDRawDirectory>::CopyIndex(unsigned int, MDRawDirectory*)
FUNC 1c1a 1d 0 google_breakpad::TypedMDRVA<MDRawDirectory>::CopyIndex(unsigned int, MDRawDirectory*)
FUNC 1c38 20 0 google_breakpad::TypedMDRVA<unsigned int>::CopyIndexAfterObject(unsigned int, void const*, unsigned long)
FUNC 1c58 20 0 MinidumpWriter::MinidumpWriter
FUNC 1c78 2c 0 MinidumpWriter::~MinidumpWriter
FUNC 1ca4 1ec 0 MinidumpWriter::WriteFile
FUNC 1e90 67 0 MinidumpWriter::WriteProcFile
FUNC 1ff6 48 0 dumpCallback
FUNC 203e 166 0 main
FUNC 21a4 3a 0 google_breakpad::MicrodumpExtraInfo::MicrodumpExtraInfo()
FUNC 21de a0 0 google_breakpad::MinidumpDescriptor::MinidumpDescriptor(std::__cxx11::basic_string<char, std::char_traits<char>, std::allocator<char> > const&)
FUNC 227e 12 0 google_breakpad::MinidumpDescriptor::path() const
FUNC 2290 2f 0 google_breakpad::MinidumpDescriptor::~MinidumpDescriptor()
FUNC 22c0 14b 0 google_breakpad::ExceptionHandler::InstallHandlersLocked()
FUNC 2410 7c 0 google_breakpad::ExceptionHandler::RestoreHandlersLocked()
FUNC 2490 341 0 google_breakpad::ExceptionHandler::~ExceptionHandler()
FUNC 27e0 d1 0 google_breakpad::ExceptionHandler::SendContinueSignalToChild()
FUNC 28c0 4bc 0 google_breakpad::ExceptionHandler::GenerateDump(google_breakpad::ExceptionHandler::CrashContext*)
FUNC 2d80 1da 0 google_breakpad::ExceptionHandler::HandleSignal(int, siginfo_t*, void*)
FUNC 2f60 1c1 0 google_breakpad::ExceptionHandler::SignalHandler(int, siginfo_t*, void*)
FUNC 3130 7f 0 google_breakpad::ExceptionHandler::SimulateSignalDelivery(int)
FUNC 31b0 e5 0 google_breakpad::ExceptionHandler::WaitForContinueSignal()
FUNC 32a0 8b 0 google_breakpad::ExceptionHandler::DoDump(int, void const*, unsigned long)
FUNC 3330 28 0 google_breakpad::ExceptionHandler::ThreadEntry(void*)
FUNC 3360 195 0 google_breakpad::ExceptionHandler::WriteMinidump()
FUNC 3500 e3 0 google_breakpad::ExceptionHandler::AddMappingInfo(std::__cxx11::basic_string<char, std::char_traits<char>, std::allocator<char> > const&, unsigned char const*, unsigned long, unsigned long, unsigned long)
FUNC 35f0 91 0 google_breakpad::ExceptionHandler::RegisterAppMemory(void*, unsigned long)
FUNC 3690 52 0 google_breakpad::ExceptionHandler::UnregisterAppMemory(void*)
FUNC 36f0 23d 0 google_breakpad::ExceptionHandler::WriteMinidumpForChild(int, int, std::__cxx11::basic_string<char, std::char_traits<char>, std::allocator<char> > const&, bool (*)(google_breakpad::MinidumpDescriptor const&, void*, bool), void*)
FUNC 3930 396 0 google_breakpad::ExceptionHandler::ExceptionHandler(google_breakpad::MinidumpDescriptor const&, bool (*)(void*), bool (*)(google_breakpad::MinidumpDescriptor const&, void*, bool), void*, bool, int)
FUNC 3cd0 27d 0 google_breakpad::ExceptionHandler::WriteMinidump(std::__cxx11::basic_string<char, std::char_traits<char>, std::allocator<char> > const&, bool (*)(google_breakpad::MinidumpDescriptor const&, void*, bool), void*)
FUNC 3f50 ea 0 void std::vector<google_breakpad::ExceptionHandler*, std::allocator<google_breakpad::ExceptionHandler*> >::_M_emplace_back_aux<google_breakpad::ExceptionHandler*>(google_breakpad::ExceptionHandler*&&)
FUNC 4040 c2 0 void std::__cxx11::basic_string<char, std::char_traits<char>, std::allocator<char> >::_M_construct<char*>(char*, char*, std::forward_iterator_tag)
FUNC 4110 a4 0 google_breakpad::MinidumpDescriptor::MinidumpDescriptor(google_breakpad::MinidumpDescriptor const&)
FUNC 41c0 317 0 google_breakpad::MinidumpDescriptor::UpdatePath()
FUNC 44e0 a2 0 google_breakpad::MinidumpDescriptor::operator=(google_breakpad::MinidumpDescriptor const&)
FUNC 4590 33 0 logger::write(char const*, unsigned long)
FUNC 45d0 1ab5 0 google_breakpad::WriteMicrodump(int, void const*, unsigned long, std::__cxx11::list<google_breakpad::MappingEntry, std::allocator<google_breakpad::MappingEntry> > const&, google_breakpad::MicrodumpExtraInfo const&)
FUNC 6090 3ea 0 void std::vector<unsigned char, google_breakpad::PageStdAllocator<unsigned char> >::_M_range_insert<unsigned char const*>(__gnu_cxx::__normal_iterator<unsigned char*, std::vector<unsigned char, google_breakpad::PageStdAllocator<unsigned char> > >, unsigned char const*, unsigned char const*, std::forward_iterator_tag)
FUNC 6480 6 0 google_breakpad::LinuxDumper::LateInit()
FUNC 6490 835 0 google_breakpad::LinuxDumper::LinuxDumper(int, char const*)
FUNC 6cd0 67 0 google_breakpad::LinuxDumper::~LinuxDumper()
FUNC 6d40 12 0 google_breakpad::LinuxDumper::~LinuxDumper()
FUNC 6d60 4a 0 google_breakpad::LinuxDumper::GetMappingAbsolutePath(google_breakpad::MappingInfo const&, char*) const
FUNC 6db0 19f 0 ElfFileSoName
FUNC 6f50 1a7 0 google_breakpad::LinuxDumper::HandleDeletedFileInMapping(char*) const
FUNC 7100 e6 0 google_breakpad::LinuxDumper::GetMappingEffectiveNameAndPath(google_breakpad::MappingInfo const&, char*, unsigned long, char*, unsigned long)
FUNC 71f0 119 0 google_breakpad::LinuxDumper::ReadAuxv()
FUNC 7310 32 0 google_breakpad::LinuxDumper::Init()
FUNC 7350 4b 0 google_breakpad::LinuxDumper::FindMapping(void const*) const
FUNC 73a0 7d 0 google_breakpad::LinuxDumper::GetStackInfo(void const**, unsigned long*, unsigned long)
FUNC 7420 53 0 google_breakpad::LinuxDumper::HandleDeletedFileInMapping(char*) const
FUNC 7480 34b 0 google_breakpad::LinuxDumper::ElfFileIdentifierForMapping(google_breakpad::MappingInfo const&, bool, unsigned int, google_breakpad::wasteful_vector<unsigned char>&)
FUNC 77d0 930 0 google_breakpad::LinuxDumper::EnumerateMappings()
FUNC 8100 143 0 google_breakpad::PageAllocator::Alloc(unsigned long)
FUNC 8250 288 0 std::vector<google_breakpad::MappingInfo*, google_breakpad::PageStdAllocator<google_breakpad::MappingInfo*> >::_M_default_append(unsigned long)
FUNC 84e0 3 0 google_breakpad::LinuxPtraceDumper::IsPostMortem() const
FUNC 84f0 187 0 google_breakpad::LinuxPtraceDumper::CopyFromProcess(void*, int, void const*, unsigned long)
FUNC 8680 bb 0 google_breakpad::LinuxPtraceDumper::BuildProcPath(char*, int, char const*) const
FUNC 8740 bc 0 google_breakpad::LinuxPtraceDumper::ThreadsResume()
FUNC 8800 5fd 0 google_breakpad::LinuxPtraceDumper::EnumerateThreads()
FUNC 8e00 51d 0 google_breakpad::LinuxPtraceDumper::GetThreadInfoByIndex(unsigned long, google_breakpad::ThreadInfo*)
FUNC 9320 27 0 google_breakpad::LinuxPtraceDumper::LinuxPtraceDumper(int)
FUNC 9350 251 0 google_breakpad::LinuxPtraceDumper::ThreadsSuspend()
FUNC 95b0 13 0 google_breakpad::LinuxPtraceDumper::~LinuxPtraceDumper()
FUNC 95d0 20 0 google_breakpad::LinuxPtraceDumper::~LinuxPtraceDumper()
FUNC 95f0 288 0 std::vector<int, google_breakpad::PageStdAllocator<int> >::_M_default_append(unsigned long)
FUNC 9880 e0e 0 MinidumpWriter::WriteThreadListStream
FUNC a690 21d9 0 MinidumpWriter::Dump
FUNC c870 343 0 google_breakpad::WriteMinidump(char const*, std::__cxx11::list<google_breakpad::MappingEntry, std::allocator<google_breakpad::MappingEntry> > const&, std::__cxx11::list<google_breakpad::AppMemory, std::allocator<google_breakpad::AppMemory> > const&, google_breakpad::LinuxDumper*)
FUNC cbc0 496 0 google_breakpad::WriteMinidump(char const*, int, int)
FUNC d060 422 0 WriteMinidumpImpl
FUNC d490 109 0 google_breakpad::WriteMinidump(char const*, int, void const*, unsigned long)
FUNC d5a0 109 0 google_breakpad::WriteMinidump(int, int, void const*, unsigned long)
FUNC d6b0 26 0 google_breakpad::WriteMinidump(char const*, int, void const*, unsigned long, std::__cxx11::list<google_breakpad::MappingEntry, std::allocator<google_breakpad::MappingEntry> > const&, std::__cxx11::list<google_breakpad::AppMemory, std::allocator<google_breakpad::AppMemory> > const&)
FUNC d6e0 25 0 google_breakpad::WriteMinidump(int, int, void const*, unsigned long, std::__cxx11::list<google_breakpad::MappingEntry, std::allocator<google_breakpad::MappingEntry> > const&, std::__cxx11::list<google_breakpad::AppMemory, std::allocator<google_breakpad::AppMemory> > const&)
FUNC d710 24 0 google_breakpad::WriteMinidump(char const*, long, int, void const*, unsigned long, std::__cxx11::list<google_breakpad::MappingEntry, std::allocator<google_breakpad::MappingEntry> > const&, std::__cxx11::list<google_breakpad::AppMemory, std::allocator<google_breakpad::AppMemory> > const&)
FUNC d740 23 0 google_breakpad::WriteMinidump(int, long, int, void const*, unsigned long, std::__cxx11::list<google_breakpad::MappingEntry, std::allocator<google_breakpad::MappingEntry> > const&, std::__cxx11::list<google_breakpad::AppMemory, std::allocator<google_breakpad::AppMemory> > const&)
FUNC d770 259 0 google_breakpad::ProcCpuInfoReader::GetNextField(char const**)
FUNC d9d0 257 0 std::vector<char, google_breakpad::PageStdAllocator<char> >::resize(unsigned long)
FUNC dc30 250 0 void std::vector<MDMemoryDescriptor, google_breakpad::PageStdAllocator<MDMemoryDescriptor> >::_M_emplace_back_aux<MDMemoryDescriptor const&>(MDMemoryDescriptor const&)
FUNC de80 23 0 google_breakpad::TypedMDRVA<MDString>::CopyIndexAfterObject(unsigned int, void const*, unsigned long)
FUNC deb0 1a 0 google_breakpad::MinidumpFileWriter::MinidumpFileWriter()
FUNC ded0 78 0 google_breakpad::MinidumpFileWriter::Open(char const*)
FUNC df50 2c 0 google_breakpad::MinidumpFileWriter::SetFile(int)
FUNC df80 5d 0 google_breakpad::MinidumpFileWriter::Close()
FUNC dfe0 15 0 google_breakpad::MinidumpFileWriter::~MinidumpFileWriter()
FUNC e000 b6 0 google_breakpad::MinidumpFileWriter::Allocate(unsigned long)
FUNC e0c0 ff 0 google_breakpad::MinidumpFileWriter::Copy(unsigned int, void const*, long)
FUNC e1c0 f0 0 google_breakpad::MinidumpFileWriter::CopyStringToMDString(wchar_t const*, unsigned int, google_breakpad::TypedMDRVA<MDString>*)
FUNC e2b0 ef 0 google_breakpad::MinidumpFileWriter::CopyStringToMDString(char const*, unsigned int, google_breakpad::TypedMDRVA<MDString>*)
FUNC e3a0 41 0 google_breakpad::UntypedMDRVA::Allocate(unsigned long)
FUNC e3f0 89 0 google_breakpad::UntypedMDRVA::Copy(unsigned int, void const*, unsigned long)
FUNC e480 df 0 google_breakpad::MinidumpFileWriter::WriteMemory(void const*, unsigned long, MDMemoryDescriptor*)
FUNC e560 5 0 google_breakpad::MinidumpFileWriter::WriteString(wchar_t const*, unsigned int, MDLocationDescriptor*)
FUNC e570 5 0 google_breakpad::MinidumpFileWriter::WriteString(char const*, unsigned int, MDLocationDescriptor*)
FUNC e580 23a 0 bool google_breakpad::MinidumpFileWriter::WriteStringCore<wchar_t>(wchar_t const*, unsigned int, MDLocationDescriptor*)
FUNC e7c0 23a 0 bool google_breakpad::MinidumpFileWriter::WriteStringCore<char>(char const*, unsigned int, MDLocationDescriptor*)
FUNC ea00 c2 0 void std::__cxx11::basic_string<char, std::char_traits<char>, std::allocator<char> >::_M_construct<char const*>(char const*, char const*, std::forward_iterator_tag)
FUNC ead0 b1 0 google_breakpad::UTF8ToUTF16Char(char const*, int, unsigned short*)
FUNC eb90 7b 0 google_breakpad::UTF32ToUTF16Char(wchar_t, unsigned short*)
FUNC ec10 173 0 google_breakpad::UTF16ToUTF8[abi:cxx11](std::vector<unsigned short, std::allocator<unsigned short> > const&, bool)
FUNC ed90 f0 0 google_breakpad::UTF32ToUTF16(wchar_t const*, std::vector<unsigned short, std::allocator<unsigned short> >*)
FUNC ee80 e8 0 google_breakpad::UTF8ToUTF16(char const*, std::vector<unsigned short, std::allocator<unsigned short> >*)
FUNC ef70 2bd 0 std::vector<unsigned short, std::allocator<unsigned short> >::_M_fill_insert(__gnu_cxx::__normal_iterator<unsigned short*, std::vector<unsigned short, std::allocator<unsigned short> > >, unsigned long, unsigned short const&)
FUNC f230 14d 0 std::vector<unsigned short, std::allocator<unsigned short> >::_M_default_append(unsigned long)
FUNC f380 1f 0 google_breakpad::IsValidElf(void const*)
FUNC f3a0 5 0 google_breakpad::ElfClass(void const*)
FUNC f3b0 452 0 google_breakpad::FindElfSection(void const*, char const*, unsigned int, void const**, unsigned long*, int*)
FUNC f810 287 0 google_breakpad::FindElfSegment(void const*, unsigned int, void const**, unsigned long*, int*)
FUNC faa0 135 0 google_breakpad::bytes_to_hex_string
FUNC fbe0 e2 0 google_breakpad::FileID::FileID(char const*)
FUNC fcd0 c7 0 google_breakpad::FileID::ConvertIdentifierToUUIDString[abi:cxx11](google_breakpad::wasteful_vector<unsigned char> const&)
FUNC fda0 49 0 google_breakpad::FileID::ConvertIdentifierToString[abi:cxx11](google_breakpad::wasteful_vector<unsigned char> const&)
FUNC fdf0 462 0 google_breakpad::FileID::ElfFileIdentifierFromMappedFile(void const*, google_breakpad::wasteful_vector<unsigned char>&)
FUNC 10260 7c 0 google_breakpad::FileID::ElfFileIdentifier(google_breakpad::wasteful_vector<unsigned char>&)
FUNC 102e0 73 0 CreateGUID(MDGUID*)
FUNC 10360 75 0 GUIDToString(MDGUID const*, char*, int)
FUNC 103e0 16 0 GUIDGenerator::InitOnceImpl()
FUNC 10400 1e 0 my_strlen
FUNC 10420 46 0 my_strcmp
FUNC 10470 56 0 my_strncmp
FUNC 104d0 4c 0 my_strtoui
FUNC 10520 39 0 my_uint_len
FUNC 10560 3c 0 my_uitos
FUNC 105a0 34 0 my_strchr
FUNC 105e0 26 0 my_strrchr
FUNC 10610 34 0 my_memchr
FUNC 10650 7c 0 my_read_hex_ptr
FUNC 106d0 3a 0 my_read_decimal_ptr
FUNC 10710 1f 0 my_memset
FUNC 10730 38 0 my_strlcpy
FUNC 10770 3b 0 my_strlcat
FUNC 107b0 6c 0 my_isspace
FUNC 10820 10 0 google_breakpad::MemoryMappedFile::MemoryMappedFile()
FUNC 10830 4b 0 google_breakpad::MemoryMappedFile::Unmap()
FUNC 10880 5 0 google_breakpad::MemoryMappedFile::~MemoryMappedFile()
FUNC 10890 1af 0 google_breakpad::MemoryMappedFile::Map(char const*, unsigned long)
FUNC 10a40 14 0 google_breakpad::MemoryMappedFile::MemoryMappedFile(char const*, unsigned long)
FUNC 10a60 40 0 google_breakpad::SafeReadLink(char const*, char*, unsigned long)
FUNC 10aa0 2 0 CrashGenerationClientImpl::~CrashGenerationClientImpl
FUNC 10ab0 213 0 CrashGenerationClientImpl::RequestDump
FUNC 10cd0 5 0 CrashGenerationClientImpl::~CrashGenerationClientImpl
FUNC 10ce0 23 0 google_breakpad::CrashGenerationClient::TryCreate(int)
FUNC 10d10 8 0 google_breakpad::ThreadInfo::GetInstructionPointer() const
FUNC 10d20 2fc 0 google_breakpad::ThreadInfo::FillCPUContext(MDRawContextAMD64*) const
FUNC 11020 44 0 google_breakpad::ThreadInfo::GetGeneralPurposeRegisters(void**, unsigned long*)
FUNC 11070 47 0 google_breakpad::ThreadInfo::GetFloatingPointRegisters(void**, unsigned long*)
FUNC 110c0 8 0 google_breakpad::UContextReader::GetStackPointer(ucontext const*)
FUNC 110d0 8 0 google_breakpad::UContextReader::GetInstructionPointer(ucontext const*)
FUNC 110e0 25c 0 google_breakpad::UContextReader::FillCPUContext(MDRawContextAMD64*, ucontext const*, _libc_fpstate const*)
FUNC 11340 c7 0 isLegalUTF8
FUNC 11410 fd 0 ConvertUTF32toUTF16
FUNC 11510 118 0 ConvertUTF16toUTF32
FUNC 11630 1ff 0 ConvertUTF16toUTF8
FUNC 11830 2b 0 isLegalUTF8Sequence
FUNC 11860 26f 0 ConvertUTF8toUTF16
FUNC 11ad0 19a 0 ConvertUTF32toUTF8
FUNC 11c70 287 0 ConvertUTF8toUTF32
PUBLIC 1798 0 _init
PUBLIC 1b90 0 google_breakpad::PageAllocator::FreeAll() [clone .isra.7]
PUBLIC 1bda 0 google_breakpad::ProcCpuInfoReader::GetValueAndLen(unsigned long*) [clone .isra.20] [clone .part.21]
PUBLIC 1bfa 0 google_breakpad::TypedMDRVA<MDRawDirectory>::CopyIndex(unsigned int, MDRawDirectory*) [clone .isra.32] [clone .part.33]
PUBLIC 1c1a 0 google_breakpad::TypedMDRVA<MDRawDirectory>::CopyIndex(unsigned int, MDRawDirectory*) [clone .isra.32]
PUBLIC 1c38 0 google_breakpad::TypedMDRVA<unsigned int>::CopyIndexAfterObject(unsigned int, void const*, unsigned long) [clone .isra.34] [clone .part.35]
PUBLIC 1c58 0 (anonymous namespace)::MinidumpWriter::MinidumpWriter(char const*, int, google_breakpad::ExceptionHandler::CrashContext const*, std::__cxx11::list<google_breakpad::MappingEntry, std::allocator<google_breakpad::MappingEntry> > const&, std::__cxx11::list<google_breakpad::AppMemory, std::allocator<google_breakpad::AppMemory> > const&, google_breakpad::LinuxDumper*) [clone .part.93]
PUBLIC 1c78 0 (anonymous namespace)::MinidumpWriter::~MinidumpWriter() [clone .constprop.119]
PUBLIC 1ca4 0 (anonymous namespace)::MinidumpWriter::WriteFile(MDLocationDescriptor*, char const*) [clone .constprop.116]
PUBLIC 1e90 0 (anonymous namespace)::MinidumpWriter::WriteProcFile(MDLocationDescriptor*, int, char const*) [clone .constprop.115]
PUBLIC 1f00 0 _start
PUBLIC 1f30 0 deregister_tm_clones
PUBLIC 1f70 0 register_tm_clones
PUBLIC 1fb0 0 __do_global_dtors_aux
PUBLIC 1fd0 0 frame_dummy
PUBLIC 1ff6 0 dumpCallback(google_breakpad::MinidumpDescriptor const&, void*, bool)
PUBLIC 203e 0 main
PUBLIC 21a4 0 google_breakpad::MicrodumpExtraInfo::MicrodumpExtraInfo()
PUBLIC 21de 0 google_breakpad::MinidumpDescriptor::MinidumpDescriptor(std::__cxx11::basic_string<char, std::char_traits<char>, std::allocator<char> > const&)
PUBLIC 227e 0 google_breakpad::MinidumpDescriptor::path() const
PUBLIC 2290 0 google_breakpad::MinidumpDescriptor::~MinidumpDescriptor()
PUBLIC 22c0 0 google_breakpad::ExceptionHandler::InstallHandlersLocked()
PUBLIC 2410 0 google_breakpad::ExceptionHandler::RestoreHandlersLocked()
PUBLIC 2490 0 google_breakpad::ExceptionHandler::~ExceptionHandler()
PUBLIC 27e0 0 google_breakpad::ExceptionHandler::SendContinueSignalToChild()
PUBLIC 28c0 0 google_breakpad::ExceptionHandler::GenerateDump(google_breakpad::ExceptionHandler::CrashContext*)
PUBLIC 2d80 0 google_breakpad::ExceptionHandler::HandleSignal(int, siginfo_t*, void*)
PUBLIC 2f60 0 google_breakpad::ExceptionHandler::SignalHandler(int, siginfo_t*, void*)
PUBLIC 3130 0 google_breakpad::ExceptionHandler::SimulateSignalDelivery(int)
PUBLIC 31b0 0 google_breakpad::ExceptionHandler::WaitForContinueSignal()
PUBLIC 32a0 0 google_breakpad::ExceptionHandler::DoDump(int, void const*, unsigned long)
PUBLIC 3330 0 google_breakpad::ExceptionHandler::ThreadEntry(void*)
PUBLIC 3360 0 google_breakpad::ExceptionHandler::WriteMinidump()
PUBLIC 3500 0 google_breakpad::ExceptionHandler::AddMappingInfo(std::__cxx11::basic_string<char, std::char_traits<char>, std::allocator<char> > const&, unsigned char const*, unsigned long, unsigned long, unsigned long)
PUBLIC 35f0 0 google_breakpad::ExceptionHandler::RegisterAppMemory(void*, unsigned long)
PUBLIC 3690 0 google_breakpad::ExceptionHandler::UnregisterAppMemory(void*)
PUBLIC 36f0 0 google_breakpad::ExceptionHandler::WriteMinidumpForChild(int, int, std::__cxx11::basic_string<char, std::char_traits<char>, std::allocator<char> > const&, bool (*)(google_breakpad::MinidumpDescriptor const&, void*, bool), void*)
PUBLIC 3930 0 google_breakpad::ExceptionHandler::ExceptionHandler(google_breakpad::MinidumpDescriptor const&, bool (*)(void*), bool (*)(google_breakpad::MinidumpDescriptor const&, void*, bool), void*, bool, int)
PUBLIC 3cd0 0 google_breakpad::ExceptionHandler::WriteMinidump(std::__cxx11::basic_string<char, std::char_traits<char>, std::allocator<char> > const&, bool (*)(google_breakpad::MinidumpDescriptor const&, void*, bool), void*)
PUBLIC 3f50 0 void std::vector<google_breakpad::ExceptionHandler*, std::allocator<google_breakpad::ExceptionHandler*> >::_M_emplace_back_aux<google_breakpad::ExceptionHandler*>(google_breakpad::ExceptionHandler*&&)
PUBLIC 4040 0 void std::__cxx11::basic_string<char, std::char_traits<char>, std::allocator<char> >::_M_construct<char*>(char*, char*, std::forward_iterator_tag) [clone .isra.16]
PUBLIC 4110 0 google_breakpad::MinidumpDescriptor::MinidumpDescriptor(google_breakpad::MinidumpDescriptor const&)
PUBLIC 41c0 0 google_breakpad::MinidumpDescriptor::UpdatePath()
PUBLIC 44e0 0 google_breakpad::MinidumpDescriptor::operator=(google_breakpad::MinidumpDescriptor const&)
PUBLIC 4590 0 logger::write(char const*, unsigned long)
PUBLIC 45d0 0 google_breakpad::WriteMicrodump(int, void const*, unsigned long, std::__cxx11::list<google_breakpad::MappingEntry, std::allocator<google_breakpad::MappingEntry> > const&, google_breakpad::MicrodumpExtraInfo const&)
PUBLIC 6090 0 void std::vector<unsigned char, google_breakpad::PageStdAllocator<unsigned char> >::_M_range_insert<unsigned char const*>(__gnu_cxx::__normal_iterator<unsigned char*, std::vector<unsigned char, google_breakpad::PageStdAllocator<unsigned char> > >, unsigned char const*, unsigned char const*, std::forward_iterator_tag)
PUBLIC 6480 0 google_breakpad::LinuxDumper::LateInit()
PUBLIC 6490 0 google_breakpad::LinuxDumper::LinuxDumper(int, char const*)
PUBLIC 6cd0 0 google_breakpad::LinuxDumper::~LinuxDumper()
PUBLIC 6d40 0 google_breakpad::LinuxDumper::~LinuxDumper()
PUBLIC 6d60 0 google_breakpad::LinuxDumper::GetMappingAbsolutePath(google_breakpad::MappingInfo const&, char*) const
PUBLIC 6db0 0 google_breakpad::(anonymous namespace)::ElfFileSoName(google_breakpad::LinuxDumper const&, google_breakpad::MappingInfo const&, char*, unsigned long) [clone .constprop.56]
PUBLIC 6f50 0 google_breakpad::LinuxDumper::HandleDeletedFileInMapping(char*) const [clone .part.10] [clone .constprop.57]
PUBLIC 7100 0 google_breakpad::LinuxDumper::GetMappingEffectiveNameAndPath(google_breakpad::MappingInfo const&, char*, unsigned long, char*, unsigned long)
PUBLIC 71f0 0 google_breakpad::LinuxDumper::ReadAuxv()
PUBLIC 7310 0 google_breakpad::LinuxDumper::Init()
PUBLIC 7350 0 google_breakpad::LinuxDumper::FindMapping(void const*) const
PUBLIC 73a0 0 google_breakpad::LinuxDumper::GetStackInfo(void const**, unsigned long*, unsigned long)
PUBLIC 7420 0 google_breakpad::LinuxDumper::HandleDeletedFileInMapping(char*) const
PUBLIC 7480 0 google_breakpad::LinuxDumper::ElfFileIdentifierForMapping(google_breakpad::MappingInfo const&, bool, unsigned int, google_breakpad::wasteful_vector<unsigned char>&)
PUBLIC 77d0 0 google_breakpad::LinuxDumper::EnumerateMappings()
PUBLIC 8100 0 google_breakpad::PageAllocator::Alloc(unsigned long)
PUBLIC 8250 0 std::vector<google_breakpad::MappingInfo*, google_breakpad::PageStdAllocator<google_breakpad::MappingInfo*> >::_M_default_append(unsigned long)
PUBLIC 84e0 0 google_breakpad::LinuxPtraceDumper::IsPostMortem() const
PUBLIC 84f0 0 google_breakpad::LinuxPtraceDumper::CopyFromProcess(void*, int, void const*, unsigned long)
PUBLIC 8680 0 google_breakpad::LinuxPtraceDumper::BuildProcPath(char*, int, char const*) const
PUBLIC 8740 0 google_breakpad::LinuxPtraceDumper::ThreadsResume()
PUBLIC 8800 0 google_breakpad::LinuxPtraceDumper::EnumerateThreads()
PUBLIC 8e00 0 google_breakpad::LinuxPtraceDumper::GetThreadInfoByIndex(unsigned long, google_breakpad::ThreadInfo*)
PUBLIC 9320 0 google_breakpad::LinuxPtraceDumper::LinuxPtraceDumper(int)
PUBLIC 9350 0 google_breakpad::LinuxPtraceDumper::ThreadsSuspend()
PUBLIC 95b0 0 google_breakpad::LinuxPtraceDumper::~LinuxPtraceDumper()
PUBLIC 95d0 0 google_breakpad::LinuxPtraceDumper::~LinuxPtraceDumper()
PUBLIC 95f0 0 std::vector<int, google_breakpad::PageStdAllocator<int> >::_M_default_append(unsigned long)
PUBLIC 9880 0 (anonymous namespace)::MinidumpWriter::WriteThreadListStream(MDRawDirectory*) [clone .constprop.105]
PUBLIC a690 0 (anonymous namespace)::MinidumpWriter::Dump() [clone .constprop.104]
PUBLIC c870 0 google_breakpad::WriteMinidump(char const*, std::__cxx11::list<google_breakpad::MappingEntry, std::allocator<google_breakpad::MappingEntry> > const&, std::__cxx11::list<google_breakpad::AppMemory, std::allocator<google_breakpad::AppMemory> > const&, google_breakpad::LinuxDumper*)
PUBLIC cbc0 0 google_breakpad::WriteMinidump(char const*, int, int)
PUBLIC d060 0 (anonymous namespace)::WriteMinidumpImpl(char const*, int, long, int, void const*, unsigned long, std::__cxx11::list<google_breakpad::MappingEntry, std::allocator<google_breakpad::MappingEntry> > const&, std::__cxx11::list<google_breakpad::AppMemory, std::allocator<google_breakpad::AppMemory> > const&)
PUBLIC d490 0 google_breakpad::WriteMinidump(char const*, int, void const*, unsigned long)
PUBLIC d5a0 0 google_breakpad::WriteMinidump(int, int, void const*, unsigned long)
PUBLIC d6b0 0 google_breakpad::WriteMinidump(char const*, int, void const*, unsigned long, std::__cxx11::list<google_breakpad::MappingEntry, std::allocator<google_breakpad::MappingEntry> > const&, std::__cxx11::list<google_breakpad::AppMemory, std::allocator<google_breakpad::AppMemory> > const&)
PUBLIC d6e0 0 google_breakpad::WriteMinidump(int, int, void const*, unsigned long, std::__cxx11::list<google_breakpad::MappingEntry, std::allocator<google_breakpad::MappingEntry> > const&, std::__cxx11::list<google_breakpad::AppMemory, std::allocator<google_breakpad::AppMemory> > const&)
PUBLIC d710 0 google_breakpad::WriteMinidump(char const*, long, int, void const*, unsigned long, std::__cxx11::list<google_breakpad::MappingEntry, std::allocator<google_breakpad::MappingEntry> > const&, std::__cxx11::list<google_breakpad::AppMemory, std::allocator<google_breakpad::AppMemory> > const&)
PUBLIC d740 0 google_breakpad::WriteMinidump(int, long, int, void const*, unsigned long, std::__cxx11::list<google_breakpad::MappingEntry, std::allocator<google_breakpad::MappingEntry> > const&, std::__cxx11::list<google_breakpad::AppMemory, std::allocator<google_breakpad::AppMemory> > const&)
PUBLIC d770 0 google_breakpad::ProcCpuInfoReader::GetNextField(char const**)
PUBLIC d9d0 0 std::vector<char, google_breakpad::PageStdAllocator<char> >::resize(unsigned long)
PUBLIC dc30 0 void std::vector<MDMemoryDescriptor, google_breakpad::PageStdAllocator<MDMemoryDescriptor> >::_M_emplace_back_aux<MDMemoryDescriptor const&>(MDMemoryDescriptor const&)
PUBLIC de80 0 google_breakpad::TypedMDRVA<MDString>::CopyIndexAfterObject(unsigned int, void const*, unsigned long) [clone .isra.7] [clone .part.8]
PUBLIC deb0 0 google_breakpad::MinidumpFileWriter::MinidumpFileWriter()
PUBLIC ded0 0 google_breakpad::MinidumpFileWriter::Open(char const*)
PUBLIC df50 0 google_breakpad::MinidumpFileWriter::SetFile(int)
PUBLIC df80 0 google_breakpad::MinidumpFileWriter::Close()
PUBLIC dfe0 0 google_breakpad::MinidumpFileWriter::~MinidumpFileWriter()
PUBLIC e000 0 google_breakpad::MinidumpFileWriter::Allocate(unsigned long)
PUBLIC e0c0 0 google_breakpad::MinidumpFileWriter::Copy(unsigned int, void const*, long)
PUBLIC e1c0 0 google_breakpad::MinidumpFileWriter::CopyStringToMDString(wchar_t const*, unsigned int, google_breakpad::TypedMDRVA<MDString>*)
PUBLIC e2b0 0 google_breakpad::MinidumpFileWriter::CopyStringToMDString(char const*, unsigned int, google_breakpad::TypedMDRVA<MDString>*)
PUBLIC e3a0 0 google_breakpad::UntypedMDRVA::Allocate(unsigned long)
PUBLIC e3f0 0 google_breakpad::UntypedMDRVA::Copy(unsigned int, void const*, unsigned long)
PUBLIC e480 0 google_breakpad::MinidumpFileWriter::WriteMemory(void const*, unsigned long, MDMemoryDescriptor*)
PUBLIC e560 0 google_breakpad::MinidumpFileWriter::WriteString(wchar_t const*, unsigned int, MDLocationDescriptor*)
PUBLIC e570 0 google_breakpad::MinidumpFileWriter::WriteString(char const*, unsigned int, MDLocationDescriptor*)
PUBLIC e580 0 bool google_breakpad::MinidumpFileWriter::WriteStringCore<wchar_t>(wchar_t const*, unsigned int, MDLocationDescriptor*)
PUBLIC e7c0 0 bool google_breakpad::MinidumpFileWriter::WriteStringCore<char>(char const*, unsigned int, MDLocationDescriptor*)
PUBLIC ea00 0 void std::__cxx11::basic_string<char, std::char_traits<char>, std::allocator<char> >::_M_construct<char const*>(char const*, char const*, std::forward_iterator_tag) [clone .isra.34]
PUBLIC ead0 0 google_breakpad::UTF8ToUTF16Char(char const*, int, unsigned short*)
PUBLIC eb90 0 google_breakpad::UTF32ToUTF16Char(wchar_t, unsigned short*)
PUBLIC ec10 0 google_breakpad::UTF16ToUTF8[abi:cxx11](std::vector<unsigned short, std::allocator<unsigned short> > const&, bool)
PUBLIC ed90 0 google_breakpad::UTF32ToUTF16(wchar_t const*, std::vector<unsigned short, std::allocator<unsigned short> >*)
PUBLIC ee80 0 google_breakpad::UTF8ToUTF16(char const*, std::vector<unsigned short, std::allocator<unsigned short> >*)
PUBLIC ef70 0 std::vector<unsigned short, std::allocator<unsigned short> >::_M_fill_insert(__gnu_cxx::__normal_iterator<unsigned short*, std::vector<unsigned short, std::allocator<unsigned short> > >, unsigned long, unsigned short const&)
PUBLIC f230 0 std::vector<unsigned short, std::allocator<unsigned short> >::_M_default_append(unsigned long)
PUBLIC f380 0 google_breakpad::IsValidElf(void const*)
PUBLIC f3a0 0 google_breakpad::ElfClass(void const*)
PUBLIC f3b0 0 google_breakpad::FindElfSection(void const*, char const*, unsigned int, void const**, unsigned long*, int*)
PUBLIC f810 0 google_breakpad::FindElfSegment(void const*, unsigned int, void const**, unsigned long*, int*)
PUBLIC faa0 0 google_breakpad::bytes_to_hex_string(unsigned char const*, unsigned long)
PUBLIC fbe0 0 google_breakpad::FileID::FileID(char const*)
PUBLIC fcd0 0 google_breakpad::FileID::ConvertIdentifierToUUIDString[abi:cxx11](google_breakpad::wasteful_vector<unsigned char> const&)
PUBLIC fda0 0 google_breakpad::FileID::ConvertIdentifierToString[abi:cxx11](google_breakpad::wasteful_vector<unsigned char> const&)
PUBLIC fdf0 0 google_breakpad::FileID::ElfFileIdentifierFromMappedFile(void const*, google_breakpad::wasteful_vector<unsigned char>&)
PUBLIC 10260 0 google_breakpad::FileID::ElfFileIdentifier(google_breakpad::wasteful_vector<unsigned char>&)
PUBLIC 102e0 0 CreateGUID(MDGUID*)
PUBLIC 10360 0 GUIDToString(MDGUID const*, char*, int)
PUBLIC 103e0 0 GUIDGenerator::InitOnceImpl()
PUBLIC 10400 0 my_strlen
PUBLIC 10420 0 my_strcmp
PUBLIC 10470 0 my_strncmp
PUBLIC 104d0 0 my_strtoui
PUBLIC 10520 0 my_uint_len
PUBLIC 10560 0 my_uitos
PUBLIC 105a0 0 my_strchr
PUBLIC 105e0 0 my_strrchr
PUBLIC 10610 0 my_memchr
PUBLIC 10650 0 my_read_hex_ptr
PUBLIC 106d0 0 my_read_decimal_ptr
PUBLIC 10710 0 my_memset
PUBLIC 10730 0 my_strlcpy
PUBLIC 10770 0 my_strlcat
PUBLIC 107b0 0 my_isspace
PUBLIC 10820 0 google_breakpad::MemoryMappedFile::MemoryMappedFile()
PUBLIC 10830 0 google_breakpad::MemoryMappedFile::Unmap()
PUBLIC 10880 0 google_breakpad::MemoryMappedFile::~MemoryMappedFile()
PUBLIC 10890 0 google_breakpad::MemoryMappedFile::Map(char const*, unsigned long)
PUBLIC 10a40 0 google_breakpad::MemoryMappedFile::MemoryMappedFile(char const*, unsigned long)
PUBLIC 10a60 0 google_breakpad::SafeReadLink(char const*, char*, unsigned long)
PUBLIC 10aa0 0 google_breakpad::(anonymous namespace)::CrashGenerationClientImpl::~CrashGenerationClientImpl()
PUBLIC 10ab0 0 google_breakpad::(anonymous namespace)::CrashGenerationClientImpl::RequestDump(void const*, unsigned long)
PUBLIC 10cd0 0 google_breakpad::(anonymous namespace)::CrashGenerationClientImpl::~CrashGenerationClientImpl()
PUBLIC 10ce0 0 google_breakpad::CrashGenerationClient::TryCreate(int)
PUBLIC 10d10 0 google_breakpad::ThreadInfo::GetInstructionPointer() const
PUBLIC 10d20 0 google_breakpad::ThreadInfo::FillCPUContext(MDRawContextAMD64*) const
PUBLIC 11020 0 google_breakpad::ThreadInfo::GetGeneralPurposeRegisters(void**, unsigned long*)
PUBLIC 11070 0 google_breakpad::ThreadInfo::GetFloatingPointRegisters(void**, unsigned long*)
PUBLIC 110c0 0 google_breakpad::UContextReader::GetStackPointer(ucontext const*)
PUBLIC 110d0 0 google_breakpad::UContextReader::GetInstructionPointer(ucontext const*)
PUBLIC 110e0 0 google_breakpad::UContextReader::FillCPUContext(MDRawContextAMD64*, ucontext const*, _libc_fpstate const*)
PUBLIC 11340 0 isLegalUTF8
PUBLIC 11410 0 ConvertUTF32toUTF16
PUBLIC 11510 0 ConvertUTF16toUTF32
PUBLIC 11630 0 ConvertUTF16toUTF8
PUBLIC 11830 0 isLegalUTF8Sequence
PUBLIC 11860 0 ConvertUTF8toUTF16
PUBLIC 11ad0 0 ConvertUTF32toUTF8
PUBLIC 11c70 0 ConvertUTF8toUTF32
PUBLIC 11f00 0 __libc_csu_init
PUBLIC 11f70 0 __libc_csu_fini
PUBLIC 11f74 0 _fini
STACK CFI INIT 1f00 2a .cfa: $rsp 8 + .ra: .cfa -8 + ^
STACK CFI INIT 17c0 3c0 .cfa: $rsp 16 + .ra: .cfa -8 + ^
STACK CFI 17c6 .cfa: $rsp 24 +
STACK CFI INIT 21a4 3a .cfa: $rsp 8 + .ra: .cfa -8 + ^
STACK CFI 21a5 $rbp: .cfa -16 + ^ .cfa: $rsp 16 +
STACK CFI 21a8 .cfa: $rbp 16 +
STACK CFI 21dd .cfa: $rsp 8 +
STACK CFI INIT 21de a0 .cfa: $rsp 8 + .ra: .cfa -8 + ^
STACK CFI 21df $rbp: .cfa -16 + ^ .cfa: $rsp 16 +
STACK CFI 21e2 .cfa: $rbp 16 +
STACK CFI 227d .cfa: $rsp 8 +
STACK CFI INIT 227e 12 .cfa: $rsp 8 + .ra: .cfa -8 + ^
STACK CFI 227f $rbp: .cfa -16 + ^ .cfa: $rsp 16 +
STACK CFI 2282 .cfa: $rbp 16 +
STACK CFI 228f .cfa: $rsp 8 +
STACK CFI INIT 1ff6 48 .cfa: $rsp 8 + .ra: .cfa -8 + ^
STACK CFI 1ff7 $rbp: .cfa -16 + ^ .cfa: $rsp 16 +
STACK CFI 1ffa .cfa: $rbp 16 +
STACK CFI 203d .cfa: $rsp 8 +
STACK CFI INIT 2290 2f .cfa: $rsp 8 + .ra: .cfa -8 + ^
STACK CFI 2291 $rbp: .cfa -16 + ^ .cfa: $rsp 16 +
STACK CFI 2294 .cfa: $rbp 16 +
STACK CFI 22be .cfa: $rsp 8 +
STACK CFI INIT 203e 166 .cfa: $rsp 8 + .ra: .cfa -8 + ^
STACK CFI 203f $rbp: .cfa -16 + ^ .cfa: $rsp 16 +
STACK CFI 2042 .cfa: $rbp 16 +
STACK CFI 204a $rbx: .cfa -24 + ^
STACK CFI 21a3 .cfa: $rsp 8 +
STACK CFI INIT 22c0 14b .cfa: $rsp 8 + .ra: .cfa -8 + ^
STACK CFI 22c2 $r14: .cfa -16 + ^ .cfa: $rsp 16 +
STACK CFI 22c4 $r13: .cfa -24 + ^ .cfa: $rsp 24 +
STACK CFI 22c6 $r12: .cfa -32 + ^ .cfa: $rsp 32 +
STACK CFI 22c7 $rbp: .cfa -40 + ^ .cfa: $rsp 40 +
STACK CFI 22c8 $rbx: .cfa -48 + ^ .cfa: $rsp 48 +
STACK CFI 22cf .cfa: $rsp 208 +
STACK CFI 2360 .cfa: $rsp 48 +
STACK CFI 2361 .cfa: $rsp 40 +
STACK CFI 2362 .cfa: $rsp 32 +
STACK CFI 2364 .cfa: $rsp 24 +
STACK CFI 2366 .cfa: $rsp 16 +
STACK CFI 2368 .cfa: $rsp 8 +
STACK CFI 2370 .cfa: $rsp 208 +
STACK CFI INIT 2410 7c .cfa: $rsp 8 + .ra: .cfa -8 + ^
STACK CFI 241b $r13: .cfa -16 + ^ .cfa: $rsp 16 +
STACK CFI 241d $r12: .cfa -24 + ^ .cfa: $rsp 24 +
STACK CFI 2425 $rbp: .cfa -32 + ^ .cfa: $rsp 32 +
STACK CFI 2426 $rbx: .cfa -40 + ^ .cfa: $rsp 40 +
STACK CFI 243e .cfa: $rsp 48 +
STACK CFI 2471 .cfa: $rsp 40 +
STACK CFI 2472 $rbx: $rbx .cfa: $rsp 32 +
STACK CFI 2473 $rbp: $rbp .cfa: $rsp 24 +
STACK CFI 2475 $r12: $r12 .cfa: $rsp 16 +
STACK CFI 2477 $r13: $r13 .cfa: $rsp 8 +
STACK CFI 2480 $r12: .cfa -24 + ^ $r13: .cfa -16 + ^ $rbp: .cfa -32 + ^ $rbx: .cfa -40 + ^ .cfa: $rsp 48 +
STACK CFI INIT 2490 341 .cfa: $rsp 8 + .ra: .cfa -8 + ^
STACK CFI 2492 $r12: .cfa -16 + ^ .cfa: $rsp 16 +
STACK CFI 2493 $rbp: .cfa -24 + ^ .cfa: $rsp 24 +
STACK CFI 2494 $rbx: .cfa -32 + ^ .cfa: $rsp 32 +
STACK CFI 24a2 .cfa: $rsp 96 +
STACK CFI 2653 .cfa: $rsp 32 +
STACK CFI 2654 .cfa: $rsp 24 +
STACK CFI 2655 .cfa: $rsp 16 +
STACK CFI 2657 .cfa: $rsp 8 +
STACK CFI 2660 .cfa: $rsp 96 +
STACK CFI INIT 27e0 d1 .cfa: $rsp 8 + .ra: .cfa -8 + ^
STACK CFI 27e2 $r15: .cfa -16 + ^ .cfa: $rsp 16 +
STACK CFI 27e4 $r14: .cfa -24 + ^ .cfa: $rsp 24 +
STACK CFI 27e9 $r13: .cfa -32 + ^ .cfa: $rsp 32 +
STACK CFI 27eb $r12: .cfa -40 + ^ .cfa: $rsp 40 +
STACK CFI 27f3 $rbp: .cfa -48 + ^ .cfa: $rsp 48 +
STACK CFI 27f4 $rbx: .cfa -56 + ^ .cfa: $rsp 56 +
STACK CFI 2803 .cfa: $rsp 64 +
STACK CFI 282e .cfa: $rsp 56 +
STACK CFI 282f .cfa: $rsp 48 +
STACK CFI 2830 .cfa: $rsp 40 +
STACK CFI 2832 .cfa: $rsp 32 +
STACK CFI 2834 .cfa: $rsp 24 +
STACK CFI 2836 .cfa: $rsp 16 +
STACK CFI 2838 .cfa: $rsp 8 +
STACK CFI 2840 .cfa: $rsp 64 +
STACK CFI 288c .cfa: $rsp 56 +
STACK CFI 2899 .cfa: $rsp 48 +
STACK CFI 289a .cfa: $rsp 40 +
STACK CFI 289c .cfa: $rsp 32 +
STACK CFI 289e .cfa: $rsp 24 +
STACK CFI 28a0 .cfa: $rsp 16 +
STACK CFI 28a2 .cfa: $rsp 8 +
STACK CFI 28a7 .cfa: $rsp 64 +
STACK CFI INIT 28c0 4bc .cfa: $rsp 8 + .ra: .cfa -8 + ^
STACK CFI 28c2 $r15: .cfa -16 + ^ .cfa: $rsp 16 +
STACK CFI 28c4 $r14: .cfa -24 + ^ .cfa: $rsp 24 +
STACK CFI 28c6 $r13: .cfa -32 + ^ .cfa: $rsp 32 +
STACK CFI 28c8 $r12: .cfa -40 + ^ .cfa: $rsp 40 +
STACK CFI 28c9 $rbp: .cfa -48 + ^ .cfa: $rsp 48 +
STACK CFI 28ca $rbx: .cfa -56 + ^ .cfa: $rsp 56 +
STACK CFI 28d4 .cfa: $rsp 144 +
STACK CFI 2914 .cfa: $rsp 56 +
STACK CFI 2915 .cfa: $rsp 48 +
STACK CFI 2916 .cfa: $rsp 40 +
STACK CFI 2918 .cfa: $rsp 32 +
STACK CFI 291a .cfa: $rsp 24 +
STACK CFI 291c .cfa: $rsp 16 +
STACK CFI 291e .cfa: $rsp 8 +
STACK CFI 2920 .cfa: $rsp 144 +
STACK CFI INIT 2d80 1da .cfa: $rsp 8 + .ra: .cfa -8 + ^
STACK CFI 2d82 $r13: .cfa -16 + ^ .cfa: $rsp 16 +
STACK CFI 2d84 $r12: .cfa -24 + ^ .cfa: $rsp 24 +
STACK CFI 2d88 $rbp: .cfa -32 + ^ .cfa: $rsp 32 +
STACK CFI 2d89 $rbx: .cfa -40 + ^ .cfa: $rsp 40 +
STACK CFI 2d93 .cfa: $rsp 48 +
STACK CFI 2da9 .cfa: $rsp 40 +
STACK CFI 2daa .cfa: $rsp 32 +
STACK CFI 2dab .cfa: $rsp 24 +
STACK CFI 2dad .cfa: $rsp 16 +
STACK CFI 2daf .cfa: $rsp 8 +
STACK CFI 2db0 .cfa: $rsp 48 +
STACK CFI 2f1d .cfa: $rsp 40 +
STACK CFI 2f28 .cfa: $rsp 32 +
STACK CFI 2f29 .cfa: $rsp 24 +
STACK CFI 2f2b .cfa: $rsp 16 +
STACK CFI 2f2d .cfa: $rsp 8 +
STACK CFI 2f38 .cfa: $rsp 48 +
STACK CFI INIT 2f60 1c1 .cfa: $rsp 8 + .ra: .cfa -8 + ^
STACK CFI 2f62 $r14: .cfa -16 + ^ .cfa: $rsp 16 +
STACK CFI 2f64 $r13: .cfa -24 + ^ .cfa: $rsp 24 +
STACK CFI 2f69 $r12: .cfa -32 + ^ .cfa: $rsp 32 +
STACK CFI 2f6a $rbp: .cfa -40 + ^ .cfa: $rsp 40 +
STACK CFI 2f6e $rbx: .cfa -48 + ^ .cfa: $rsp 48 +
STACK CFI 2f7f .cfa: $rsp 208 +
STACK CFI 305a .cfa: $rsp 48 +
STACK CFI 305b .cfa: $rsp 40 +
STACK CFI 305c .cfa: $rsp 32 +
STACK CFI 305e .cfa: $rsp 24 +
STACK CFI 3060 .cfa: $rsp 16 +
STACK CFI 3062 .cfa: $rsp 8 +
STACK CFI 3068 .cfa: $rsp 208 +
STACK CFI INIT 3130 7f .cfa: $rsp 8 + .ra: .cfa -8 + ^
STACK CFI 3137 .cfa: $rsp 1104 +
STACK CFI 31a9 .cfa: $rsp 8 +
STACK CFI 31aa .cfa: $rsp 1104 +
STACK CFI INIT 31b0 e5 .cfa: $rsp 8 + .ra: .cfa -8 + ^
STACK CFI 31b2 $r15: .cfa -16 + ^ .cfa: $rsp 16 +
STACK CFI 31b4 $r14: .cfa -24 + ^ .cfa: $rsp 24 +
STACK CFI 31b9 $r13: .cfa -32 + ^ .cfa: $rsp 32 +
STACK CFI 31bb $r12: .cfa -40 + ^ .cfa: $rsp 40 +
STACK CFI 31bf $rbp: .cfa -48 + ^ .cfa: $rsp 48 +
STACK CFI 31c0 $rbx: .cfa -56 + ^ .cfa: $rsp 56 +
STACK CFI 31c9 .cfa: $rsp 80 +
STACK CFI 321a .cfa: $rsp 56 +
STACK CFI 321b .cfa: $rsp 48 +
STACK CFI 321c .cfa: $rsp 40 +
STACK CFI 321e .cfa: $rsp 32 +
STACK CFI 3220 .cfa: $rsp 24 +
STACK CFI 3222 .cfa: $rsp 16 +
STACK CFI 3224 .cfa: $rsp 8 +
STACK CFI 3228 .cfa: $rsp 80 +
STACK CFI INIT 32a0 8b .cfa: $rsp 8 + .ra: .cfa -8 + ^
STACK CFI 32b6 .cfa: $rsp 16 +
STACK CFI 32d6 .cfa: $rsp 24 +
STACK CFI 32dc .cfa: $rsp 32 +
STACK CFI 32e9 .cfa: $rsp 24 +
STACK CFI 32ea .cfa: $rsp 16 +
STACK CFI 32ee .cfa: $rsp 8 +
STACK CFI 3308 .cfa: $rsp 16 +
STACK CFI 3313 .cfa: $rsp 24 +
STACK CFI 3318 .cfa: $rsp 32 +
STACK CFI 3325 .cfa: $rsp 24 +
STACK CFI 3326 .cfa: $rsp 16 +
STACK CFI 332a .cfa: $rsp 8 +
STACK CFI INIT 3330 28 .cfa: $rsp 8 + .ra: .cfa -8 + ^
STACK CFI 3331 $rbx: .cfa -16 + ^ .cfa: $rsp 16 +
STACK CFI 3357 .cfa: $rsp 8 +
STACK CFI INIT 3360 195 .cfa: $rsp 8 + .ra: .cfa -8 + ^
STACK CFI 3361 $rbx: .cfa -16 + ^ .cfa: $rsp 16 +
STACK CFI 3368 .cfa: $rsp 1632 +
STACK CFI 33fe .cfa: $rsp 16 +
STACK CFI 33ff .cfa: $rsp 8 +
STACK CFI 3400 .cfa: $rsp 1632 +
STACK CFI INIT 3500 e3 .cfa: $rsp 8 + .ra: .cfa -8 + ^
STACK CFI 3502 $r14: .cfa -16 + ^ .cfa: $rsp 16 +
STACK CFI 3504 $r13: .cfa -24 + ^ .cfa: $rsp 24 +
STACK CFI 3508 $rbp: .cfa -32 + ^ .cfa: $rsp 32 +
STACK CFI 3509 $rbx: .cfa -40 + ^ .cfa: $rsp 40 +
STACK CFI 3518 .cfa: $rsp 640 +
STACK CFI 35d7 .cfa: $rsp 40 +
STACK CFI 35d8 .cfa: $rsp 32 +
STACK CFI 35d9 .cfa: $rsp 24 +
STACK CFI 35db .cfa: $rsp 16 +
STACK CFI 35dd .cfa: $rsp 8 +
STACK CFI 35de .cfa: $rsp 640 +
STACK CFI INIT 35f0 91 .cfa: $rsp 8 + .ra: .cfa -8 + ^
STACK CFI 35f2 $r13: .cfa -16 + ^ .cfa: $rsp 16 +
STACK CFI 35f4 $r12: .cfa -24 + ^ .cfa: $rsp 24 +
STACK CFI 35f5 $rbp: .cfa -32 + ^ .cfa: $rsp 32 +
STACK CFI 35f6 $rbx: .cfa -40 + ^ .cfa: $rsp 40 +
STACK CFI 3601 .cfa: $rsp 48 +
STACK CFI 362a .cfa: $rsp 40 +
STACK CFI 362b .cfa: $rsp 32 +
STACK CFI 362c .cfa: $rsp 24 +
STACK CFI 362e .cfa: $rsp 16 +
STACK CFI 3630 .cfa: $rsp 8 +
STACK CFI 3638 .cfa: $rsp 48 +
STACK CFI 367a .cfa: $rsp 40 +
STACK CFI 367b .cfa: $rsp 32 +
STACK CFI 367c .cfa: $rsp 24 +
STACK CFI 367e .cfa: $rsp 16 +
STACK CFI 3680 .cfa: $rsp 8 +
STACK CFI INIT 3690 52 .cfa: $rsp 8 + .ra: .cfa -8 + ^
STACK CFI 3691 $rbx: .cfa -16 + ^ .cfa: $rsp 16 +
STACK CFI 36d2 .cfa: $rsp 8 +
STACK CFI 36e0 .cfa: $rsp 16 +
STACK CFI 36e1 .cfa: $rsp 8 +
STACK CFI INIT 36f0 23d .cfa: $rsp 8 + .ra: .cfa -8 + ^
STACK CFI 36f2 $r15: .cfa -16 + ^ .cfa: $rsp 16 +
STACK CFI 36f4 $r14: .cfa -24 + ^ .cfa: $rsp 24 +
STACK CFI 36f9 $r13: .cfa -32 + ^ .cfa: $rsp 32 +
STACK CFI 36fb $r12: .cfa -40 + ^ .cfa: $rsp 40 +
STACK CFI 36ff $rbp: .cfa -48 + ^ .cfa: $rsp 48 +
STACK CFI 3700 $rbx: .cfa -56 + ^ .cfa: $rsp 56 +
STACK CFI 3710 .cfa: $rsp 224 +
STACK CFI 3872 .cfa: $rsp 56 +
STACK CFI 3873 .cfa: $rsp 48 +
STACK CFI 3874 .cfa: $rsp 40 +
STACK CFI 3876 .cfa: $rsp 32 +
STACK CFI 3878 .cfa: $rsp 24 +
STACK CFI 387a .cfa: $rsp 16 +
STACK CFI 387c .cfa: $rsp 8 +
STACK CFI 3880 .cfa: $rsp 224 +
STACK CFI INIT 3f50 ea .cfa: $rsp 8 + .ra: .cfa -8 + ^
STACK CFI 3f52 $r15: .cfa -16 + ^ .cfa: $rsp 16 +
STACK CFI 3f54 $r14: .cfa -24 + ^ .cfa: $rsp 24 +
STACK CFI 3f59 $r13: .cfa -32 + ^ .cfa: $rsp 32 +
STACK CFI 3f5b $r12: .cfa -40 + ^ .cfa: $rsp 40 +
STACK CFI 3f5f $rbp: .cfa -48 + ^ .cfa: $rsp 48 +
STACK CFI 3f60 $rbx: .cfa -56 + ^ .cfa: $rsp 56 +
STACK CFI 3f64 .cfa: $rsp 64 +
STACK CFI 3fea .cfa: $rsp 56 +
STACK CFI 3feb .cfa: $rsp 48 +
STACK CFI 3fec .cfa: $rsp 40 +
STACK CFI 3fee .cfa: $rsp 32 +
STACK CFI 3ff0 .cfa: $rsp 24 +
STACK CFI 3ff2 .cfa: $rsp 16 +
STACK CFI 3ff4 .cfa: $rsp 8 +
STACK CFI 3ff8 .cfa: $rsp 64 +
STACK CFI INIT 3930 396 .cfa: $rsp 8 + .ra: .cfa -8 + ^
STACK CFI 3932 $r15: .cfa -16 + ^ .cfa: $rsp 16 +
STACK CFI 3934 $r14: .cfa -24 + ^ .cfa: $rsp 24 +
STACK CFI 3939 $r13: .cfa -32 + ^ .cfa: $rsp 32 +
STACK CFI 393f $r12: .cfa -40 + ^ .cfa: $rsp 40 +
STACK CFI 3940 $rbp: .cfa -48 + ^ .cfa: $rsp 48 +
STACK CFI 3941 $rbx: .cfa -56 + ^ .cfa: $rsp 56 +
STACK CFI 3948 .cfa: $rsp 80 +
STACK CFI 3a8e .cfa: $rsp 56 +
STACK CFI 3a8f .cfa: $rsp 48 +
STACK CFI 3a90 .cfa: $rsp 40 +
STACK CFI 3a92 .cfa: $rsp 32 +
STACK CFI 3a94 .cfa: $rsp 24 +
STACK CFI 3a96 .cfa: $rsp 16 +
STACK CFI 3a98 .cfa: $rsp 8 +
STACK CFI 3aa0 .cfa: $rsp 80 +
STACK CFI INIT 3cd0 27d .cfa: $rsp 8 + .ra: .cfa -8 + ^
STACK CFI 3cd1 $rbp: .cfa -16 + ^ .cfa: $rsp 16 +
STACK CFI 3cd4 .cfa: $rbp 16 +
STACK CFI 3cdc $r12: .cfa -48 + ^ $r13: .cfa -40 + ^ $r14: .cfa -32 + ^ $r15: .cfa -24 + ^
STACK CFI 3ce0 $rbx: .cfa -56 + ^
STACK CFI 3e91 .cfa: $rsp 8 +
STACK CFI 3e98 .cfa: $rbp 16 +
STACK CFI INIT 4040 c2 .cfa: $rsp 8 + .ra: .cfa -8 + ^
STACK CFI 4042 $r12: .cfa -16 + ^ .cfa: $rsp 16 +
STACK CFI 4043 $rbp: .cfa -24 + ^ .cfa: $rsp 24 +
STACK CFI 4047 $rbx: .cfa -32 + ^ .cfa: $rsp 32 +
STACK CFI 404e .cfa: $rsp 48 +
STACK CFI 40ba .cfa: $rsp 32 +
STACK CFI 40bb .cfa: $rsp 24 +
STACK CFI 40bc .cfa: $rsp 16 +
STACK CFI 40be .cfa: $rsp 8 +
STACK CFI 40c0 .cfa: $rsp 48 +
STACK CFI INIT 4110 a4 .cfa: $rsp 8 + .ra: .cfa -8 + ^
STACK CFI 4111 $rbp: .cfa -16 + ^ .cfa: $rsp 16 +
STACK CFI 4112 $rbx: .cfa -24 + ^ .cfa: $rsp 24 +
STACK CFI 4120 .cfa: $rsp 32 +
STACK CFI 4192 .cfa: $rsp 24 +
STACK CFI 4193 .cfa: $rsp 16 +
STACK CFI 4194 .cfa: $rsp 8 +
STACK CFI 4195 .cfa: $rsp 32 +
STACK CFI INIT 41c0 317 .cfa: $rsp 8 + .ra: .cfa -8 + ^
STACK CFI 41c2 $r13: .cfa -16 + ^ .cfa: $rsp 16 +
STACK CFI 41c4 $r12: .cfa -24 + ^ .cfa: $rsp 24 +
STACK CFI 41c5 $rbp: .cfa -32 + ^ .cfa: $rsp 32 +
STACK CFI 41c6 $rbx: .cfa -40 + ^ .cfa: $rsp 40 +
STACK CFI 41cd .cfa: $rsp 208 +
STACK CFI 4419 .cfa: $rsp 40 +
STACK CFI 441a .cfa: $rsp 32 +
STACK CFI 441b .cfa: $rsp 24 +
STACK CFI 441d .cfa: $rsp 16 +
STACK CFI 441f .cfa: $rsp 8 +
STACK CFI 4420 .cfa: $rsp 208 +
STACK CFI INIT 44e0 a2 .cfa: $rsp 8 + .ra: .cfa -8 + ^
STACK CFI 44e1 $rbp: .cfa -16 + ^ .cfa: $rsp 16 +
STACK CFI 44e2 $rbx: .cfa -24 + ^ .cfa: $rsp 24 +
STACK CFI 44e6 .cfa: $rsp 32 +
STACK CFI 455d .cfa: $rsp 24 +
STACK CFI 4561 .cfa: $rsp 16 +
STACK CFI 4562 .cfa: $rsp 8 +
STACK CFI 4563 .cfa: $rsp 32 +
STACK CFI INIT 4590 33 .cfa: $rsp 8 + .ra: .cfa -8 + ^
STACK CFI 459c $rbx: .cfa -16 + ^ .cfa: $rsp 16 +
STACK CFI 45c2 .cfa: $rsp 8 +
STACK CFI INIT 6090 3ea .cfa: $rsp 8 + .ra: .cfa -8 + ^
STACK CFI 609b $r15: .cfa -16 + ^ .cfa: $rsp 16 +
STACK CFI 609d $r14: .cfa -24 + ^ .cfa: $rsp 24 +
STACK CFI 60a2 $r13: .cfa -32 + ^ .cfa: $rsp 32 +
STACK CFI 60a4 $r12: .cfa -40 + ^ .cfa: $rsp 40 +
STACK CFI 60a8 $rbp: .cfa -48 + ^ .cfa: $rsp 48 +
STACK CFI 60a9 $rbx: .cfa -56 + ^ .cfa: $rsp 56 +
STACK CFI 60b9 .cfa: $rsp 96 +
STACK CFI 612c .cfa: $rsp 56 +
STACK CFI 612d $rbx: $rbx .cfa: $rsp 48 +
STACK CFI 612e $rbp: $rbp .cfa: $rsp 40 +
STACK CFI 6130 $r12: $r12 .cfa: $rsp 32 +
STACK CFI 6132 $r13: $r13 .cfa: $rsp 24 +
STACK CFI 6134 $r14: $r14 .cfa: $rsp 16 +
STACK CFI 6136 $r15: $r15 .cfa: $rsp 8 +
STACK CFI 6140 $r12: .cfa -40 + ^ $r13: .cfa -32 + ^ $r14: .cfa -24 + ^ $r15: .cfa -16 + ^ $rbp: .cfa -48 + ^ $rbx: .cfa -56 + ^ .cfa: $rsp 96 +
STACK CFI 61b0 .cfa: $rsp 56 +
STACK CFI 61b7 $rbx: $rbx .cfa: $rsp 48 +
STACK CFI 61b8 $rbp: $rbp .cfa: $rsp 40 +
STACK CFI 61ba $r12: $r12 .cfa: $rsp 32 +
STACK CFI 61bc $r13: $r13 .cfa: $rsp 24 +
STACK CFI 61be $r14: $r14 .cfa: $rsp 16 +
STACK CFI 61c0 $r15: $r15 .cfa: $rsp 8 +
STACK CFI 61c8 $r12: .cfa -40 + ^ $r13: .cfa -32 + ^ $r14: .cfa -24 + ^ $r15: .cfa -16 + ^ $rbp: .cfa -48 + ^ $rbx: .cfa -56 + ^ .cfa: $rsp 96 +
STACK CFI 62ad .cfa: $rsp 56 +
STACK CFI 62ae $rbx: $rbx .cfa: $rsp 48 +
STACK CFI 62af $rbp: $rbp .cfa: $rsp 40 +
STACK CFI 62b1 $r12: $r12 .cfa: $rsp 32 +
STACK CFI 62b3 $r13: $r13 .cfa: $rsp 24 +
STACK CFI 62b5 $r14: $r14 .cfa: $rsp 16 +
STACK CFI 62b7 $r15: $r15 .cfa: $rsp 8 +
STACK CFI 62c0 $r12: .cfa -40 + ^ $r13: .cfa -32 + ^ $r14: .cfa -24 + ^ $r15: .cfa -16 + ^ $rbp: .cfa -48 + ^ $rbx: .cfa -56 + ^ .cfa: $rsp 96 +
STACK CFI INIT 45d0 1ab5 .cfa: $rsp 8 + .ra: .cfa -8 + ^
STACK CFI 45d1 $rbp: .cfa -16 + ^ .cfa: $rsp 16 +
STACK CFI 45d4 .cfa: $rbp 16 +
STACK CFI 45dc $r12: .cfa -48 + ^ $r13: .cfa -40 + ^ $r14: .cfa -32 + ^ $r15: .cfa -24 + ^
STACK CFI 45e0 $rbx: .cfa -56 + ^
STACK CFI 467a .cfa: $rsp 8 +
STACK CFI 467b .cfa: $rbp 16 +
STACK CFI INIT 6480 6 .cfa: $rsp 8 + .ra: .cfa -8 + ^
STACK CFI INIT 8100 143 .cfa: $rsp 8 + .ra: .cfa -8 + ^
STACK CFI 810b $r15: .cfa -16 + ^ .cfa: $rsp 16 +
STACK CFI 810d $r14: .cfa -24 + ^ .cfa: $rsp 24 +
STACK CFI 810f $r13: .cfa -32 + ^ .cfa: $rsp 32 +
STACK CFI 8111 $r12: .cfa -40 + ^ .cfa: $rsp 40 +
STACK CFI 8112 $rbp: .cfa -48 + ^ .cfa: $rsp 48 +
STACK CFI 8113 $rbx: .cfa -56 + ^ .cfa: $rsp 56 +
STACK CFI 811a .cfa: $rsp 64 +
STACK CFI 814c .cfa: $rsp 56 +
STACK CFI 814d $rbx: $rbx .cfa: $rsp 48 +
STACK CFI 814e $rbp: $rbp .cfa: $rsp 40 +
STACK CFI 8150 $r12: $r12 .cfa: $rsp 32 +
STACK CFI 8152 $r13: $r13 .cfa: $rsp 24 +
STACK CFI 8154 $r14: $r14 .cfa: $rsp 16 +
STACK CFI 8156 $r15: $r15 .cfa: $rsp 8 +
STACK CFI 8160 $r12: .cfa -40 + ^ $r13: .cfa -32 + ^ $r14: .cfa -24 + ^ $r15: .cfa -16 + ^ $rbp: .cfa -48 + ^ $rbx: .cfa -56 + ^ .cfa: $rsp 64 +
STACK CFI 820f .cfa: $rsp 56 +
STACK CFI 8214 $rbx: $rbx .cfa: $rsp 48 +
STACK CFI 8215 $rbp: $rbp .cfa: $rsp 40 +
STACK CFI 8217 $r12: $r12 .cfa: $rsp 32 +
STACK CFI 8219 $r13: $r13 .cfa: $rsp 24 +
STACK CFI 821b $r14: $r14 .cfa: $rsp 16 +
STACK CFI 821d $r15: $r15 .cfa: $rsp 8 +
STACK CFI 8220 $r12: .cfa -40 + ^ $r13: .cfa -32 + ^ $r14: .cfa -24 + ^ $r15: .cfa -16 + ^ $rbp: .cfa -48 + ^ $rbx: .cfa -56 + ^ .cfa: $rsp 64 +
STACK CFI 8234 .cfa: $rsp 56 +
STACK CFI 8235 $rbx: $rbx .cfa: $rsp 48 +
STACK CFI 8236 $rbp: $rbp .cfa: $rsp 40 +
STACK CFI 8238 $r12: $r12 .cfa: $rsp 32 +
STACK CFI 823a $r13: $r13 .cfa: $rsp 24 +
STACK CFI 823c $r14: $r14 .cfa: $rsp 16 +
STACK CFI 823e $r15: $r15 .cfa: $rsp 8 +
STACK CFI INIT 6490 835 .cfa: $rsp 8 + .ra: .cfa -8 + ^
STACK CFI 6492 $r15: .cfa -16 + ^ .cfa: $rsp 16 +
STACK CFI 6494 $r14: .cfa -24 + ^ .cfa: $rsp 24 +
STACK CFI 649d $r13: .cfa -32 + ^ .cfa: $rsp 32 +
STACK CFI 649f $r12: .cfa -40 + ^ .cfa: $rsp 40 +
STACK CFI 64a6 $rbp: .cfa -48 + ^ .cfa: $rsp 48 +
STACK CFI 64a7 $rbx: .cfa -56 + ^ .cfa: $rsp 56 +
STACK CFI 64b2 .cfa: $rsp 80 +
STACK CFI 6705 .cfa: $rsp 56 +
STACK CFI 6706 .cfa: $rsp 48 +
STACK CFI 6707 .cfa: $rsp 40 +
STACK CFI 6709 .cfa: $rsp 32 +
STACK CFI 670b .cfa: $rsp 24 +
STACK CFI 670d .cfa: $rsp 16 +
STACK CFI 670f .cfa: $rsp 8 +
STACK CFI 6710 .cfa: $rsp 80 +
STACK CFI INIT 6cd0 67 .cfa: $rsp 8 + .ra: .cfa -8 + ^
STACK CFI 6cd2 $r13: .cfa -16 + ^ .cfa: $rsp 16 +
STACK CFI 6cd4 $r12: .cfa -24 + ^ .cfa: $rsp 24 +
STACK CFI 6cd8 $rbp: .cfa -32 + ^ .cfa: $rsp 32 +
STACK CFI 6cd9 $rbx: .cfa -40 + ^ .cfa: $rsp 40 +
STACK CFI 6ce2 .cfa: $rsp 48 +
STACK CFI 6d30 .cfa: $rsp 40 +
STACK CFI 6d31 .cfa: $rsp 32 +
STACK CFI 6d32 .cfa: $rsp 24 +
STACK CFI 6d34 .cfa: $rsp 16 +
STACK CFI 6d36 .cfa: $rsp 8 +
STACK CFI INIT 6d40 12 .cfa: $rsp 8 + .ra: .cfa -8 + ^
STACK CFI 6d41 $rbx: .cfa -16 + ^ .cfa: $rsp 16 +
STACK CFI 6d4d .cfa: $rsp 8 +
STACK CFI INIT 6d60 4a .cfa: $rsp 8 + .ra: .cfa -8 + ^
STACK CFI 6d61 $rbp: .cfa -16 + ^ .cfa: $rsp 16 +
STACK CFI 6d62 $rbx: .cfa -24 + ^ .cfa: $rsp 24 +
STACK CFI 6d71 .cfa: $rsp 32 +
STACK CFI 6da5 .cfa: $rsp 24 +
STACK CFI 6da8 .cfa: $rsp 16 +
STACK CFI 6da9 .cfa: $rsp 8 +
STACK CFI INIT 6db0 19f .cfa: $rsp 8 + .ra: .cfa -8 + ^
STACK CFI 6db2 $r14: .cfa -16 + ^ .cfa: $rsp 16 +
STACK CFI 6db4 $r13: .cfa -24 + ^ .cfa: $rsp 24 +
STACK CFI 6db9 $r12: .cfa -32 + ^ .cfa: $rsp 32 +
STACK CFI 6dba $rbp: .cfa -40 + ^ .cfa: $rsp 40 +
STACK CFI 6dbf $rbx: .cfa -48 + ^ .cfa: $rsp 48 +
STACK CFI 6ddb .cfa: $rsp 4224 +
STACK CFI 6e19 .cfa: $rsp 48 +
STACK CFI 6e1a .cfa: $rsp 40 +
STACK CFI 6e1b .cfa: $rsp 32 +
STACK CFI 6e1d .cfa: $rsp 24 +
STACK CFI 6e1f .cfa: $rsp 16 +
STACK CFI 6e21 .cfa: $rsp 8 +
STACK CFI 6e28 .cfa: $rsp 4224 +
STACK CFI INIT 6f50 1a7 .cfa: $rsp 8 + .ra: .cfa -8 + ^
STACK CFI 6f52 $r14: .cfa -16 + ^ .cfa: $rsp 16 +
STACK CFI 6f54 $r13: .cfa -24 + ^ .cfa: $rsp 24 +
STACK CFI 6f5d $r12: .cfa -32 + ^ .cfa: $rsp 32 +
STACK CFI 6f5e $rbp: .cfa -40 + ^ .cfa: $rsp 40 +
STACK CFI 6f62 $rbx: .cfa -48 + ^ .cfa: $rsp 48 +
STACK CFI 6f6c .cfa: $rsp 4992 +
STACK CFI 6fb9 .cfa: $rsp 48 +
STACK CFI 6fba .cfa: $rsp 40 +
STACK CFI 6fbb .cfa: $rsp 32 +
STACK CFI 6fbd .cfa: $rsp 24 +
STACK CFI 6fbf .cfa: $rsp 16 +
STACK CFI 6fc1 .cfa: $rsp 8 +
STACK CFI 6fc8 .cfa: $rsp 4992 +
STACK CFI INIT 7100 e6 .cfa: $rsp 8 + .ra: .cfa -8 + ^
STACK CFI 7102 $r15: .cfa -16 + ^ .cfa: $rsp 16 +
STACK CFI 7104 $r14: .cfa -24 + ^ .cfa: $rsp 24 +
STACK CFI 7109 $r13: .cfa -32 + ^ .cfa: $rsp 32 +
STACK CFI 710b $r12: .cfa -40 + ^ .cfa: $rsp 40 +
STACK CFI 710f $rbp: .cfa -48 + ^ .cfa: $rsp 48 +
STACK CFI 7110 $rbx: .cfa -56 + ^ .cfa: $rsp 56 +
STACK CFI 7121 .cfa: $rsp 64 +
STACK CFI 715b .cfa: $rsp 56 +
STACK CFI 7162 .cfa: $rsp 48 +
STACK CFI 7163 .cfa: $rsp 40 +
STACK CFI 7165 .cfa: $rsp 32 +
STACK CFI 7167 .cfa: $rsp 24 +
STACK CFI 7169 .cfa: $rsp 16 +
STACK CFI 716b .cfa: $rsp 8 +
STACK CFI 7170 .cfa: $rsp 64 +
STACK CFI 71a6 .cfa: $rsp 56 +
STACK CFI 71a7 .cfa: $rsp 48 +
STACK CFI 71a8 .cfa: $rsp 40 +
STACK CFI 71aa .cfa: $rsp 32 +
STACK CFI 71ac .cfa: $rsp 24 +
STACK CFI 71ae .cfa: $rsp 16 +
STACK CFI 71b0 .cfa: $rsp 8 +
STACK CFI 71b8 .cfa: $rsp 64 +
STACK CFI 71ce .cfa: $rsp 56 +
STACK CFI 71d8 .cfa: $rsp 48 +
STACK CFI 71d9 .cfa: $rsp 40 +
STACK CFI 71db .cfa: $rsp 32 +
STACK CFI 71dd .cfa: $rsp 24 +
STACK CFI 71df .cfa: $rsp 16 +
STACK CFI 71e1 .cfa: $rsp 8 +
STACK CFI INIT 71f0 119 .cfa: $rsp 8 + .ra: .cfa -8 + ^
STACK CFI 71f2 $r13: .cfa -16 + ^ .cfa: $rsp 16 +
STACK CFI 71f4 $r12: .cfa -24 + ^ .cfa: $rsp 24 +
STACK CFI 71f8 $rbp: .cfa -32 + ^ .cfa: $rsp 32 +
STACK CFI 71f9 $rbx: .cfa -40 + ^ .cfa: $rsp 40 +
STACK CFI 7207 .cfa: $rsp 336 +
STACK CFI 72c9 .cfa: $rsp 40 +
STACK CFI 72ca .cfa: $rsp 32 +
STACK CFI 72cb .cfa: $rsp 24 +
STACK CFI 72cd .cfa: $rsp 16 +
STACK CFI 72cf .cfa: $rsp 8 +
STACK CFI 72d0 .cfa: $rsp 336 +
STACK CFI INIT 7310 32 .cfa: $rsp 8 + .ra: .cfa -8 + ^
STACK CFI 7311 $rbx: .cfa -16 + ^ .cfa: $rsp 16 +
STACK CFI 7320 .cfa: $rsp 8 +
STACK CFI 7328 .cfa: $rsp 16 +
STACK CFI 733c .cfa: $rsp 8 +
STACK CFI INIT 7350 4b .cfa: $rsp 8 + .ra: .cfa -8 + ^
STACK CFI INIT 73a0 7d .cfa: $rsp 8 + .ra: .cfa -8 + ^
STACK CFI 73a2 $r13: .cfa -16 + ^ .cfa: $rsp 16 +
STACK CFI 73a4 $r12: .cfa -24 + ^ .cfa: $rsp 24 +
STACK CFI 73a8 $rbp: .cfa -32 + ^ .cfa: $rsp 32 +
STACK CFI 73a9 $rbx: .cfa -40 + ^ .cfa: $rsp 40 +
STACK CFI 73b6 .cfa: $rsp 48 +
STACK CFI 7400 .cfa: $rsp 40 +
STACK CFI 7401 .cfa: $rsp 32 +
STACK CFI 7402 .cfa: $rsp 24 +
STACK CFI 7404 .cfa: $rsp 16 +
STACK CFI 7406 .cfa: $rsp 8 +
STACK CFI 7410 .cfa: $rsp 48 +
STACK CFI 7414 .cfa: $rsp 40 +
STACK CFI 7417 .cfa: $rsp 32 +
STACK CFI 7418 .cfa: $rsp 24 +
STACK CFI 741a .cfa: $rsp 16 +
STACK CFI 741c .cfa: $rsp 8 +
STACK CFI INIT 7420 53 .cfa: $rsp 8 + .ra: .cfa -8 + ^
STACK CFI 7421 $rbp: .cfa -16 + ^ .cfa: $rsp 16 +
STACK CFI 7422 $rbx: .cfa -24 + ^ .cfa: $rsp 24 +
STACK CFI 742f .cfa: $rsp 32 +
STACK CFI 743e .cfa: $rsp 24 +
STACK CFI 7441 .cfa: $rsp 16 +
STACK CFI 7442 .cfa: $rsp 8 +
STACK CFI 7448 .cfa: $rsp 32 +
STACK CFI 7466 .cfa: $rsp 24 +
STACK CFI 746d .cfa: $rsp 16 +
STACK CFI 746e .cfa: $rsp 8 +
STACK CFI INIT 7480 34b .cfa: $rsp 8 + .ra: .cfa -8 + ^
STACK CFI 7482 $r15: .cfa -16 + ^ .cfa: $rsp 16 +
STACK CFI 7484 $r14: .cfa -24 + ^ .cfa: $rsp 24 +
STACK CFI 7489 $r13: .cfa -32 + ^ .cfa: $rsp 32 +
STACK CFI 748b $r12: .cfa -40 + ^ .cfa: $rsp 40 +
STACK CFI 748f $rbp: .cfa -48 + ^ .cfa: $rsp 48 +
STACK CFI 7490 $rbx: .cfa -56 + ^ .cfa: $rsp 56 +
STACK CFI 749f .cfa: $rsp 4208 +
STACK CFI 7513 .cfa: $rsp 56 +
STACK CFI 7514 .cfa: $rsp 48 +
STACK CFI 7515 .cfa: $rsp 40 +
STACK CFI 7517 .cfa: $rsp 32 +
STACK CFI 7519 .cfa: $rsp 24 +
STACK CFI 751b .cfa: $rsp 16 +
STACK CFI 751d .cfa: $rsp 8 +
STACK CFI 7520 .cfa: $rsp 4208 +
STACK CFI INIT 8250 288 .cfa: $rsp 8 + .ra: .cfa -8 + ^
STACK CFI 82a2 $r15: .cfa -16 + ^ .cfa: $rsp 16 +
STACK CFI 82a4 $r14: .cfa -24 + ^ .cfa: $rsp 24 +
STACK CFI 82a9 $r13: .cfa -32 + ^ .cfa: $rsp 32 +
STACK CFI 82ab $r12: .cfa -40 + ^ .cfa: $rsp 40 +
STACK CFI 82b6 $rbp: .cfa -48 + ^ .cfa: $rsp 48 +
STACK CFI 82b7 $rbx: .cfa -56 + ^ .cfa: $rsp 56 +
STACK CFI 82c4 .cfa: $rsp 80 +
STACK CFI 838a .cfa: $rsp 56 +
STACK CFI 838b $rbx: $rbx .cfa: $rsp 48 +
STACK CFI 838c $rbp: $rbp .cfa: $rsp 40 +
STACK CFI 838e $r12: $r12 .cfa: $rsp 32 +
STACK CFI 8390 $r13: $r13 .cfa: $rsp 24 +
STACK CFI 8392 $r14: $r14 .cfa: $rsp 16 +
STACK CFI 8394 $r15: $r15 .cfa: $rsp 8 +
STACK CFI 8396 $r12: .cfa -40 + ^ $r13: .cfa -32 + ^ $r14: .cfa -24 + ^ $r15: .cfa -16 + ^ $rbp: .cfa -48 + ^ $rbx: .cfa -56 + ^ .cfa: $rsp 80 +
STACK CFI INIT 77d0 930 .cfa: $rsp 8 + .ra: .cfa -8 + ^
STACK CFI 77d2 $r15: .cfa -16 + ^ .cfa: $rsp 16 +
STACK CFI 77d4 $r14: .cfa -24 + ^ .cfa: $rsp 24 +
STACK CFI 77dd $r13: .cfa -32 + ^ .cfa: $rsp 32 +
STACK CFI 77df $r12: .cfa -40 + ^ .cfa: $rsp 40 +
STACK CFI 77e3 $rbp: .cfa -48 + ^ .cfa: $rsp 48 +
STACK CFI 77e4 $rbx: .cfa -56 + ^ .cfa: $rsp 56 +
STACK CFI 77eb .cfa: $rsp 448 +
STACK CFI 7990 .cfa: $rsp 56 +
STACK CFI 7991 .cfa: $rsp 48 +
STACK CFI 7992 .cfa: $rsp 40 +
STACK CFI 7994 .cfa: $rsp 32 +
STACK CFI 7996 .cfa: $rsp 24 +
STACK CFI 7998 .cfa: $rsp 16 +
STACK CFI 799a .cfa: $rsp 8 +
STACK CFI 799b .cfa: $rsp 448 +
STACK CFI INIT 84e0 3 .cfa: $rsp 8 + .ra: .cfa -8 + ^
STACK CFI INIT 84f0 187 .cfa: $rsp 8 + .ra: .cfa -8 + ^
STACK CFI 84f2 $r15: .cfa -16 + ^ .cfa: $rsp 16 +
STACK CFI 84f4 $r14: .cfa -24 + ^ .cfa: $rsp 24 +
STACK CFI 84f6 $r13: .cfa -32 + ^ .cfa: $rsp 32 +
STACK CFI 84f8 $r12: .cfa -40 + ^ .cfa: $rsp 40 +
STACK CFI 84f9 $rbp: .cfa -48 + ^ .cfa: $rsp 48 +
STACK CFI 84fa $rbx: .cfa -56 + ^ .cfa: $rsp 56 +
STACK CFI 84fe .cfa: $rsp 112 +
STACK CFI 85e5 .cfa: $rsp 56 +
STACK CFI 85e6 .cfa: $rsp 48 +
STACK CFI 85e7 .cfa: $rsp 40 +
STACK CFI 85e9 .cfa: $rsp 32 +
STACK CFI 85eb .cfa: $rsp 24 +
STACK CFI 85ed .cfa: $rsp 16 +
STACK CFI 85ef .cfa: $rsp 8 +
STACK CFI 85f0 .cfa: $rsp 112 +
STACK CFI INIT 95b0 13 .cfa: $rsp 8 + .ra: .cfa -8 + ^
STACK CFI INIT 95d0 20 .cfa: $rsp 8 + .ra: .cfa -8 + ^
STACK CFI 95d8 $rbx: .cfa -16 + ^ .cfa: $rsp 16 +
STACK CFI 95eb .cfa: $rsp 8 +
STACK CFI INIT 8680 bb .cfa: $rsp 8 + .ra: .cfa -8 + ^
STACK CFI 8698 $r15: .cfa -16 + ^ .cfa: $rsp 16 +
STACK CFI 869a $r14: .cfa -24 + ^ .cfa: $rsp 24 +
STACK CFI 869f $r13: .cfa -32 + ^ .cfa: $rsp 32 +
STACK CFI 86a1 $r12: .cfa -40 + ^ .cfa: $rsp 40 +
STACK CFI 86a5 $rbp: .cfa -48 + ^ .cfa: $rsp 48 +
STACK CFI 86a6 $rbx: .cfa -56 + ^ .cfa: $rsp 56 +
STACK CFI 86b0 .cfa: $rsp 64 +
STACK CFI 86c3 .cfa: $rsp 56 +
STACK CFI 86c4 $rbx: $rbx .cfa: $rsp 48 +
STACK CFI 86c5 $rbp: $rbp .cfa: $rsp 40 +
STACK CFI 86c7 $r12: $r12 .cfa: $rsp 32 +
STACK CFI 86c9 $r13: $r13 .cfa: $rsp 24 +
STACK CFI 86cb $r14: $r14 .cfa: $rsp 16 +
STACK CFI 86cd $r15: $r15 .cfa: $rsp 8 +
STACK CFI 86d8 $r12: .cfa -40 + ^ $r13: .cfa -32 + ^ $r14: .cfa -24 + ^ $r15: .cfa -16 + ^ $rbp: .cfa -48 + ^ $rbx: .cfa -56 + ^ .cfa: $rsp 64 +
STACK CFI INIT 8740 bc .cfa: $rsp 8 + .ra: .cfa -8 + ^
STACK CFI 8751 $r15: .cfa -16 + ^ .cfa: $rsp 16 +
STACK CFI 8753 $r14: .cfa -24 + ^ .cfa: $rsp 24 +
STACK CFI 875b $r13: .cfa -32 + ^ .cfa: $rsp 32 +
STACK CFI 875d $r12: .cfa -40 + ^ .cfa: $rsp 40 +
STACK CFI 8761 $rbp: .cfa -48 + ^ .cfa: $rsp 48 +
STACK CFI 8762 $rbx: .cfa -56 + ^ .cfa: $rsp 56 +
STACK CFI 8766 .cfa: $rsp 64 +
STACK CFI 87ed .cfa: $rsp 56 +
STACK CFI 87f1 $rbx: $rbx .cfa: $rsp 48 +
STACK CFI 87f2 $rbp: $rbp .cfa: $rsp 40 +
STACK CFI 87f4 $r12: $r12 .cfa: $rsp 32 +
STACK CFI 87f6 $r13: $r13 .cfa: $rsp 24 +
STACK CFI 87f8 $r14: $r14 .cfa: $rsp 16 +
STACK CFI 87fa $r15: $r15 .cfa: $rsp 8 +
STACK CFI INIT 8800 5fd .cfa: $rsp 8 + .ra: .cfa -8 + ^
STACK CFI 8802 $r15: .cfa -16 + ^ .cfa: $rsp 16 +
STACK CFI 8804 $r14: .cfa -24 + ^ .cfa: $rsp 24 +
STACK CFI 880d $r13: .cfa -32 + ^ .cfa: $rsp 32 +
STACK CFI 880f $r12: .cfa -40 + ^ .cfa: $rsp 40 +
STACK CFI 8813 $rbp: .cfa -48 + ^ .cfa: $rsp 48 +
STACK CFI 8814 $rbx: .cfa -56 + ^ .cfa: $rsp 56 +
STACK CFI 881b .cfa: $rsp 416 +
STACK CFI 896f .cfa: $rsp 56 +
STACK CFI 8970 .cfa: $rsp 48 +
STACK CFI 8971 .cfa: $rsp 40 +
STACK CFI 8973 .cfa: $rsp 32 +
STACK CFI 8975 .cfa: $rsp 24 +
STACK CFI 8977 .cfa: $rsp 16 +
STACK CFI 8979 .cfa: $rsp 8 +
STACK CFI 8980 .cfa: $rsp 416 +
STACK CFI INIT 8e00 51d .cfa: $rsp 8 + .ra: .cfa -8 + ^
STACK CFI 8e02 $r15: .cfa -16 + ^ .cfa: $rsp 16 +
STACK CFI 8e04 $r14: .cfa -24 + ^ .cfa: $rsp 24 +
STACK CFI 8e06 $r13: .cfa -32 + ^ .cfa: $rsp 32 +
STACK CFI 8e08 $r12: .cfa -40 + ^ .cfa: $rsp 40 +
STACK CFI 8e0c $rbp: .cfa -48 + ^ .cfa: $rsp 48 +
STACK CFI 8e0d $rbx: .cfa -56 + ^ .cfa: $rsp 56 +
STACK CFI 8e14 .cfa: $rsp 384 +
STACK CFI 9014 .cfa: $rsp 56 +
STACK CFI 9015 .cfa: $rsp 48 +
STACK CFI 9016 .cfa: $rsp 40 +
STACK CFI 9018 .cfa: $rsp 32 +
STACK CFI 901a .cfa: $rsp 24 +
STACK CFI 901c .cfa: $rsp 16 +
STACK CFI 901e .cfa: $rsp 8 +
STACK CFI 901f .cfa: $rsp 384 +
STACK CFI INIT 9320 27 .cfa: $rsp 8 + .ra: .cfa -8 + ^
STACK CFI 9321 $rbx: .cfa -16 + ^ .cfa: $rsp 16 +
STACK CFI 9346 .cfa: $rsp 8 +
STACK CFI INIT 95f0 288 .cfa: $rsp 8 + .ra: .cfa -8 + ^
STACK CFI 9642 $r15: .cfa -16 + ^ .cfa: $rsp 16 +
STACK CFI 9644 $r14: .cfa -24 + ^ .cfa: $rsp 24 +
STACK CFI 9649 $r13: .cfa -32 + ^ .cfa: $rsp 32 +
STACK CFI 964b $r12: .cfa -40 + ^ .cfa: $rsp 40 +
STACK CFI 9656 $rbp: .cfa -48 + ^ .cfa: $rsp 48 +
STACK CFI 9657 $rbx: .cfa -56 + ^ .cfa: $rsp 56 +
STACK CFI 9664 .cfa: $rsp 80 +
STACK CFI 9729 .cfa: $rsp 56 +
STACK CFI 972a $rbx: $rbx .cfa: $rsp 48 +
STACK CFI 972b $rbp: $rbp .cfa: $rsp 40 +
STACK CFI 972d $r12: $r12 .cfa: $rsp 32 +
STACK CFI 972f $r13: $r13 .cfa: $rsp 24 +
STACK CFI 9731 $r14: $r14 .cfa: $rsp 16 +
STACK CFI 9733 $r15: $r15 .cfa: $rsp 8 +
STACK CFI 9735 $r12: .cfa -40 + ^ $r13: .cfa -32 + ^ $r14: .cfa -24 + ^ $r15: .cfa -16 + ^ $rbp: .cfa -48 + ^ $rbx: .cfa -56 + ^ .cfa: $rsp 80 +
STACK CFI INIT 9350 251 .cfa: $rsp 8 + .ra: .cfa -8 + ^
STACK CFI 9352 $r15: .cfa -16 + ^ .cfa: $rsp 16 +
STACK CFI 9354 $r14: .cfa -24 + ^ .cfa: $rsp 24 +
STACK CFI 9356 $r13: .cfa -32 + ^ .cfa: $rsp 32 +
STACK CFI 9358 $r12: .cfa -40 + ^ .cfa: $rsp 40 +
STACK CFI 9359 $rbp: .cfa -48 + ^ .cfa: $rsp 48 +
STACK CFI 935a $rbx: .cfa -56 + ^ .cfa: $rsp 56 +
STACK CFI 9361 .cfa: $rsp 304 +
STACK CFI 94d5 .cfa: $rsp 56 +
STACK CFI 94d6 .cfa: $rsp 48 +
STACK CFI 94d7 .cfa: $rsp 40 +
STACK CFI 94d9 .cfa: $rsp 32 +
STACK CFI 94db .cfa: $rsp 24 +
STACK CFI 94dd .cfa: $rsp 16 +
STACK CFI 94df .cfa: $rsp 8 +
STACK CFI 94e0 .cfa: $rsp 304 +
STACK CFI INIT 1b90 4a .cfa: $rsp 8 + .ra: .cfa -8 + ^
STACK CFI 1b92 $r13: .cfa -16 + ^ .cfa: $rsp 16 +
STACK CFI 1b94 $r12: .cfa -24 + ^ .cfa: $rsp 24 +
STACK CFI 1b98 $rbp: .cfa -32 + ^ .cfa: $rsp 32 +
STACK CFI 1b99 $rbx: .cfa -40 + ^ .cfa: $rsp 40 +
STACK CFI 1b9d .cfa: $rsp 48 +
STACK CFI 1bd3 .cfa: $rsp 40 +
STACK CFI 1bd4 .cfa: $rsp 32 +
STACK CFI 1bd5 .cfa: $rsp 24 +
STACK CFI 1bd7 .cfa: $rsp 16 +
STACK CFI 1bd9 .cfa: $rsp 8 +
STACK CFI INIT 1bda 20 .cfa: $rsp 8 + .ra: .cfa -8 + ^
STACK CFI 1be2 .cfa: $rsp 16 +
STACK CFI INIT 1bfa 20 .cfa: $rsp 8 + .ra: .cfa -8 + ^
STACK CFI 1c02 .cfa: $rsp 16 +
STACK CFI INIT 1c1a 1d .cfa: $rsp 8 + .ra: .cfa -8 + ^
STACK CFI 1c20 .cfa: $rsp 16 +
STACK CFI 1c25 .cfa: $rsp 8 +
STACK CFI INIT 1c38 20 .cfa: $rsp 8 + .ra: .cfa -8 + ^
STACK CFI 1c40 .cfa: $rsp 16 +
STACK CFI INIT 1c58 20 .cfa: $rsp 8 + .ra: .cfa -8 + ^
STACK CFI 1c60 .cfa: $rsp 16 +
STACK CFI INIT 1c78 2c .cfa: $rsp 8 + .ra: .cfa -8 + ^
STACK CFI 1c79 $rbp: .cfa -16 + ^ .cfa: $rsp 16 +
STACK CFI 1c7a $rbx: .cfa -24 + ^ .cfa: $rsp 24 +
STACK CFI 1c7f .cfa: $rsp 32 +
STACK CFI 1c9a .cfa: $rsp 24 +
STACK CFI 1c9e .cfa: $rsp 16 +
STACK CFI 1c9f .cfa: $rsp 8 +
STACK CFI INIT 1ca4 1ec .cfa: $rsp 8 + .ra: .cfa -8 + ^
STACK CFI 1ca6 $r15: .cfa -16 + ^ .cfa: $rsp 16 +
STACK CFI 1ca8 $r14: .cfa -24 + ^ .cfa: $rsp 24 +
STACK CFI 1caa $r13: .cfa -32 + ^ .cfa: $rsp 32 +
STACK CFI 1cac $r12: .cfa -40 + ^ .cfa: $rsp 40 +
STACK CFI 1cb0 $rbp: .cfa -48 + ^ .cfa: $rsp 48 +
STACK CFI 1cb1 $rbx: .cfa -56 + ^ .cfa: $rsp 56 +
STACK CFI 1cba .cfa: $rsp 112 +
STACK CFI 1e85 .cfa: $rsp 56 +
STACK CFI 1e86 .cfa: $rsp 48 +
STACK CFI 1e87 .cfa: $rsp 40 +
STACK CFI 1e89 .cfa: $rsp 32 +
STACK CFI 1e8b .cfa: $rsp 24 +
STACK CFI 1e8d .cfa: $rsp 16 +
STACK CFI 1e8f .cfa: $rsp 8 +
STACK CFI INIT 1e90 67 .cfa: $rsp 8 + .ra: .cfa -8 + ^
STACK CFI 1e92 $r12: .cfa -16 + ^ .cfa: $rsp 16 +
STACK CFI 1e93 $rbp: .cfa -24 + ^ .cfa: $rsp 24 +
STACK CFI 1e97 $rbx: .cfa -32 + ^ .cfa: $rsp 32 +
STACK CFI 1ea1 .cfa: $rsp 304 +
STACK CFI 1ef2 .cfa: $rsp 32 +
STACK CFI 1ef3 .cfa: $rsp 24 +
STACK CFI 1ef4 .cfa: $rsp 16 +
STACK CFI 1ef6 .cfa: $rsp 8 +
STACK CFI INIT d770 259 .cfa: $rsp 8 + .ra: .cfa -8 + ^
STACK CFI d772 $r15: .cfa -16 + ^ .cfa: $rsp 16 +
STACK CFI d774 $r14: .cfa -24 + ^ .cfa: $rsp 24 +
STACK CFI d77a $r13: .cfa -32 + ^ .cfa: $rsp 32 +
STACK CFI d77c $r12: .cfa -40 + ^ .cfa: $rsp 40 +
STACK CFI d780 $rbp: .cfa -48 + ^ .cfa: $rsp 48 +
STACK CFI d781 $rbx: .cfa -56 + ^ .cfa: $rsp 56 +
STACK CFI d788 .cfa: $rsp 64 +
STACK CFI d7ed .cfa: $rsp 56 +
STACK CFI d7f0 .cfa: $rsp 48 +
STACK CFI d7f1 .cfa: $rsp 40 +
STACK CFI d7f3 .cfa: $rsp 32 +
STACK CFI d7f5 .cfa: $rsp 24 +
STACK CFI d7f7 .cfa: $rsp 16 +
STACK CFI d7f9 .cfa: $rsp 8 +
STACK CFI d800 .cfa: $rsp 64 +
STACK CFI d8d3 .cfa: $rsp 56 +
STACK CFI d8d4 .cfa: $rsp 48 +
STACK CFI d8da .cfa: $rsp 40 +
STACK CFI d8dc .cfa: $rsp 32 +
STACK CFI d8de .cfa: $rsp 24 +
STACK CFI d8e0 .cfa: $rsp 16 +
STACK CFI d8e2 .cfa: $rsp 8 +
STACK CFI d8e8 .cfa: $rsp 64 +
STACK CFI d99d .cfa: $rsp 56 +
STACK CFI d9a0 .cfa: $rsp 48 +
STACK CFI d9a1 .cfa: $rsp 40 +
STACK CFI d9a3 .cfa: $rsp 32 +
STACK CFI d9a5 .cfa: $rsp 24 +
STACK CFI d9a7 .cfa: $rsp 16 +
STACK CFI d9a9 .cfa: $rsp 8 +
STACK CFI d9aa .cfa: $rsp 64 +
STACK CFI INIT d9d0 257 .cfa: $rsp 8 + .ra: .cfa -8 + ^
STACK CFI d9f2 $r15: .cfa -16 + ^ .cfa: $rsp 16 +
STACK CFI d9f4 $r14: .cfa -24 + ^ .cfa: $rsp 24 +
STACK CFI d9f6 $r13: .cfa -32 + ^ .cfa: $rsp 32 +
STACK CFI d9f8 $r12: .cfa -40 + ^ .cfa: $rsp 40 +
STACK CFI d9f9 $rbp: .cfa -48 + ^ .cfa: $rsp 48 +
STACK CFI d9fa $rbx: .cfa -56 + ^ .cfa: $rsp 56 +
STACK CFI da01 .cfa: $rsp 80 +
STACK CFI da31 .cfa: $rsp 56 +
STACK CFI da32 $rbx: $rbx .cfa: $rsp 48 +
STACK CFI da33 $rbp: $rbp .cfa: $rsp 40 +
STACK CFI da35 $r12: $r12 .cfa: $rsp 32 +
STACK CFI da37 $r13: $r13 .cfa: $rsp 24 +
STACK CFI da39 $r14: $r14 .cfa: $rsp 16 +
STACK CFI da3b $r15: $r15 .cfa: $rsp 8 +
STACK CFI da40 $r12: .cfa -40 + ^ $r13: .cfa -32 + ^ $r14: .cfa -24 + ^ $r15: .cfa -16 + ^ $rbp: .cfa -48 + ^ $rbx: .cfa -56 + ^ .cfa: $rsp 80 +
STACK CFI INIT dc30 250 .cfa: $rsp 8 + .ra: .cfa -8 + ^
STACK CFI dc32 $r15: .cfa -16 + ^ .cfa: $rsp 16 +
STACK CFI dc34 $r14: .cfa -24 + ^ .cfa: $rsp 24 +
STACK CFI dc36 $r13: .cfa -32 + ^ .cfa: $rsp 32 +
STACK CFI dc38 $r12: .cfa -40 + ^ .cfa: $rsp 40 +
STACK CFI dc3c $rbp: .cfa -48 + ^ .cfa: $rsp 48 +
STACK CFI dc3d $rbx: .cfa -56 + ^ .cfa: $rsp 56 +
STACK CFI dc44 .cfa: $rsp 80 +
STACK CFI dcf0 .cfa: $rsp 56 +
STACK CFI dcf1 .cfa: $rsp 48 +
STACK CFI dcf2 .cfa: $rsp 40 +
STACK CFI dcf4 .cfa: $rsp 32 +
STACK CFI dcf6 .cfa: $rsp 24 +
STACK CFI dcf8 .cfa: $rsp 16 +
STACK CFI dcfa .cfa: $rsp 8 +
STACK CFI dd00 .cfa: $rsp 80 +
STACK CFI INIT 9880 e0e .cfa: $rsp 8 + .ra: .cfa -8 + ^
STACK CFI 9882 $r15: .cfa -16 + ^ .cfa: $rsp 16 +
STACK CFI 9884 $r14: .cfa -24 + ^ .cfa: $rsp 24 +
STACK CFI 988a $r13: .cfa -32 + ^ .cfa: $rsp 32 +
STACK CFI 988c $r12: .cfa -40 + ^ .cfa: $rsp 40 +
STACK CFI 988d $rbp: .cfa -48 + ^ .cfa: $rsp 48 +
STACK CFI 988e $rbx: .cfa -56 + ^ .cfa: $rsp 56 +
STACK CFI 9895 .cfa: $rsp 2448 +
STACK CFI 9b41 .cfa: $rsp 56 +
STACK CFI 9b42 .cfa: $rsp 48 +
STACK CFI 9b43 .cfa: $rsp 40 +
STACK CFI 9b45 .cfa: $rsp 32 +
STACK CFI 9b47 .cfa: $rsp 24 +
STACK CFI 9b49 .cfa: $rsp 16 +
STACK CFI 9b4b .cfa: $rsp 8 +
STACK CFI 9b50 .cfa: $rsp 2448 +
STACK CFI INIT a690 21d9 .cfa: $rsp 8 + .ra: .cfa -8 + ^
STACK CFI a691 $rbp: .cfa -16 + ^ .cfa: $rsp 16 +
STACK CFI a699 .cfa: $rbp 16 +
STACK CFI a6a1 $r12: .cfa -48 + ^ $r13: .cfa -40 + ^ $r14: .cfa -32 + ^ $r15: .cfa -24 + ^
STACK CFI a6a6 $rbx: .cfa -56 + ^
STACK CFI a7ef .cfa: $rsp 8 +
STACK CFI a7f0 .cfa: $rbp 16 +
STACK CFI INIT c870 343 .cfa: $rsp 8 + .ra: .cfa -8 + ^
STACK CFI c872 $r15: .cfa -16 + ^ .cfa: $rsp 16 +
STACK CFI c874 $r14: .cfa -24 + ^ .cfa: $rsp 24 +
STACK CFI c879 $r13: .cfa -32 + ^ .cfa: $rsp 32 +
STACK CFI c87b $r12: .cfa -40 + ^ .cfa: $rsp 40 +
STACK CFI c87f $rbp: .cfa -48 + ^ .cfa: $rsp 48 +
STACK CFI c880 $rbx: .cfa -56 + ^ .cfa: $rsp 56 +
STACK CFI c887 .cfa: $rsp 240 +
STACK CFI ca15 .cfa: $rsp 56 +
STACK CFI ca16 .cfa: $rsp 48 +
STACK CFI ca17 .cfa: $rsp 40 +
STACK CFI ca19 .cfa: $rsp 32 +
STACK CFI ca1b .cfa: $rsp 24 +
STACK CFI ca1d .cfa: $rsp 16 +
STACK CFI ca1f .cfa: $rsp 8 +
STACK CFI ca20 .cfa: $rsp 240 +
STACK CFI INIT cbc0 496 .cfa: $rsp 8 + .ra: .cfa -8 + ^
STACK CFI cbc2 $r15: .cfa -16 + ^ .cfa: $rsp 16 +
STACK CFI cbc4 $r14: .cfa -24 + ^ .cfa: $rsp 24 +
STACK CFI cbc9 $r13: .cfa -32 + ^ .cfa: $rsp 32 +
STACK CFI cbcb $r12: .cfa -40 + ^ .cfa: $rsp 40 +
STACK CFI cbcc $rbp: .cfa -48 + ^ .cfa: $rsp 48 +
STACK CFI cbcd $rbx: .cfa -56 + ^ .cfa: $rsp 56 +
STACK CFI cbd6 .cfa: $rsp 544 +
STACK CFI ce3f .cfa: $rsp 56 +
STACK CFI ce40 .cfa: $rsp 48 +
STACK CFI ce41 .cfa: $rsp 40 +
STACK CFI ce43 .cfa: $rsp 32 +
STACK CFI ce45 .cfa: $rsp 24 +
STACK CFI ce47 .cfa: $rsp 16 +
STACK CFI ce49 .cfa: $rsp 8 +
STACK CFI ce4a .cfa: $rsp 544 +
STACK CFI INIT d060 422 .cfa: $rsp 8 + .ra: .cfa -8 + ^
STACK CFI d062 $r15: .cfa -16 + ^ .cfa: $rsp 16 +
STACK CFI d064 $r14: .cfa -24 + ^ .cfa: $rsp 24 +
STACK CFI d069 $r13: .cfa -32 + ^ .cfa: $rsp 32 +
STACK CFI d06b $r12: .cfa -40 + ^ .cfa: $rsp 40 +
STACK CFI d06f $rbp: .cfa -48 + ^ .cfa: $rsp 48 +
STACK CFI d070 $rbx: .cfa -56 + ^ .cfa: $rsp 56 +
STACK CFI d07e .cfa: $rsp 480 +
STACK CFI d110 .cfa: $rsp 56 +
STACK CFI d111 .cfa: $rsp 48 +
STACK CFI d112 .cfa: $rsp 40 +
STACK CFI d114 .cfa: $rsp 32 +
STACK CFI d116 .cfa: $rsp 24 +
STACK CFI d118 .cfa: $rsp 16 +
STACK CFI d11a .cfa: $rsp 8 +
STACK CFI d120 .cfa: $rsp 480 +
STACK CFI INIT d490 109 .cfa: $rsp 8 + .ra: .cfa -8 + ^
STACK CFI d491 $rbp: .cfa -16 + ^ .cfa: $rsp 16 +
STACK CFI d4a8 .cfa: $rbp 16 +
STACK CFI d4af $r12: .cfa -40 + ^ $r13: .cfa -32 + ^ $r14: .cfa -24 + ^ $rbx: .cfa -48 + ^
STACK CFI d556 .cfa: $rsp 8 +
STACK CFI d557 .cfa: $rbp 16 +
STACK CFI INIT d5a0 109 .cfa: $rsp 8 + .ra: .cfa -8 + ^
STACK CFI d5a1 $rbp: .cfa -16 + ^ .cfa: $rsp 16 +
STACK CFI d5b5 .cfa: $rbp 16 +
STACK CFI d5bc $r12: .cfa -40 + ^ $r13: .cfa -32 + ^ $r14: .cfa -24 + ^ $rbx: .cfa -48 + ^
STACK CFI d666 .cfa: $rsp 8 +
STACK CFI d667 .cfa: $rbp 16 +
STACK CFI INIT d6b0 26 .cfa: $rsp 8 + .ra: .cfa -8 + ^
STACK CFI d6b4 .cfa: $rsp 16 +
STACK CFI d6b6 .cfa: $rsp 24 +
STACK CFI d6b8 .cfa: $rsp 32 +
STACK CFI d6d5 .cfa: $rsp 8 +
STACK CFI INIT d6e0 25 .cfa: $rsp 8 + .ra: .cfa -8 + ^
STACK CFI d6e4 .cfa: $rsp 16 +
STACK CFI d6e6 .cfa: $rsp 24 +
STACK CFI d6e8 .cfa: $rsp 32 +
STACK CFI d704 .cfa: $rsp 8 +
STACK CFI INIT d710 24 .cfa: $rsp 8 + .ra: .cfa -8 + ^
STACK CFI d714 .cfa: $rsp 16 +
STACK CFI d718 .cfa: $rsp 24 +
STACK CFI d71a .cfa: $rsp 32 +
STACK CFI d733 .cfa: $rsp 8 +
STACK CFI INIT d740 23 .cfa: $rsp 8 + .ra: .cfa -8 + ^
STACK CFI d744 .cfa: $rsp 16 +
STACK CFI d748 .cfa: $rsp 24 +
STACK CFI d74a .cfa: $rsp 32 +
STACK CFI d762 .cfa: $rsp 8 +
STACK CFI INIT de80 23 .cfa: $rsp 8 + .ra: .cfa -8 + ^
STACK CFI de99 .cfa: $rsp 16 +
STACK CFI INIT deb0 1a .cfa: $rsp 8 + .ra: .cfa -8 + ^
STACK CFI INIT ded0 78 .cfa: $rsp 8 + .ra: .cfa -8 + ^
STACK CFI ded2 $r12: .cfa -16 + ^ .cfa: $rsp 16 +
STACK CFI ded3 $rbp: .cfa -24 + ^ .cfa: $rsp 24 +
STACK CFI ded7 $rbx: .cfa -32 + ^ .cfa: $rsp 32 +
STACK CFI df0f .cfa: $rsp 24 +
STACK CFI df10 .cfa: $rsp 16 +
STACK CFI df12 .cfa: $rsp 8 +
STACK CFI df18 .cfa: $rsp 32 +
STACK CFI df25 .cfa: $rsp 24 +
STACK CFI df26 .cfa: $rsp 16 +
STACK CFI df28 .cfa: $rsp 8 +
STACK CFI df29 .cfa: $rsp 32 +
STACK CFI INIT df50 2c .cfa: $rsp 8 + .ra: .cfa -8 + ^
STACK CFI df64 .cfa: $rsp 16 +
STACK CFI INIT df80 5d .cfa: $rsp 8 + .ra: .cfa -8 + ^
STACK CFI df82 $r12: .cfa -16 + ^ .cfa: $rsp 16 +
STACK CFI df86 $rbp: .cfa -24 + ^ .cfa: $rsp 24 +
STACK CFI df87 $rbx: .cfa -32 + ^ .cfa: $rsp 32 +
STACK CFI dfca .cfa: $rsp 24 +
STACK CFI dfcb .cfa: $rsp 16 +
STACK CFI dfcd .cfa: $rsp 8 +
STACK CFI dfd0 .cfa: $rsp 32 +
STACK CFI INIT dfe0 15 .cfa: $rsp 8 + .ra: .cfa -8 + ^
STACK CFI INIT e000 b6 .cfa: $rsp 8 + .ra: .cfa -8 + ^
STACK CFI e002 $r13: .cfa -16 + ^ .cfa: $rsp 16 +
STACK CFI e004 $r12: .cfa -24 + ^ .cfa: $rsp 24 +
STACK CFI e005 $rbp: .cfa -32 + ^ .cfa: $rsp 32 +
STACK CFI e006 $rbx: .cfa -40 + ^ .cfa: $rsp 40 +
STACK CFI e00a .cfa: $rsp 48 +
STACK CFI e03e .cfa: $rsp 40 +
STACK CFI e03f .cfa: $rsp 32 +
STACK CFI e040 .cfa: $rsp 24 +
STACK CFI e042 .cfa: $rsp 16 +
STACK CFI e044 .cfa: $rsp 8 +
STACK CFI e048 .cfa: $rsp 48 +
STACK CFI INIT e0c0 ff .cfa: $rsp 8 + .ra: .cfa -8 + ^
STACK CFI e0c1 $rbp: .cfa -16 + ^ .cfa: $rsp 16 +
STACK CFI e0c2 $rbx: .cfa -24 + ^ .cfa: $rsp 24 +
STACK CFI e0c6 .cfa: $rsp 32 +
STACK CFI e149 .cfa: $rsp 24 +
STACK CFI e14a .cfa: $rsp 16 +
STACK CFI e14b .cfa: $rsp 8 +
STACK CFI e150 .cfa: $rsp 32 +
STACK CFI e15d .cfa: $rsp 24 +
STACK CFI e160 .cfa: $rsp 16 +
STACK CFI e161 .cfa: $rsp 8 +
STACK CFI e162 .cfa: $rsp 32 +
STACK CFI INIT e1c0 f0 .cfa: $rsp 8 + .ra: .cfa -8 + ^
STACK CFI e1c2 $r15: .cfa -16 + ^ .cfa: $rsp 16 +
STACK CFI e1c4 $r14: .cfa -24 + ^ .cfa: $rsp 24 +
STACK CFI e1c6 $r13: .cfa -32 + ^ .cfa: $rsp 32 +
STACK CFI e1c8 $r12: .cfa -40 + ^ .cfa: $rsp 40 +
STACK CFI e1c9 $rbp: .cfa -48 + ^ .cfa: $rsp 48 +
STACK CFI e1ca $rbx: .cfa -56 + ^ .cfa: $rsp 56 +
STACK CFI e1ce .cfa: $rsp 80 +
STACK CFI e27a .cfa: $rsp 56 +
STACK CFI e27b .cfa: $rsp 48 +
STACK CFI e27c .cfa: $rsp 40 +
STACK CFI e27e .cfa: $rsp 32 +
STACK CFI e280 .cfa: $rsp 24 +
STACK CFI e282 .cfa: $rsp 16 +
STACK CFI e284 .cfa: $rsp 8 +
STACK CFI e285 .cfa: $rsp 80 +
STACK CFI INIT e2b0 ef .cfa: $rsp 8 + .ra: .cfa -8 + ^
STACK CFI e2b2 $r15: .cfa -16 + ^ .cfa: $rsp 16 +
STACK CFI e2b4 $r14: .cfa -24 + ^ .cfa: $rsp 24 +
STACK CFI e2b6 $r13: .cfa -32 + ^ .cfa: $rsp 32 +
STACK CFI e2b8 $r12: .cfa -40 + ^ .cfa: $rsp 40 +
STACK CFI e2b9 $rbp: .cfa -48 + ^ .cfa: $rsp 48 +
STACK CFI e2ba $rbx: .cfa -56 + ^ .cfa: $rsp 56 +
STACK CFI e2be .cfa: $rsp 80 +
STACK CFI e369 .cfa: $rsp 56 +
STACK CFI e36a .cfa: $rsp 48 +
STACK CFI e36b .cfa: $rsp 40 +
STACK CFI e36d .cfa: $rsp 32 +
STACK CFI e36f .cfa: $rsp 24 +
STACK CFI e371 .cfa: $rsp 16 +
STACK CFI e373 .cfa: $rsp 8 +
STACK CFI e374 .cfa: $rsp 80 +
STACK CFI INIT e3a0 41 .cfa: $rsp 8 + .ra: .cfa -8 + ^
STACK CFI e3a1 $rbx: .cfa -16 + ^ .cfa: $rsp 16 +
STACK CFI e3c1 .cfa: $rsp 8 +
STACK CFI e3c2 .cfa: $rsp 16 +
STACK CFI INIT e3f0 89 .cfa: $rsp 8 + .ra: .cfa -8 + ^
STACK CFI e3f4 .cfa: $rsp 16 +
STACK CFI e417 .cfa: $rsp 8 +
STACK CFI e41c .cfa: $rsp 16 +
STACK CFI INIT e480 df .cfa: $rsp 8 + .ra: .cfa -8 + ^
STACK CFI e482 $r12: .cfa -16 + ^ .cfa: $rsp 16 +
STACK CFI e483 $rbp: .cfa -24 + ^ .cfa: $rsp 24 +
STACK CFI e484 $rbx: .cfa -32 + ^ .cfa: $rsp 32 +
STACK CFI e488 .cfa: $rsp 64 +
STACK CFI e4e5 .cfa: $rsp 32 +
STACK CFI e4e6 .cfa: $rsp 24 +
STACK CFI e4e7 .cfa: $rsp 16 +
STACK CFI e4e9 .cfa: $rsp 8 +
STACK CFI e4f0 .cfa: $rsp 64 +
STACK CFI INIT e580 23a .cfa: $rsp 8 + .ra: .cfa -8 + ^
STACK CFI e582 $r15: .cfa -16 + ^ .cfa: $rsp 16 +
STACK CFI e584 $r14: .cfa -24 + ^ .cfa: $rsp 24 +
STACK CFI e586 $r13: .cfa -32 + ^ .cfa: $rsp 32 +
STACK CFI e588 $r12: .cfa -40 + ^ .cfa: $rsp 40 +
STACK CFI e589 $rbp: .cfa -48 + ^ .cfa: $rsp 48 +
STACK CFI e58a $rbx: .cfa -56 + ^ .cfa: $rsp 56 +
STACK CFI e58e .cfa: $rsp 128 +
STACK CFI e685 .cfa: $rsp 56 +
STACK CFI e686 .cfa: $rsp 48 +
STACK CFI e687 .cfa: $rsp 40 +
STACK CFI e689 .cfa: $rsp 32 +
STACK CFI e68b .cfa: $rsp 24 +
STACK CFI e68d .cfa: $rsp 16 +
STACK CFI e68f .cfa: $rsp 8 +
STACK CFI e690 .cfa: $rsp 128 +
STACK CFI INIT e560 5 .cfa: $rsp 8 + .ra: .cfa -8 + ^
STACK CFI INIT e7c0 23a .cfa: $rsp 8 + .ra: .cfa -8 + ^
STACK CFI e7c2 $r15: .cfa -16 + ^ .cfa: $rsp 16 +
STACK CFI e7c4 $r14: .cfa -24 + ^ .cfa: $rsp 24 +
STACK CFI e7c6 $r13: .cfa -32 + ^ .cfa: $rsp 32 +
STACK CFI e7c8 $r12: .cfa -40 + ^ .cfa: $rsp 40 +
STACK CFI e7c9 $rbp: .cfa -48 + ^ .cfa: $rsp 48 +
STACK CFI e7ca $rbx: .cfa -56 + ^ .cfa: $rsp 56 +
STACK CFI e7ce .cfa: $rsp 128 +
STACK CFI e8bc .cfa: $rsp 56 +
STACK CFI e8bd .cfa: $rsp 48 +
STACK CFI e8be .cfa: $rsp 40 +
STACK CFI e8c0 .cfa: $rsp 32 +
STACK CFI e8c2 .cfa: $rsp 24 +
STACK CFI e8c4 .cfa: $rsp 16 +
STACK CFI e8c6 .cfa: $rsp 8 +
STACK CFI e8d0 .cfa: $rsp 128 +
STACK CFI INIT e570 5 .cfa: $rsp 8 + .ra: .cfa -8 + ^
STACK CFI INIT ea00 c2 .cfa: $rsp 8 + .ra: .cfa -8 + ^
STACK CFI ea02 $r12: .cfa -16 + ^ .cfa: $rsp 16 +
STACK CFI ea03 $rbp: .cfa -24 + ^ .cfa: $rsp 24 +
STACK CFI ea07 $rbx: .cfa -32 + ^ .cfa: $rsp 32 +
STACK CFI ea0e .cfa: $rsp 48 +
STACK CFI ea7a .cfa: $rsp 32 +
STACK CFI ea7b .cfa: $rsp 24 +
STACK CFI ea7c .cfa: $rsp 16 +
STACK CFI ea7e .cfa: $rsp 8 +
STACK CFI ea80 .cfa: $rsp 48 +
STACK CFI INIT ead0 b1 .cfa: $rsp 8 + .ra: .cfa -8 + ^
STACK CFI ead2 $r15: .cfa -16 + ^ .cfa: $rsp 16 +
STACK CFI ead4 $r14: .cfa -24 + ^ .cfa: $rsp 24 +
STACK CFI ead8 $r13: .cfa -32 + ^ .cfa: $rsp 32 +
STACK CFI eada $r12: .cfa -40 + ^ .cfa: $rsp 40 +
STACK CFI eade $rbp: .cfa -48 + ^ .cfa: $rsp 48 +
STACK CFI eadf $rbx: .cfa -56 + ^ .cfa: $rsp 56 +
STACK CFI eaf2 .cfa: $rsp 96 +
STACK CFI eb69 .cfa: $rsp 56 +
STACK CFI eb6a .cfa: $rsp 48 +
STACK CFI eb6b .cfa: $rsp 40 +
STACK CFI eb6d .cfa: $rsp 32 +
STACK CFI eb6f .cfa: $rsp 24 +
STACK CFI eb71 .cfa: $rsp 16 +
STACK CFI eb73 .cfa: $rsp 8 +
STACK CFI eb78 .cfa: $rsp 96 +
STACK CFI INIT eb90 7b .cfa: $rsp 8 + .ra: .cfa -8 + ^
STACK CFI eb91 $rbx: .cfa -16 + ^ .cfa: $rsp 16 +
STACK CFI eb9d .cfa: $rsp 64 +
STACK CFI ec04 .cfa: $rsp 16 +
STACK CFI ec05 .cfa: $rsp 8 +
STACK CFI ec06 .cfa: $rsp 64 +
STACK CFI INIT ec10 173 .cfa: $rsp 8 + .ra: .cfa -8 + ^
STACK CFI ec12 $r14: .cfa -16 + ^ .cfa: $rsp 16 +
STACK CFI ec14 $r13: .cfa -24 + ^ .cfa: $rsp 24 +
STACK CFI ec16 $r12: .cfa -32 + ^ .cfa: $rsp 32 +
STACK CFI ec17 $rbp: .cfa -40 + ^ .cfa: $rsp 40 +
STACK CFI ec1a $rbx: .cfa -48 + ^ .cfa: $rsp 48 +
STACK CFI ec24 .cfa: $rsp 80 +
STACK CFI ed2f .cfa: $rsp 48 +
STACK CFI ed30 .cfa: $rsp 40 +
STACK CFI ed31 .cfa: $rsp 32 +
STACK CFI ed33 .cfa: $rsp 24 +
STACK CFI ed35 .cfa: $rsp 16 +
STACK CFI ed37 .cfa: $rsp 8 +
STACK CFI ed40 .cfa: $rsp 80 +
STACK CFI INIT ef70 2bd .cfa: $rsp 8 + .ra: .cfa -8 + ^
STACK CFI ef7b $r15: .cfa -16 + ^ .cfa: $rsp 16 +
STACK CFI ef7d $r14: .cfa -24 + ^ .cfa: $rsp 24 +
STACK CFI ef82 $r13: .cfa -32 + ^ .cfa: $rsp 32 +
STACK CFI ef84 $r12: .cfa -40 + ^ .cfa: $rsp 40 +
STACK CFI ef85 $rbp: .cfa -48 + ^ .cfa: $rsp 48 +
STACK CFI ef86 $rbx: .cfa -56 + ^ .cfa: $rsp 56 +
STACK CFI ef90 .cfa: $rsp 80 +
STACK CFI f011 .cfa: $rsp 56 +
STACK CFI f012 $rbx: $rbx .cfa: $rsp 48 +
STACK CFI f013 $rbp: $rbp .cfa: $rsp 40 +
STACK CFI f015 $r12: $r12 .cfa: $rsp 32 +
STACK CFI f017 $r13: $r13 .cfa: $rsp 24 +
STACK CFI f019 $r14: $r14 .cfa: $rsp 16 +
STACK CFI f01b $r15: $r15 .cfa: $rsp 8 +
STACK CFI f020 $r12: .cfa -40 + ^ $r13: .cfa -32 + ^ $r14: .cfa -24 + ^ $r15: .cfa -16 + ^ $rbp: .cfa -48 + ^ $rbx: .cfa -56 + ^ .cfa: $rsp 80 +
STACK CFI f071 .cfa: $rsp 56 +
STACK CFI f072 $rbx: $rbx .cfa: $rsp 48 +
STACK CFI f073 $rbp: $rbp .cfa: $rsp 40 +
STACK CFI f075 $r12: $r12 .cfa: $rsp 32 +
STACK CFI f077 $r13: $r13 .cfa: $rsp 24 +
STACK CFI f079 $r14: $r14 .cfa: $rsp 16 +
STACK CFI f07b $r15: $r15 .cfa: $rsp 8 +
STACK CFI f080 $r12: .cfa -40 + ^ $r13: .cfa -32 + ^ $r14: .cfa -24 + ^ $r15: .cfa -16 + ^ $rbp: .cfa -48 + ^ $rbx: .cfa -56 + ^ .cfa: $rsp 80 +
STACK CFI f19e .cfa: $rsp 56 +
STACK CFI f19f $rbx: $rbx .cfa: $rsp 48 +
STACK CFI f1a0 $rbp: $rbp .cfa: $rsp 40 +
STACK CFI f1a2 $r12: $r12 .cfa: $rsp 32 +
STACK CFI f1a4 $r13: $r13 .cfa: $rsp 24 +
STACK CFI f1a6 $r14: $r14 .cfa: $rsp 16 +
STACK CFI f1a8 $r15: $r15 .cfa: $rsp 8 +
STACK CFI f1b0 $r12: .cfa -40 + ^ $r13: .cfa -32 + ^ $r14: .cfa -24 + ^ $r15: .cfa -16 + ^ $rbp: .cfa -48 + ^ $rbx: .cfa -56 + ^ .cfa: $rsp 80 +
STACK CFI INIT f230 14d .cfa: $rsp 8 + .ra: .cfa -8 + ^
STACK CFI f27a $r15: .cfa -16 + ^ .cfa: $rsp 16 +
STACK CFI f27c $r14: .cfa -24 + ^ .cfa: $rsp 24 +
STACK CFI f27e $r13: .cfa -32 + ^ .cfa: $rsp 32 +
STACK CFI f280 $r12: .cfa -40 + ^ .cfa: $rsp 40 +
STACK CFI f281 $rbp: .cfa -48 + ^ .cfa: $rsp 48 +
STACK CFI f282 $rbx: .cfa -56 + ^ .cfa: $rsp 56 +
STACK CFI f28c .cfa: $rsp 64 +
STACK CFI f349 .cfa: $rsp 56 +
STACK CFI f34a $rbx: $rbx .cfa: $rsp 48 +
STACK CFI f34b $rbp: $rbp .cfa: $rsp 40 +
STACK CFI f34d $r12: $r12 .cfa: $rsp 32 +
STACK CFI f34f $r13: $r13 .cfa: $rsp 24 +
STACK CFI f351 $r14: $r14 .cfa: $rsp 16 +
STACK CFI f353 $r15: $r15 .cfa: $rsp 8 +
STACK CFI f358 $r12: .cfa -40 + ^ $r13: .cfa -32 + ^ $r14: .cfa -24 + ^ $r15: .cfa -16 + ^ $rbp: .cfa -48 + ^ $rbx: .cfa -56 + ^ .cfa: $rsp 64 +
STACK CFI INIT ed90 f0 .cfa: $rsp 8 + .ra: .cfa -8 + ^
STACK CFI ed92 $r12: .cfa -16 + ^ .cfa: $rsp 16 +
STACK CFI ed93 $rbp: .cfa -24 + ^ .cfa: $rsp 24 +
STACK CFI ed97 $rbx: .cfa -32 + ^ .cfa: $rsp 32 +
STACK CFI ed9e .cfa: $rsp 64 +
STACK CFI ee4d .cfa: $rsp 32 +
STACK CFI ee4e .cfa: $rsp 24 +
STACK CFI ee4f .cfa: $rsp 16 +
STACK CFI ee51 .cfa: $rsp 8 +
STACK CFI ee58 .cfa: $rsp 64 +
STACK CFI INIT ee80 e8 .cfa: $rsp 8 + .ra: .cfa -8 + ^
STACK CFI ee82 $r12: .cfa -16 + ^ .cfa: $rsp 16 +
STACK CFI ee83 $rbp: .cfa -24 + ^ .cfa: $rsp 24 +
STACK CFI ee87 $rbx: .cfa -32 + ^ .cfa: $rsp 32 +
STACK CFI ee8e .cfa: $rsp 64 +
STACK CFI ef3b .cfa: $rsp 32 +
STACK CFI ef3c .cfa: $rsp 24 +
STACK CFI ef3d .cfa: $rsp 16 +
STACK CFI ef3f .cfa: $rsp 8 +
STACK CFI ef40 .cfa: $rsp 64 +
STACK CFI INIT f380 1f .cfa: $rsp 8 + .ra: .cfa -8 + ^
STACK CFI f38b .cfa: $rsp 16 +
STACK CFI f39e .cfa: $rsp 8 +
STACK CFI INIT f3a0 5 .cfa: $rsp 8 + .ra: .cfa -8 + ^
STACK CFI INIT f3b0 452 .cfa: $rsp 8 + .ra: .cfa -8 + ^
STACK CFI f3b2 $r15: .cfa -16 + ^ .cfa: $rsp 16 +
STACK CFI f3b4 $r14: .cfa -24 + ^ .cfa: $rsp 24 +
STACK CFI f3b6 $r13: .cfa -32 + ^ .cfa: $rsp 32 +
STACK CFI f3b8 $r12: .cfa -40 + ^ .cfa: $rsp 40 +
STACK CFI f3b9 $rbp: .cfa -48 + ^ .cfa: $rsp 48 +
STACK CFI f3ba $rbx: .cfa -56 + ^ .cfa: $rsp 56 +
STACK CFI f3be .cfa: $rsp 96 +
STACK CFI f407 .cfa: $rsp 56 +
STACK CFI f40a .cfa: $rsp 48 +
STACK CFI f40b .cfa: $rsp 40 +
STACK CFI f40d .cfa: $rsp 32 +
STACK CFI f40f .cfa: $rsp 24 +
STACK CFI f411 .cfa: $rsp 16 +
STACK CFI f413 .cfa: $rsp 8 +
STACK CFI f418 .cfa: $rsp 96 +
STACK CFI f53e .cfa: $rsp 56 +
STACK CFI f53f .cfa: $rsp 48 +
STACK CFI f540 .cfa: $rsp 40 +
STACK CFI f542 .cfa: $rsp 32 +
STACK CFI f544 .cfa: $rsp 24 +
STACK CFI f546 .cfa: $rsp 16 +
STACK CFI f548 .cfa: $rsp 8 +
STACK CFI f550 .cfa: $rsp 96 +
STACK CFI INIT f810 287 .cfa: $rsp 8 + .ra: .cfa -8 + ^
STACK CFI f815 $r14: .cfa -16 + ^ .cfa: $rsp 16 +
STACK CFI f817 $r13: .cfa -24 + ^ .cfa: $rsp 24 +
STACK CFI f819 $r12: .cfa -32 + ^ .cfa: $rsp 32 +
STACK CFI f81a $rbp: .cfa -40 + ^ .cfa: $rsp 40 +
STACK CFI f81b $rbx: .cfa -48 + ^ .cfa: $rsp 48 +
STACK CFI f85a .cfa: $rsp 40 +
STACK CFI f85d .cfa: $rsp 32 +
STACK CFI f85f .cfa: $rsp 24 +
STACK CFI f861 .cfa: $rsp 16 +
STACK CFI f863 .cfa: $rsp 8 +
STACK CFI f868 .cfa: $rsp 48 +
STACK CFI f909 .cfa: $rsp 40 +
STACK CFI f90a .cfa: $rsp 32 +
STACK CFI f90c .cfa: $rsp 24 +
STACK CFI f90e .cfa: $rsp 16 +
STACK CFI f910 .cfa: $rsp 8 +
STACK CFI f918 .cfa: $rsp 48 +
STACK CFI INIT faa0 135 .cfa: $rsp 8 + .ra: .cfa -8 + ^
STACK CFI faa2 $r15: .cfa -16 + ^ .cfa: $rsp 16 +
STACK CFI faa4 $r14: .cfa -24 + ^ .cfa: $rsp 24 +
STACK CFI faa6 $r13: .cfa -32 + ^ .cfa: $rsp 32 +
STACK CFI faa8 $r12: .cfa -40 + ^ .cfa: $rsp 40 +
STACK CFI faac $rbp: .cfa -48 + ^ .cfa: $rsp 48 +
STACK CFI faad $rbx: .cfa -56 + ^ .cfa: $rsp 56 +
STACK CFI fab1 .cfa: $rsp 96 +
STACK CFI fb9e .cfa: $rsp 56 +
STACK CFI fb9f .cfa: $rsp 48 +
STACK CFI fba0 .cfa: $rsp 40 +
STACK CFI fba2 .cfa: $rsp 32 +
STACK CFI fba4 .cfa: $rsp 24 +
STACK CFI fba6 .cfa: $rsp 16 +
STACK CFI fba8 .cfa: $rsp 8 +
STACK CFI fba9 .cfa: $rsp 96 +
STACK CFI INIT fbe0 e2 .cfa: $rsp 8 + .ra: .cfa -8 + ^
STACK CFI fbe2 $r13: .cfa -16 + ^ .cfa: $rsp 16 +
STACK CFI fbe4 $r12: .cfa -24 + ^ .cfa: $rsp 24 +
STACK CFI fbe5 $rbp: .cfa -32 + ^ .cfa: $rsp 32 +
STACK CFI fbe6 $rbx: .cfa -40 + ^ .cfa: $rsp 40 +
STACK CFI fbee .cfa: $rsp 64 +
STACK CFI fc50 .cfa: $rsp 40 +
STACK CFI fc51 .cfa: $rsp 32 +
STACK CFI fc52 .cfa: $rsp 24 +
STACK CFI fc54 .cfa: $rsp 16 +
STACK CFI fc56 .cfa: $rsp 8 +
STACK CFI fc60 .cfa: $rsp 64 +
STACK CFI INIT fcd0 c7 .cfa: $rsp 8 + .ra: .cfa -8 + ^
STACK CFI fcd1 $rbx: .cfa -16 + ^ .cfa: $rsp 16 +
STACK CFI fcd8 .cfa: $rsp 48 +
STACK CFI fd67 .cfa: $rsp 16 +
STACK CFI fd68 .cfa: $rsp 8 +
STACK CFI fd70 .cfa: $rsp 48 +
STACK CFI INIT fda0 49 .cfa: $rsp 8 + .ra: .cfa -8 + ^
STACK CFI fda1 $rbx: .cfa -16 + ^ .cfa: $rsp 16 +
STACK CFI fda8 .cfa: $rsp 32 +
STACK CFI fddf .cfa: $rsp 16 +
STACK CFI fde3 .cfa: $rsp 8 +
STACK CFI fde4 .cfa: $rsp 32 +
STACK CFI INIT fdf0 462 .cfa: $rsp 8 + .ra: .cfa -8 + ^
STACK CFI fdf2 $r15: .cfa -16 + ^ .cfa: $rsp 16 +
STACK CFI fdf4 $r14: .cfa -24 + ^ .cfa: $rsp 24 +
STACK CFI fdf9 $r13: .cfa -32 + ^ .cfa: $rsp 32 +
STACK CFI fdfb $r12: .cfa -40 + ^ .cfa: $rsp 40 +
STACK CFI fdfc $rbp: .cfa -48 + ^ .cfa: $rsp 48 +
STACK CFI fdfd $rbx: .cfa -56 + ^ .cfa: $rsp 56 +
STACK CFI fe09 .cfa: $rsp 144 +
STACK CFI febf .cfa: $rsp 56 +
STACK CFI fec0 .cfa: $rsp 48 +
STACK CFI fec1 .cfa: $rsp 40 +
STACK CFI fec3 .cfa: $rsp 32 +
STACK CFI fec5 .cfa: $rsp 24 +
STACK CFI fec7 .cfa: $rsp 16 +
STACK CFI fec9 .cfa: $rsp 8 +
STACK CFI fed0 .cfa: $rsp 144 +
STACK CFI ff69 .cfa: $rsp 152 +
STACK CFI ff6f .cfa: $rsp 160 +
STACK CFI ff86 .cfa: $rsp 152 +
STACK CFI ff8c .cfa: $rsp 144 +
STACK CFI INIT 10260 7c .cfa: $rsp 8 + .ra: .cfa -8 + ^
STACK CFI 10261 $rbp: .cfa -16 + ^ .cfa: $rsp 16 +
STACK CFI 10262 $rbx: .cfa -24 + ^ .cfa: $rsp 24 +
STACK CFI 1026b .cfa: $rsp 64 +
STACK CFI 102ba .cfa: $rsp 24 +
STACK CFI 102bb .cfa: $rsp 16 +
STACK CFI 102bc .cfa: $rsp 8 +
STACK CFI 102c0 .cfa: $rsp 64 +
STACK CFI INIT 103e0 16 .cfa: $rsp 8 + .ra: .cfa -8 + ^
STACK CFI 103e4 .cfa: $rsp 16 +
STACK CFI 103ef .cfa: $rsp 8 +
STACK CFI INIT 102e0 73 .cfa: $rsp 8 + .ra: .cfa -8 + ^
STACK CFI 102e1 $rbx: .cfa -16 + ^ .cfa: $rsp 16 +
STACK CFI 10352 .cfa: $rsp 8 +
STACK CFI INIT 10360 75 .cfa: $rsp 8 + .ra: .cfa -8 + ^
STACK CFI 10364 $rbx: .cfa -16 + ^ .cfa: $rsp 16 +
STACK CFI 10383 .cfa: $rsp 24 +
STACK CFI 10387 .cfa: $rsp 32 +
STACK CFI 1038c .cfa: $rsp 40 +
STACK CFI 10391 .cfa: $rsp 48 +
STACK CFI 103a2 .cfa: $rsp 16 +
STACK CFI 103b5 .cfa: $rsp 8 +
STACK CFI 103b6 .cfa: $rsp 16 +
STACK CFI INIT 10400 1e .cfa: $rsp 8 + .ra: .cfa -8 + ^
STACK CFI INIT 10420 46 .cfa: $rsp 8 + .ra: .cfa -8 + ^
STACK CFI INIT 10470 56 .cfa: $rsp 8 + .ra: .cfa -8 + ^
STACK CFI INIT 104d0 4c .cfa: $rsp 8 + .ra: .cfa -8 + ^
STACK CFI INIT 10520 39 .cfa: $rsp 8 + .ra: .cfa -8 + ^
STACK CFI INIT 10560 3c .cfa: $rsp 8 + .ra: .cfa -8 + ^
STACK CFI INIT 105a0 34 .cfa: $rsp 8 + .ra: .cfa -8 + ^
STACK CFI INIT 105e0 26 .cfa: $rsp 8 + .ra: .cfa -8 + ^
STACK CFI INIT 10610 34 .cfa: $rsp 8 + .ra: .cfa -8 + ^
STACK CFI INIT 10650 7c .cfa: $rsp 8 + .ra: .cfa -8 + ^
STACK CFI INIT 106d0 3a .cfa: $rsp 8 + .ra: .cfa -8 + ^
STACK CFI INIT 10710 1f .cfa: $rsp 8 + .ra: .cfa -8 + ^
STACK CFI INIT 10730 38 .cfa: $rsp 8 + .ra: .cfa -8 + ^
STACK CFI INIT 10770 3b .cfa: $rsp 8 + .ra: .cfa -8 + ^
STACK CFI 10776 $rbx: .cfa -16 + ^ .cfa: $rsp 16 +
STACK CFI 10793 $rbx: $rbx .cfa: $rsp 8 +
STACK CFI 10798 $rbx: .cfa -16 + ^ .cfa: $rsp 16 +
STACK CFI 107a7 $rbx: $rbx .cfa: $rsp 8 +
STACK CFI INIT 107b0 6c .cfa: $rsp 8 + .ra: .cfa -8 + ^
STACK CFI 107b4 .cfa: $rsp 32 +
STACK CFI 10808 .cfa: $rsp 8 +
STACK CFI 10810 .cfa: $rsp 32 +
STACK CFI INIT 10820 10 .cfa: $rsp 8 + .ra: .cfa -8 + ^
STACK CFI INIT 10830 4b .cfa: $rsp 8 + .ra: .cfa -8 + ^
STACK CFI 10831 $rbp: .cfa -16 + ^ .cfa: $rsp 16 +
STACK CFI 10832 $rbx: .cfa -24 + ^ .cfa: $rsp 24 +
STACK CFI 10839 .cfa: $rsp 32 +
STACK CFI 1086c .cfa: $rsp 24 +
STACK CFI 1086d .cfa: $rsp 16 +
STACK CFI 1086e .cfa: $rsp 8 +
STACK CFI 10870 .cfa: $rsp 32 +
STACK CFI INIT 10880 5 .cfa: $rsp 8 + .ra: .cfa -8 + ^
STACK CFI INIT 10890 1af .cfa: $rsp 8 + .ra: .cfa -8 + ^
STACK CFI 10892 $r15: .cfa -16 + ^ .cfa: $rsp 16 +
STACK CFI 10894 $r14: .cfa -24 + ^ .cfa: $rsp 24 +
STACK CFI 10896 $r13: .cfa -32 + ^ .cfa: $rsp 32 +
STACK CFI 10898 $r12: .cfa -40 + ^ .cfa: $rsp 40 +
STACK CFI 1089c $rbp: .cfa -48 + ^ .cfa: $rsp 48 +
STACK CFI 1089d $rbx: .cfa -56 + ^ .cfa: $rsp 56 +
STACK CFI 108ac .cfa: $rsp 224 +
STACK CFI 1099d .cfa: $rsp 56 +
STACK CFI 1099e .cfa: $rsp 48 +
STACK CFI 1099f .cfa: $rsp 40 +
STACK CFI 109a1 .cfa: $rsp 32 +
STACK CFI 109a3 .cfa: $rsp 24 +
STACK CFI 109a5 .cfa: $rsp 16 +
STACK CFI 109a7 .cfa: $rsp 8 +
STACK CFI 109b0 .cfa: $rsp 224 +
STACK CFI INIT 10a40 14 .cfa: $rsp 8 + .ra: .cfa -8 + ^
STACK CFI INIT 10a60 40 .cfa: $rsp 8 + .ra: .cfa -8 + ^
STACK CFI 10a66 $rbx: .cfa -16 + ^ .cfa: $rsp 16 +
STACK CFI 10a81 .cfa: $rsp 8 +
STACK CFI 10a88 .cfa: $rsp 16 +
STACK CFI 10a9f .cfa: $rsp 8 +
STACK CFI INIT 10aa0 2 .cfa: $rsp 8 + .ra: .cfa -8 + ^
STACK CFI INIT 10ab0 213 .cfa: $rsp 8 + .ra: .cfa -8 + ^
STACK CFI 10ab2 $r15: .cfa -16 + ^ .cfa: $rsp 16 +
STACK CFI 10ab4 $r14: .cfa -24 + ^ .cfa: $rsp 24 +
STACK CFI 10abb $r13: .cfa -32 + ^ .cfa: $rsp 32 +
STACK CFI 10abd $r12: .cfa -40 + ^ .cfa: $rsp 40 +
STACK CFI 10abe $rbp: .cfa -48 + ^ .cfa: $rsp 48 +
STACK CFI 10abf $rbx: .cfa -56 + ^ .cfa: $rsp 56 +
STACK CFI 10ac9 .cfa: $rsp 208 +
STACK CFI 10c57 .cfa: $rsp 56 +
STACK CFI 10c58 .cfa: $rsp 48 +
STACK CFI 10c59 .cfa: $rsp 40 +
STACK CFI 10c5b .cfa: $rsp 32 +
STACK CFI 10c5d .cfa: $rsp 24 +
STACK CFI 10c5f .cfa: $rsp 16 +
STACK CFI 10c61 .cfa: $rsp 8 +
STACK CFI 10c68 .cfa: $rsp 208 +
STACK CFI INIT 10cd0 5 .cfa: $rsp 8 + .ra: .cfa -8 + ^
STACK CFI INIT 10ce0 23 .cfa: $rsp 8 + .ra: .cfa -8 + ^
STACK CFI 10ce5 $rbx: .cfa -16 + ^ .cfa: $rsp 16 +
STACK CFI 10cff $rbx: $rbx .cfa: $rsp 8 +
STACK CFI INIT 10d10 8 .cfa: $rsp 8 + .ra: .cfa -8 + ^
STACK CFI INIT 10d20 2fc .cfa: $rsp 8 + .ra: .cfa -8 + ^
STACK CFI INIT 11020 44 .cfa: $rsp 8 + .ra: .cfa -8 + ^
STACK CFI 1104c .cfa: $rsp 16 +
STACK CFI INIT 11070 47 .cfa: $rsp 8 + .ra: .cfa -8 + ^
STACK CFI 1109f .cfa: $rsp 16 +
STACK CFI INIT 110c0 8 .cfa: $rsp 8 + .ra: .cfa -8 + ^
STACK CFI INIT 110d0 8 .cfa: $rsp 8 + .ra: .cfa -8 + ^
STACK CFI INIT 110e0 25c .cfa: $rsp 8 + .ra: .cfa -8 + ^
STACK CFI INIT 11340 c7 .cfa: $rsp 8 + .ra: .cfa -8 + ^
STACK CFI INIT 11410 fd .cfa: $rsp 8 + .ra: .cfa -8 + ^
STACK CFI 11411 $rbp: .cfa -16 + ^ .cfa: $rsp 16 +
STACK CFI 11412 $rbx: .cfa -24 + ^ .cfa: $rsp 24 +
STACK CFI 11499 .cfa: $rsp 16 +
STACK CFI 1149a .cfa: $rsp 8 +
STACK CFI 114a0 .cfa: $rsp 24 +
STACK CFI 114fa .cfa: $rsp 16 +
STACK CFI 114fb .cfa: $rsp 8 +
STACK CFI 114fc .cfa: $rsp 24 +
STACK CFI INIT 11510 118 .cfa: $rsp 8 + .ra: .cfa -8 + ^
STACK CFI 11515 $r14: .cfa -16 + ^ .cfa: $rsp 16 +
STACK CFI 11517 $r13: .cfa -24 + ^ .cfa: $rsp 24 +
STACK CFI 1151c $r12: .cfa -32 + ^ .cfa: $rsp 32 +
STACK CFI 1151d $rbp: .cfa -40 + ^ .cfa: $rsp 40 +
STACK CFI 11521 $rbx: .cfa -48 + ^ .cfa: $rsp 48 +
STACK CFI 115b6 .cfa: $rsp 40 +
STACK CFI 115c2 .cfa: $rsp 32 +
STACK CFI 115c4 .cfa: $rsp 24 +
STACK CFI 115c6 .cfa: $rsp 16 +
STACK CFI 115c8 .cfa: $rsp 8 +
STACK CFI 115d0 .cfa: $rsp 48 +
STACK CFI 115ef .cfa: $rsp 40 +
STACK CFI 115f8 .cfa: $rsp 32 +
STACK CFI 115fa .cfa: $rsp 24 +
STACK CFI 115fc .cfa: $rsp 16 +
STACK CFI 115fe .cfa: $rsp 8 +
STACK CFI 11600 .cfa: $rsp 48 +
STACK CFI 11601 .cfa: $rsp 40 +
STACK CFI 1160d .cfa: $rsp 32 +
STACK CFI 1160f .cfa: $rsp 24 +
STACK CFI 11611 .cfa: $rsp 16 +
STACK CFI 11613 .cfa: $rsp 8 +
STACK CFI 11614 .cfa: $rsp 48 +
STACK CFI 11615 .cfa: $rsp 40 +
STACK CFI 11621 .cfa: $rsp 32 +
STACK CFI 11623 .cfa: $rsp 24 +
STACK CFI 11625 .cfa: $rsp 16 +
STACK CFI 11627 .cfa: $rsp 8 +
STACK CFI INIT 11630 1ff .cfa: $rsp 8 + .ra: .cfa -8 + ^
STACK CFI 11632 $r13: .cfa -16 + ^ .cfa: $rsp 16 +
STACK CFI 11634 $r12: .cfa -24 + ^ .cfa: $rsp 24 +
STACK CFI 11635 $rbp: .cfa -32 + ^ .cfa: $rsp 32 +
STACK CFI 11636 $rbx: .cfa -40 + ^ .cfa: $rsp 40 +
STACK CFI 11752 .cfa: $rsp 32 +
STACK CFI 11753 .cfa: $rsp 24 +
STACK CFI 11758 .cfa: $rsp 16 +
STACK CFI 1175a .cfa: $rsp 8 +
STACK CFI 11760 .cfa: $rsp 40 +
STACK CFI 11775 .cfa: $rsp 32 +
STACK CFI 11776 .cfa: $rsp 24 +
STACK CFI 11778 .cfa: $rsp 16 +
STACK CFI 1177a .cfa: $rsp 8 +
STACK CFI 11780 .cfa: $rsp 40 +
STACK CFI 117a5 .cfa: $rsp 32 +
STACK CFI 117a6 .cfa: $rsp 24 +
STACK CFI 117a8 .cfa: $rsp 16 +
STACK CFI 117aa .cfa: $rsp 8 +
STACK CFI 117b0 .cfa: $rsp 40 +
STACK CFI 117d9 .cfa: $rsp 32 +
STACK CFI 117da .cfa: $rsp 24 +
STACK CFI 117dc .cfa: $rsp 16 +
STACK CFI 117de .cfa: $rsp 8 +
STACK CFI 117df .cfa: $rsp 40 +
STACK CFI INIT 11830 2b .cfa: $rsp 8 + .ra: .cfa -8 + ^
STACK CFI INIT 11860 26f .cfa: $rsp 8 + .ra: .cfa -8 + ^
STACK CFI 11862 $r15: .cfa -16 + ^ .cfa: $rsp 16 +
STACK CFI 11864 $r14: .cfa -24 + ^ .cfa: $rsp 24 +
STACK CFI 11866 $r13: .cfa -32 + ^ .cfa: $rsp 32 +
STACK CFI 11868 $r12: .cfa -40 + ^ .cfa: $rsp 40 +
STACK CFI 11869 $rbp: .cfa -48 + ^ .cfa: $rsp 48 +
STACK CFI 1186a $rbx: .cfa -56 + ^ .cfa: $rsp 56 +
STACK CFI 1186e .cfa: $rsp 80 +
STACK CFI 119bf .cfa: $rsp 56 +
STACK CFI 119c0 .cfa: $rsp 48 +
STACK CFI 119c1 .cfa: $rsp 40 +
STACK CFI 119c3 .cfa: $rsp 32 +
STACK CFI 119c5 .cfa: $rsp 24 +
STACK CFI 119c7 .cfa: $rsp 16 +
STACK CFI 119c9 .cfa: $rsp 8 +
STACK CFI 119d0 .cfa: $rsp 80 +
STACK CFI INIT 11ad0 19a .cfa: $rsp 8 + .ra: .cfa -8 + ^
STACK CFI 11ad2 $r13: .cfa -16 + ^ .cfa: $rsp 16 +
STACK CFI 11ad4 $r12: .cfa -24 + ^ .cfa: $rsp 24 +
STACK CFI 11ad7 $rbp: .cfa -32 + ^ .cfa: $rsp 32 +
STACK CFI 11ad8 $rbx: .cfa -40 + ^ .cfa: $rsp 40 +
STACK CFI 11bbd .cfa: $rsp 32 +
STACK CFI 11bbe .cfa: $rsp 24 +
STACK CFI 11bc0 .cfa: $rsp 16 +
STACK CFI 11bc2 .cfa: $rsp 8 +
STACK CFI 11bc8 .cfa: $rsp 40 +
STACK CFI 11c4c .cfa: $rsp 32 +
STACK CFI 11c4d .cfa: $rsp 24 +
STACK CFI 11c4f .cfa: $rsp 16 +
STACK CFI 11c51 .cfa: $rsp 8 +
STACK CFI 11c52 .cfa: $rsp 40 +
STACK CFI INIT 11c70 287 .cfa: $rsp 8 + .ra: .cfa -8 + ^
STACK CFI 11c72 $r15: .cfa -16 + ^ .cfa: $rsp 16 +
STACK CFI 11c74 $r14: .cfa -24 + ^ .cfa: $rsp 24 +
STACK CFI 11c76 $r13: .cfa -32 + ^ .cfa: $rsp 32 +
STACK CFI 11c78 $r12: .cfa -40 + ^ .cfa: $rsp 40 +
STACK CFI 11c79 $rbp: .cfa -48 + ^ .cfa: $rsp 48 +
STACK CFI 11c7a $rbx: .cfa -56 + ^ .cfa: $rsp 56 +
STACK CFI 11c7e .cfa: $rsp 88 +
STACK CFI 11e05 .cfa: $rsp 56 +
STACK CFI 11e06 .cfa: $rsp 48 +
STACK CFI 11e07 .cfa: $rsp 40 +
STACK CFI 11e09 .cfa: $rsp 32 +
STACK CFI 11e0b .cfa: $rsp 24 +
STACK CFI 11e0d .cfa: $rsp 16 +
STACK CFI 11e0f .cfa: $rsp 8 +
STACK CFI 11e10 .cfa: $rsp 88 +
STACK CFI INIT 11f00 65 .cfa: $rsp 8 + .ra: .cfa -8 + ^
STACK CFI 11f02 $r15: .cfa -16 + ^ .cfa: $rsp 16 +
STACK CFI 11f04 $r14: .cfa -24 + ^ .cfa: $rsp 24 +
STACK CFI 11f09 $r13: .cfa -32 + ^ .cfa: $rsp 32 +
STACK CFI 11f0b $r12: .cfa -40 + ^ .cfa: $rsp 40 +
STACK CFI 11f13 $rbp: .cfa -48 + ^ .cfa: $rsp 48 +
STACK CFI 11f1b $rbx: .cfa -56 + ^ .cfa: $rsp 56 +
STACK CFI 11f28 .cfa: $rsp 64 +
STACK CFI 11f5a .cfa: $rsp 56 +
STACK CFI 11f5b .cfa: $rsp 48 +
STACK CFI 11f5c .cfa: $rsp 40 +
STACK CFI 11f5e .cfa: $rsp 32 +
STACK CFI 11f60 .cfa: $rsp 24 +
STACK CFI 11f62 .cfa: $rsp 16 +
STACK CFI 11f64 .cfa: $rsp 8 +
STACK CFI INIT 11f70 2 .cfa: $rsp 8 + .ra: .cfa -8 + ^
